ARM GAS  C:\Users\7709\AppData\Local\Temp\cc1h2hep.s 			page 1


   1              		.syntax unified
   2              		.cpu cortex-m0
   3              		.fpu softvfp
   4              		.eabi_attribute 20, 1
   5              		.eabi_attribute 21, 1
   6              		.eabi_attribute 23, 3
   7              		.eabi_attribute 24, 1
   8              		.eabi_attribute 25, 1
   9              		.eabi_attribute 26, 1
  10              		.eabi_attribute 30, 6
  11              		.eabi_attribute 34, 0
  12              		.eabi_attribute 18, 4
  13              		.thumb
  14              		.syntax unified
  15              		.file	"sleep.c"
  16              		.text
  17              	.Ltext0:
  18              		.cfi_sections	.debug_frame
  19              		.section	.text.goSleep,"ax",%progbits
  20              		.align	2
  21              		.global	goSleep
  22              		.code	16
  23              		.thumb_func
  24              		.type	goSleep, %function
  25              	goSleep:
  26              	.LFB0:
  27              		.file 1 "sleep.c"
   1:sleep.c       **** /* ========================================
   2:sleep.c       ****  *
   3:sleep.c       ****  * All function to enter to sleep mode
   4:sleep.c       ****  * ========================================
   5:sleep.c       **** */
   6:sleep.c       **** 
   7:sleep.c       **** #include "Sleep.h"
   8:sleep.c       **** 
   9:sleep.c       **** 
  10:sleep.c       **** void goSleep(){
  28              		.loc 1 10 0
  29              		.cfi_startproc
  30              		@ args = 0, pretend = 0, frame = 0
  31              		@ frame_needed = 1, uses_anonymous_args = 0
  32 0000 80B5     		push	{r7, lr}
  33              		.cfi_def_cfa_offset 8
  34              		.cfi_offset 7, -8
  35              		.cfi_offset 14, -4
  36 0002 00AF     		add	r7, sp, #0
  37              		.cfi_def_cfa_register 7
  11:sleep.c       ****     
  12:sleep.c       ****     
  13:sleep.c       ****     CyBle_EnterLPM(CYBLE_BLESS_SLEEP);
  38              		.loc 1 13 0
  39 0004 0220     		movs	r0, #2
  40 0006 FFF7FEFF 		bl	CyBle_EnterLPM
  14:sleep.c       ****     CyBle_ExitLPM();
  41              		.loc 1 14 0
  42 000a FFF7FEFF 		bl	CyBle_ExitLPM
  15:sleep.c       ****     
ARM GAS  C:\Users\7709\AppData\Local\Temp\cc1h2hep.s 			page 2


  16:sleep.c       **** }
  43              		.loc 1 16 0
  44 000e C046     		nop
  45 0010 BD46     		mov	sp, r7
  46              		@ sp needed
  47 0012 80BD     		pop	{r7, pc}
  48              		.cfi_endproc
  49              	.LFE0:
  50              		.size	goSleep, .-goSleep
  51              		.section	.text.setTimerTosleep,"ax",%progbits
  52              		.align	2
  53              		.global	setTimerTosleep
  54              		.code	16
  55              		.thumb_func
  56              		.type	setTimerTosleep, %function
  57              	setTimerTosleep:
  58              	.LFB1:
  17:sleep.c       **** 
  18:sleep.c       **** void setTimerTosleep(){
  59              		.loc 1 18 0
  60              		.cfi_startproc
  61              		@ args = 0, pretend = 0, frame = 0
  62              		@ frame_needed = 1, uses_anonymous_args = 0
  63 0000 80B5     		push	{r7, lr}
  64              		.cfi_def_cfa_offset 8
  65              		.cfi_offset 7, -8
  66              		.cfi_offset 14, -4
  67 0002 00AF     		add	r7, sp, #0
  68              		.cfi_def_cfa_register 7
  19:sleep.c       ****     
  20:sleep.c       ****     
  21:sleep.c       ****     
  22:sleep.c       **** }
  69              		.loc 1 22 0
  70 0004 C046     		nop
  71 0006 BD46     		mov	sp, r7
  72              		@ sp needed
  73 0008 80BD     		pop	{r7, pc}
  74              		.cfi_endproc
  75              	.LFE1:
  76              		.size	setTimerTosleep, .-setTimerTosleep
  77              		.text
  78              	.Letext0:
  79              		.file 2 "Generated_Source\\PSoC4/BLE_Stack.h"