ARM GAS  C:\Users\7709\AppData\Local\Temp\ccDQbrve.s 			page 1


   1              		.syntax unified
   2              		.cpu cortex-m0
   3              		.fpu softvfp
   4              		.eabi_attribute 20, 1
   5              		.eabi_attribute 21, 1
   6              		.eabi_attribute 23, 3
   7              		.eabi_attribute 24, 1
   8              		.eabi_attribute 25, 1
   9              		.eabi_attribute 26, 1
  10              		.eabi_attribute 30, 4
  11              		.eabi_attribute 34, 0
  12              		.eabi_attribute 18, 4
  13              		.thumb
  14              		.syntax unified
  15              		.file	"BLE.c"
  16              		.text
  17              	.Ltext0:
  18              		.cfi_sections	.debug_frame
  19              		.section	.text.CyBle_ChangeAdLocalName,"ax",%progbits
  20              		.align	1
  21              		.code	16
  22              		.thumb_func
  23              		.type	CyBle_ChangeAdLocalName, %function
  24              	CyBle_ChangeAdLocalName:
  25              	.LFB9:
  26              		.file 1 "Generated_Source\\PSoC4\\BLE.c"
   1:Generated_Source\PSoC4/BLE.c **** /***************************************************************************//**
   2:Generated_Source\PSoC4/BLE.c **** * \file CYBLE.c
   3:Generated_Source\PSoC4/BLE.c **** * \version 3.40
   4:Generated_Source\PSoC4/BLE.c **** * 
   5:Generated_Source\PSoC4/BLE.c **** * \brief
   6:Generated_Source\PSoC4/BLE.c **** *  This file contains the source code for the Common APIs of the BLE Component.
   7:Generated_Source\PSoC4/BLE.c **** * 
   8:Generated_Source\PSoC4/BLE.c **** ********************************************************************************
   9:Generated_Source\PSoC4/BLE.c **** * \copyright
  10:Generated_Source\PSoC4/BLE.c **** * Copyright 2014-2016, Cypress Semiconductor Corporation.  All rights reserved.
  11:Generated_Source\PSoC4/BLE.c **** * You may use this file only in accordance with the license, terms, conditions,
  12:Generated_Source\PSoC4/BLE.c **** * disclaimers, and limitations in the end user license agreement accompanying
  13:Generated_Source\PSoC4/BLE.c **** * the software package with which this file was provided.
  14:Generated_Source\PSoC4/BLE.c **** *******************************************************************************/
  15:Generated_Source\PSoC4/BLE.c **** 
  16:Generated_Source\PSoC4/BLE.c **** #include "BLE_eventHandler.h"
  17:Generated_Source\PSoC4/BLE.c **** #include "BLE_HAL_PVT.h"
  18:Generated_Source\PSoC4/BLE.c **** #include <stdlib.h>
  19:Generated_Source\PSoC4/BLE.c **** 
  20:Generated_Source\PSoC4/BLE.c **** 
  21:Generated_Source\PSoC4/BLE.c **** /***************************************
  22:Generated_Source\PSoC4/BLE.c **** * Function Prototypes
  23:Generated_Source\PSoC4/BLE.c **** ***************************************/
  24:Generated_Source\PSoC4/BLE.c **** 
  25:Generated_Source\PSoC4/BLE.c **** #if(CYBLE_GATT_ROLE_SERVER)
  26:Generated_Source\PSoC4/BLE.c ****     #if(CYBLE_GAP_ROLE_PERIPHERAL)
  27:Generated_Source\PSoC4/BLE.c ****         static void CyBle_ChangeAdLocalName(const char8 name[], uint8 dest);
  28:Generated_Source\PSoC4/BLE.c ****     #endif /* (CYBLE_GAP_ROLE_PERIPHERAL) */
  29:Generated_Source\PSoC4/BLE.c **** #endif /* (CYBLE_GATT_ROLE_SERVER) */
  30:Generated_Source\PSoC4/BLE.c ****     
  31:Generated_Source\PSoC4/BLE.c **** 
ARM GAS  C:\Users\7709\AppData\Local\Temp\ccDQbrve.s 			page 2


  32:Generated_Source\PSoC4/BLE.c **** /***************************************
  33:Generated_Source\PSoC4/BLE.c **** * Global Variables
  34:Generated_Source\PSoC4/BLE.c **** ***************************************/
  35:Generated_Source\PSoC4/BLE.c **** 
  36:Generated_Source\PSoC4/BLE.c **** /* Indicates whether the BLE has been initialized. The variable is initialized to
  37:Generated_Source\PSoC4/BLE.c ****    0 and set to 1 the first time CyBle_Start() is called. This allows the component
  38:Generated_Source\PSoC4/BLE.c ****    to restart without reinitialization after the first call to the CyBle_Start() 
  39:Generated_Source\PSoC4/BLE.c ****    routine. If reinitialization of the component is required, the variable should 
  40:Generated_Source\PSoC4/BLE.c ****    be set to 0 before the CyBle_Start() routine is called. Alternatively, the BLE
  41:Generated_Source\PSoC4/BLE.c ****    can be reinitialized by calling the CyBle_Init() function.
  42:Generated_Source\PSoC4/BLE.c **** */
  43:Generated_Source\PSoC4/BLE.c **** uint8  cyBle_initVar = 0u;
  44:Generated_Source\PSoC4/BLE.c **** 
  45:Generated_Source\PSoC4/BLE.c **** /* Allocate RAM memory for stack. This buffer could be reused by application when 
  46:Generated_Source\PSoC4/BLE.c ****    BLE component is stopped. For export mode buffer is allocated in heap.
  47:Generated_Source\PSoC4/BLE.c **** */
  48:Generated_Source\PSoC4/BLE.c **** #if(CYBLE_SHARING_MODE_EXPORT)
  49:Generated_Source\PSoC4/BLE.c ****     
  50:Generated_Source\PSoC4/BLE.c **** uint8 *cyBle_stackMemoryRam = NULL;
  51:Generated_Source\PSoC4/BLE.c **** 
  52:Generated_Source\PSoC4/BLE.c **** #else
  53:Generated_Source\PSoC4/BLE.c **** 
  54:Generated_Source\PSoC4/BLE.c **** CYBLE_CYALIGNED_BEGIN CY_NOINIT uint8 cyBle_stackMemoryRam[CYBLE_STACK_RAM_SIZE] CYBLE_CYALIGNED_EN
  55:Generated_Source\PSoC4/BLE.c **** 
  56:Generated_Source\PSoC4/BLE.c **** #endif  /* CYBLE_SHARING_MODE_EXPORT */
  57:Generated_Source\PSoC4/BLE.c **** 
  58:Generated_Source\PSoC4/BLE.c **** #if(CYBLE_GAP_ROLE_PERIPHERAL || CYBLE_GAP_ROLE_BROADCASTER)
  59:Generated_Source\PSoC4/BLE.c **** 
  60:Generated_Source\PSoC4/BLE.c **** CYBLE_GAPP_DISC_PARAM_T cyBle_discoveryParam =
  61:Generated_Source\PSoC4/BLE.c **** {
  62:Generated_Source\PSoC4/BLE.c ****     0x0020u,    /* uint16 advertising_interval_min */
  63:Generated_Source\PSoC4/BLE.c ****     0x00A0u,    /* uint16 advertising_interval_max */
  64:Generated_Source\PSoC4/BLE.c ****     CYBLE_GAPP_CONNECTABLE_UNDIRECTED_ADV, /* uint8 advertising_type */
  65:Generated_Source\PSoC4/BLE.c ****     0x00u,      /* uint8 own_addr_type */
  66:Generated_Source\PSoC4/BLE.c ****     0x00u,      /* uint8 direct_addr_type */
  67:Generated_Source\PSoC4/BLE.c ****     {0x00u, 0x00u, 0x00u, 0x50u, 0xA0u, 0xBBu}, /* uint8* direct_addr */
  68:Generated_Source\PSoC4/BLE.c ****     0x07u,      /* uint8 advertising_channel_map */
  69:Generated_Source\PSoC4/BLE.c ****     0x00u,      /* uint8 advertising_filter_policy */
  70:Generated_Source\PSoC4/BLE.c **** };
  71:Generated_Source\PSoC4/BLE.c **** 
  72:Generated_Source\PSoC4/BLE.c **** CYBLE_GAPP_DISC_DATA_T cyBle_discoveryData =
  73:Generated_Source\PSoC4/BLE.c **** {
  74:Generated_Source\PSoC4/BLE.c ****     { 0x02u, 0x01u, 0x06u, 0x0Du, 0x09u, 0x53u, 0x65u,
  75:Generated_Source\PSoC4/BLE.c ****     0x6Eu, 0x73u, 0x6Fu, 0x72u, 0x5Fu, 0x53u, 0x6Cu, 0x61u,
  76:Generated_Source\PSoC4/BLE.c ****     0x76u, 0x65u, 0x00u, 0x00u, 0x00u, 0x00u, 0x00u, 0x00u,
  77:Generated_Source\PSoC4/BLE.c ****     0x00u, 0x00u, 0x00u, 0x00u, 0x00u, 0x00u, 0x00u, 0x00u }, /* uint8 advertising_data[CYBLE_MAX_A
  78:Generated_Source\PSoC4/BLE.c ****     0x11u,      /* uint8 adv_data_length */
  79:Generated_Source\PSoC4/BLE.c **** };
  80:Generated_Source\PSoC4/BLE.c **** 
  81:Generated_Source\PSoC4/BLE.c **** CYBLE_GAPP_SCAN_RSP_DATA_T cyBle_scanRspData =
  82:Generated_Source\PSoC4/BLE.c **** {
  83:Generated_Source\PSoC4/BLE.c ****     { 0x05u, 0xFFu, 0x31u, 0x01u, 0x3Bu, 0x04u, 0x00u,
  84:Generated_Source\PSoC4/BLE.c ****     0x00u, 0x00u, 0x00u, 0x00u, 0x00u, 0x00u, 0x00u, 0x00u,
  85:Generated_Source\PSoC4/BLE.c ****     0x00u, 0x00u, 0x00u, 0x00u, 0x00u, 0x00u, 0x00u, 0x00u,
  86:Generated_Source\PSoC4/BLE.c ****     0x00u, 0x00u, 0x00u, 0x00u, 0x00u, 0x00u, 0x00u, 0x00u }, /* uint8 scan_rsp_data[CYBLE_MAX_SCAN
  87:Generated_Source\PSoC4/BLE.c ****     0x06u,      /* uint8 scan_rsp_data_length */
  88:Generated_Source\PSoC4/BLE.c **** };
ARM GAS  C:\Users\7709\AppData\Local\Temp\ccDQbrve.s 			page 3


  89:Generated_Source\PSoC4/BLE.c **** 
  90:Generated_Source\PSoC4/BLE.c **** /* This variable of type CYBLE_GAPP_DISC_MODE_INFO_T is present only when 
  91:Generated_Source\PSoC4/BLE.c ****    the BLE component is configured for Peripheral GAP role or Central and 
  92:Generated_Source\PSoC4/BLE.c ****    Peripheral GAP role. It contains the Advertisement settings and also the 
  93:Generated_Source\PSoC4/BLE.c ****    Advertisement and Scan response data parameters entered in the customizer.
  94:Generated_Source\PSoC4/BLE.c ****    This variable can be used by advanced users to change Advertisement settings,
  95:Generated_Source\PSoC4/BLE.c ****    Advertisement or Scan response data in runtime. 
  96:Generated_Source\PSoC4/BLE.c **** */
  97:Generated_Source\PSoC4/BLE.c **** CYBLE_GAPP_DISC_MODE_INFO_T cyBle_discoveryModeInfo =
  98:Generated_Source\PSoC4/BLE.c **** {
  99:Generated_Source\PSoC4/BLE.c ****     0x02u,      /* uint8 discMode */
 100:Generated_Source\PSoC4/BLE.c ****     &cyBle_discoveryParam,
 101:Generated_Source\PSoC4/BLE.c ****     &cyBle_discoveryData,
 102:Generated_Source\PSoC4/BLE.c ****     &cyBle_scanRspData,
 103:Generated_Source\PSoC4/BLE.c ****     0x000Au,    /* uint16 advTo */
 104:Generated_Source\PSoC4/BLE.c **** };
 105:Generated_Source\PSoC4/BLE.c **** 
 106:Generated_Source\PSoC4/BLE.c **** 
 107:Generated_Source\PSoC4/BLE.c **** #endif /* CYBLE_GAP_ROLE_PERIPHERAL || CYBLE_GAP_ROLE_BROADCASTER */
 108:Generated_Source\PSoC4/BLE.c **** 
 109:Generated_Source\PSoC4/BLE.c **** #if(CYBLE_GAP_ROLE_CENTRAL)
 110:Generated_Source\PSoC4/BLE.c ****     
 111:Generated_Source\PSoC4/BLE.c **** CYBLE_GAPC_CONN_PARAM_T cyBle_connectionParameters;
 112:Generated_Source\PSoC4/BLE.c **** 
 113:Generated_Source\PSoC4/BLE.c **** /* Connecting timeout is set to 30 seconds in CyBle_Init function. 
 114:Generated_Source\PSoC4/BLE.c ****    Not zero value starts timer in CyBle_GapcConnectDevice() API fucntion.
 115:Generated_Source\PSoC4/BLE.c **** */
 116:Generated_Source\PSoC4/BLE.c **** uint16 cyBle_connectingTimeout;
 117:Generated_Source\PSoC4/BLE.c ****     
 118:Generated_Source\PSoC4/BLE.c **** #endif /* CYBLE_GAP_ROLE_CENTRAL */
 119:Generated_Source\PSoC4/BLE.c **** 
 120:Generated_Source\PSoC4/BLE.c **** #if(CYBLE_GAP_ROLE_CENTRAL || CYBLE_GAP_ROLE_OBSERVER)
 121:Generated_Source\PSoC4/BLE.c ****     
 122:Generated_Source\PSoC4/BLE.c **** 
 123:Generated_Source\PSoC4/BLE.c ****     
 124:Generated_Source\PSoC4/BLE.c **** #endif /* CYBLE_GAP_ROLE_CENTRAL || CYBLE_GAP_ROLE_OBSERVER */
 125:Generated_Source\PSoC4/BLE.c **** 
 126:Generated_Source\PSoC4/BLE.c **** #if((CYBLE_GAP_ROLE_PERIPHERAL || CYBLE_GAP_ROLE_CENTRAL) && (CYBLE_BONDING_REQUIREMENT == CYBLE_BO
 127:Generated_Source\PSoC4/BLE.c **** 
 128:Generated_Source\PSoC4/BLE.c **** uint8 cyBle_peerBonding;
 129:Generated_Source\PSoC4/BLE.c **** uint8 cyBle_pendingFlashWrite;
 130:Generated_Source\PSoC4/BLE.c ****     
 131:Generated_Source\PSoC4/BLE.c **** #if(CYBLE_GATT_DB_CCCD_COUNT != 0u)
 132:Generated_Source\PSoC4/BLE.c ****     static uint8 cyBle_pendingFlashClearCccdHandle;
 133:Generated_Source\PSoC4/BLE.c **** #endif /* CYBLE_GATT_DB_CCCD_COUNT != 0u */
 134:Generated_Source\PSoC4/BLE.c ****     
 135:Generated_Source\PSoC4/BLE.c **** #endif  /* (CYBLE_BONDING_REQUIREMENT == CYBLE_BONDING_YES) */
 136:Generated_Source\PSoC4/BLE.c **** 
 137:Generated_Source\PSoC4/BLE.c **** CYBLE_CALLBACK_T CyBle_ApplCallback;
 138:Generated_Source\PSoC4/BLE.c **** CYBLE_GAP_BD_ADDR_T cyBle_deviceAddress = {{0x00u, 0x00u, 0x00u, 0x50u, 0xA0u, 0xBBu}, 0x00u };
 139:Generated_Source\PSoC4/BLE.c **** CYBLE_GAP_BD_ADDR_T * cyBle_sflashDeviceAddress = CYBLE_SFLASH_DEVICE_ADDRESS_PTR;
 140:Generated_Source\PSoC4/BLE.c **** 
 141:Generated_Source\PSoC4/BLE.c **** 
 142:Generated_Source\PSoC4/BLE.c **** /******************************************************************************
 143:Generated_Source\PSoC4/BLE.c **** * Function Name: CyBle_Init
 144:Generated_Source\PSoC4/BLE.c **** ***************************************************************************//**
 145:Generated_Source\PSoC4/BLE.c **** *
ARM GAS  C:\Users\7709\AppData\Local\Temp\ccDQbrve.s 			page 4


 146:Generated_Source\PSoC4/BLE.c **** *   Initializes the component with the parameters set in the customizer.
 147:Generated_Source\PSoC4/BLE.c **** * 
 148:Generated_Source\PSoC4/BLE.c **** *  \return
 149:Generated_Source\PSoC4/BLE.c **** *   None
 150:Generated_Source\PSoC4/BLE.c **** * 
 151:Generated_Source\PSoC4/BLE.c **** ******************************************************************************/
 152:Generated_Source\PSoC4/BLE.c **** void CyBle_Init(void)
 153:Generated_Source\PSoC4/BLE.c **** {
 154:Generated_Source\PSoC4/BLE.c ****     cyBle_eventHandlerFlag = 0u;
 155:Generated_Source\PSoC4/BLE.c ****     cyBle_busyStatus = CYBLE_STACK_STATE_FREE;
 156:Generated_Source\PSoC4/BLE.c **** 
 157:Generated_Source\PSoC4/BLE.c ****     #if(CYBLE_GAP_ROLE_PERIPHERAL || CYBLE_GAP_ROLE_BROADCASTER) 
 158:Generated_Source\PSoC4/BLE.c ****         cyBle_advertisingIntervalType = CYBLE_ADVERTISING_FAST; 
 159:Generated_Source\PSoC4/BLE.c ****     #endif /* (CYBLE_GAP_ROLE_PERIPHERAL || CYBLE_GAP_ROLE_BROADCASTER)  */
 160:Generated_Source\PSoC4/BLE.c ****     #if(CYBLE_GAP_ROLE_CENTRAL || CYBLE_GAP_ROLE_OBSERVER)
 161:Generated_Source\PSoC4/BLE.c ****         cyBle_scanningIntervalType = CYBLE_SCANNING_FAST; 
 162:Generated_Source\PSoC4/BLE.c ****     #endif /* (CYBLE_GAP_ROLE_CENTRAL || CYBLE_GAP_ROLE_OBSERVER) */
 163:Generated_Source\PSoC4/BLE.c ****         
 164:Generated_Source\PSoC4/BLE.c ****     /* Init default connection parameters. 
 165:Generated_Source\PSoC4/BLE.c ****        Application may change it before initiating a connection */
 166:Generated_Source\PSoC4/BLE.c ****     #if(CYBLE_GAP_ROLE_CENTRAL)
 167:Generated_Source\PSoC4/BLE.c ****         cyBle_connectionParameters.scanIntv = cyBle_discoveryInfo.scanIntv;
 168:Generated_Source\PSoC4/BLE.c ****         cyBle_connectionParameters.scanWindow = cyBle_discoveryInfo.scanWindow;
 169:Generated_Source\PSoC4/BLE.c ****         cyBle_connectionParameters.ownAddrType = cyBle_discoveryInfo.ownAddrType;
 170:Generated_Source\PSoC4/BLE.c ****         cyBle_connectionParameters.initiatorFilterPolicy = cyBle_discoveryInfo.scanFilterPolicy;
 171:Generated_Source\PSoC4/BLE.c ****         cyBle_connectionParameters.connIntvMin = CYBLE_GAPC_CONNECTION_INTERVAL_MIN;
 172:Generated_Source\PSoC4/BLE.c ****         cyBle_connectionParameters.connIntvMax = CYBLE_GAPC_CONNECTION_INTERVAL_MAX;
 173:Generated_Source\PSoC4/BLE.c ****         cyBle_connectionParameters.connLatency = CYBLE_GAPC_CONNECTION_SLAVE_LATENCY;
 174:Generated_Source\PSoC4/BLE.c ****         cyBle_connectionParameters.supervisionTO = CYBLE_GAPC_CONNECTION_TIME_OUT;
 175:Generated_Source\PSoC4/BLE.c ****         cyBle_connectionParameters.minCeLength = 0x0000u;
 176:Generated_Source\PSoC4/BLE.c ****         cyBle_connectionParameters.maxCeLength = 0xFFFFu;
 177:Generated_Source\PSoC4/BLE.c ****         
 178:Generated_Source\PSoC4/BLE.c ****         cyBle_connectingTimeout = CYBLE_GAPC_CONNECTING_TIMEOUT;
 179:Generated_Source\PSoC4/BLE.c ****     #endif /* CYBLE_GAP_ROLE_CENTRAL */
 180:Generated_Source\PSoC4/BLE.c **** 
 181:Generated_Source\PSoC4/BLE.c ****     CyBle_ServiceInit();
 182:Generated_Source\PSoC4/BLE.c **** 
 183:Generated_Source\PSoC4/BLE.c ****     #if((CYBLE_GAP_ROLE_PERIPHERAL || CYBLE_GAP_ROLE_CENTRAL) && (CYBLE_BONDING_REQUIREMENT == CYBL
 184:Generated_Source\PSoC4/BLE.c ****         cyBle_pendingFlashWrite = 0u;
 185:Generated_Source\PSoC4/BLE.c ****         cyBle_peerBonding = CYBLE_GAP_BONDING_NONE;
 186:Generated_Source\PSoC4/BLE.c ****     #endif  /* (CYBLE_BONDING_REQUIREMENT == CYBLE_BONDING_YES) */
 187:Generated_Source\PSoC4/BLE.c **** 
 188:Generated_Source\PSoC4/BLE.c **** }
 189:Generated_Source\PSoC4/BLE.c **** 
 190:Generated_Source\PSoC4/BLE.c **** 
 191:Generated_Source\PSoC4/BLE.c **** /******************************************************************************
 192:Generated_Source\PSoC4/BLE.c **** * Function Name: CyBle_ServiceInit
 193:Generated_Source\PSoC4/BLE.c **** ***************************************************************************//**
 194:Generated_Source\PSoC4/BLE.c **** * 
 195:Generated_Source\PSoC4/BLE.c **** *  Initializes all included services.
 196:Generated_Source\PSoC4/BLE.c **** * 
 197:Generated_Source\PSoC4/BLE.c **** * \return
 198:Generated_Source\PSoC4/BLE.c **** *  None
 199:Generated_Source\PSoC4/BLE.c **** * 
 200:Generated_Source\PSoC4/BLE.c **** ******************************************************************************/
 201:Generated_Source\PSoC4/BLE.c **** void CyBle_ServiceInit(void)
 202:Generated_Source\PSoC4/BLE.c **** {
ARM GAS  C:\Users\7709\AppData\Local\Temp\ccDQbrve.s 			page 5


 203:Generated_Source\PSoC4/BLE.c ****     #if(CYBLE_GATT_ROLE_CLIENT)
 204:Generated_Source\PSoC4/BLE.c ****         /* Check service range before clearing to support partial discovery */
 205:Generated_Source\PSoC4/BLE.c ****         if(cyBle_serverInfo[CYBLE_SRVI_GAP].range.startHandle == CYBLE_GATT_INVALID_ATTR_HANDLE_VAL
 206:Generated_Source\PSoC4/BLE.c ****         {
 207:Generated_Source\PSoC4/BLE.c ****             (void)memset(&cyBle_gapc, 0, sizeof(cyBle_gapc));
 208:Generated_Source\PSoC4/BLE.c ****         }
 209:Generated_Source\PSoC4/BLE.c ****         if(cyBle_serverInfo[CYBLE_SRVI_GATT].range.startHandle == CYBLE_GATT_INVALID_ATTR_HANDLE_VA
 210:Generated_Source\PSoC4/BLE.c ****         {
 211:Generated_Source\PSoC4/BLE.c ****             (void)memset(&cyBle_gattc, 0, sizeof(cyBle_gattc));
 212:Generated_Source\PSoC4/BLE.c ****         }
 213:Generated_Source\PSoC4/BLE.c ****     #endif /* CYBLE_GATT_ROLE_CLIENT */
 214:Generated_Source\PSoC4/BLE.c **** 
 215:Generated_Source\PSoC4/BLE.c ****    	#ifdef CYBLE_AIOS
 216:Generated_Source\PSoC4/BLE.c ****         CyBle_AiosInit();
 217:Generated_Source\PSoC4/BLE.c ****     #endif /* CYBLE_AIOS */
 218:Generated_Source\PSoC4/BLE.c **** 
 219:Generated_Source\PSoC4/BLE.c **** 	#ifdef CYBLE_ANCS
 220:Generated_Source\PSoC4/BLE.c ****         CyBle_AncsInit();
 221:Generated_Source\PSoC4/BLE.c ****     #endif /* CYBLE_ANCS */
 222:Generated_Source\PSoC4/BLE.c **** 	
 223:Generated_Source\PSoC4/BLE.c ****     #ifdef CYBLE_ANS
 224:Generated_Source\PSoC4/BLE.c ****         CyBle_AnsInit();
 225:Generated_Source\PSoC4/BLE.c ****     #endif /* CYBLE_ANS */
 226:Generated_Source\PSoC4/BLE.c ****     
 227:Generated_Source\PSoC4/BLE.c ****     #ifdef CYBLE_BAS
 228:Generated_Source\PSoC4/BLE.c ****         CyBle_BasInit();
 229:Generated_Source\PSoC4/BLE.c ****     #endif /* CYBLE_BAS */
 230:Generated_Source\PSoC4/BLE.c ****     
 231:Generated_Source\PSoC4/BLE.c ****     #ifdef CYBLE_BCS
 232:Generated_Source\PSoC4/BLE.c ****         CyBle_BcsInit();
 233:Generated_Source\PSoC4/BLE.c ****     #endif /* CYBLE_BCS */
 234:Generated_Source\PSoC4/BLE.c **** 
 235:Generated_Source\PSoC4/BLE.c ****     #ifdef CYBLE_BLS
 236:Generated_Source\PSoC4/BLE.c ****         CyBle_BlsInit();
 237:Generated_Source\PSoC4/BLE.c ****     #endif /* CYBLE_BLS */
 238:Generated_Source\PSoC4/BLE.c ****     
 239:Generated_Source\PSoC4/BLE.c ****     #ifdef CYBLE_BMS
 240:Generated_Source\PSoC4/BLE.c ****         CyBle_BmsInit();
 241:Generated_Source\PSoC4/BLE.c ****     #endif /* CYBLE_BMS */
 242:Generated_Source\PSoC4/BLE.c ****     
 243:Generated_Source\PSoC4/BLE.c ****     #ifdef CYBLE_CGMS
 244:Generated_Source\PSoC4/BLE.c ****         CyBle_CgmsInit();
 245:Generated_Source\PSoC4/BLE.c ****     #endif /* CYBLE_CGMS */
 246:Generated_Source\PSoC4/BLE.c **** 
 247:Generated_Source\PSoC4/BLE.c ****     #ifdef CYBLE_CPS
 248:Generated_Source\PSoC4/BLE.c ****         CyBle_CpsInit();
 249:Generated_Source\PSoC4/BLE.c ****     #endif /* CYBLE_CPS */
 250:Generated_Source\PSoC4/BLE.c **** 
 251:Generated_Source\PSoC4/BLE.c ****     #ifdef CYBLE_CSCS
 252:Generated_Source\PSoC4/BLE.c ****         CyBle_CscsInit();
 253:Generated_Source\PSoC4/BLE.c ****     #endif /* CYBLE_CSCS */
 254:Generated_Source\PSoC4/BLE.c ****     
 255:Generated_Source\PSoC4/BLE.c ****     #ifdef CYBLE_CTS
 256:Generated_Source\PSoC4/BLE.c ****         CyBle_CtsInit();
 257:Generated_Source\PSoC4/BLE.c ****     #endif /* CYBLE_CTS */
 258:Generated_Source\PSoC4/BLE.c **** 
 259:Generated_Source\PSoC4/BLE.c ****     #ifdef CYBLE_CUSTOM
ARM GAS  C:\Users\7709\AppData\Local\Temp\ccDQbrve.s 			page 6


 260:Generated_Source\PSoC4/BLE.c ****         CyBle_CustomInit();
 261:Generated_Source\PSoC4/BLE.c ****     #endif /* CYBLE_CUSTOM */
 262:Generated_Source\PSoC4/BLE.c **** 
 263:Generated_Source\PSoC4/BLE.c ****     #ifdef CYBLE_DIS
 264:Generated_Source\PSoC4/BLE.c ****         CyBle_DisInit();
 265:Generated_Source\PSoC4/BLE.c ****     #endif /* CYBLE_DIS */
 266:Generated_Source\PSoC4/BLE.c **** 
 267:Generated_Source\PSoC4/BLE.c ****     #ifdef CYBLE_ESS
 268:Generated_Source\PSoC4/BLE.c ****         CyBle_EssInit();
 269:Generated_Source\PSoC4/BLE.c ****     #endif /* CYBLE_ESS */
 270:Generated_Source\PSoC4/BLE.c ****     
 271:Generated_Source\PSoC4/BLE.c ****     #ifdef CYBLE_GLS
 272:Generated_Source\PSoC4/BLE.c ****         CyBle_GlsInit();
 273:Generated_Source\PSoC4/BLE.c ****     #endif /* CYBLE_GLS */
 274:Generated_Source\PSoC4/BLE.c ****     
 275:Generated_Source\PSoC4/BLE.c ****     #ifdef CYBLE_HIDS
 276:Generated_Source\PSoC4/BLE.c ****         CyBle_HidsInit();
 277:Generated_Source\PSoC4/BLE.c ****     #endif /* CYBLE_HIDS */
 278:Generated_Source\PSoC4/BLE.c **** 
 279:Generated_Source\PSoC4/BLE.c ****     #ifdef CYBLE_HPS
 280:Generated_Source\PSoC4/BLE.c ****         CyBle_HpsInit();
 281:Generated_Source\PSoC4/BLE.c ****     #endif /* CYBLE_HPS */
 282:Generated_Source\PSoC4/BLE.c **** 
 283:Generated_Source\PSoC4/BLE.c ****     #ifdef CYBLE_HRS
 284:Generated_Source\PSoC4/BLE.c ****         CyBle_HrsInit();
 285:Generated_Source\PSoC4/BLE.c ****     #endif /* CYBLE_HRS */
 286:Generated_Source\PSoC4/BLE.c ****     
 287:Generated_Source\PSoC4/BLE.c ****     #ifdef CYBLE_HTS
 288:Generated_Source\PSoC4/BLE.c ****         CyBle_HtsInit();
 289:Generated_Source\PSoC4/BLE.c ****     #endif /* CYBLE_RSCS */
 290:Generated_Source\PSoC4/BLE.c **** 
 291:Generated_Source\PSoC4/BLE.c ****     #ifdef CYBLE_IAS
 292:Generated_Source\PSoC4/BLE.c ****         CyBle_IasInit();
 293:Generated_Source\PSoC4/BLE.c ****     #endif /* CYBLE_IAS */
 294:Generated_Source\PSoC4/BLE.c **** 
 295:Generated_Source\PSoC4/BLE.c ****     #ifdef CYBLE_IPS
 296:Generated_Source\PSoC4/BLE.c ****         CyBle_IpsInit();
 297:Generated_Source\PSoC4/BLE.c ****     #endif /* CYBLE_IPS */
 298:Generated_Source\PSoC4/BLE.c ****     
 299:Generated_Source\PSoC4/BLE.c ****     #ifdef CYBLE_LLS
 300:Generated_Source\PSoC4/BLE.c ****         CyBle_LlsInit();
 301:Generated_Source\PSoC4/BLE.c ****     #endif /* CYBLE_LLS */
 302:Generated_Source\PSoC4/BLE.c **** 
 303:Generated_Source\PSoC4/BLE.c ****     #ifdef CYBLE_LNS
 304:Generated_Source\PSoC4/BLE.c ****         CyBle_LnsInit();
 305:Generated_Source\PSoC4/BLE.c ****     #endif /* CYBLE_LNS */
 306:Generated_Source\PSoC4/BLE.c ****     
 307:Generated_Source\PSoC4/BLE.c ****     #ifdef CYBLE_NDCS
 308:Generated_Source\PSoC4/BLE.c ****         CyBle_NdcsInit();
 309:Generated_Source\PSoC4/BLE.c ****     #endif /* CYBLE_NDCS */
 310:Generated_Source\PSoC4/BLE.c ****     
 311:Generated_Source\PSoC4/BLE.c ****     #ifdef CYBLE_PASS
 312:Generated_Source\PSoC4/BLE.c ****         CyBle_PassInit();
 313:Generated_Source\PSoC4/BLE.c ****     #endif /* CYBLE_PASS */
 314:Generated_Source\PSoC4/BLE.c ****     
 315:Generated_Source\PSoC4/BLE.c ****     #ifdef CYBLE_PLXS
 316:Generated_Source\PSoC4/BLE.c ****         CyBle_PlxsInit();
ARM GAS  C:\Users\7709\AppData\Local\Temp\ccDQbrve.s 			page 7


 317:Generated_Source\PSoC4/BLE.c ****     #endif /* CYBLE_PLXS */
 318:Generated_Source\PSoC4/BLE.c ****     
 319:Generated_Source\PSoC4/BLE.c ****     #ifdef CYBLE_RSCS
 320:Generated_Source\PSoC4/BLE.c ****         CyBle_RscsInit();
 321:Generated_Source\PSoC4/BLE.c ****     #endif /* CYBLE_RSCS */
 322:Generated_Source\PSoC4/BLE.c **** 
 323:Generated_Source\PSoC4/BLE.c ****     #ifdef CYBLE_RTUS
 324:Generated_Source\PSoC4/BLE.c ****         CyBle_RtusInit();
 325:Generated_Source\PSoC4/BLE.c ****     #endif /* CYBLE_RTUS */
 326:Generated_Source\PSoC4/BLE.c **** 
 327:Generated_Source\PSoC4/BLE.c ****     #ifdef CYBLE_SCPS
 328:Generated_Source\PSoC4/BLE.c ****         CyBle_ScpsInit();
 329:Generated_Source\PSoC4/BLE.c ****     #endif /* CYBLE_SCPS */
 330:Generated_Source\PSoC4/BLE.c ****     
 331:Generated_Source\PSoC4/BLE.c ****     #ifdef CYBLE_TPS
 332:Generated_Source\PSoC4/BLE.c ****         CyBle_TpsInit();
 333:Generated_Source\PSoC4/BLE.c ****     #endif /* CYBLE_TPS */
 334:Generated_Source\PSoC4/BLE.c ****     
 335:Generated_Source\PSoC4/BLE.c ****     #ifdef CYBLE_UDS
 336:Generated_Source\PSoC4/BLE.c ****         CyBle_UdsInit();
 337:Generated_Source\PSoC4/BLE.c ****     #endif /* CYBLE_UDS */
 338:Generated_Source\PSoC4/BLE.c **** 
 339:Generated_Source\PSoC4/BLE.c ****     #ifdef CYBLE_WPTS
 340:Generated_Source\PSoC4/BLE.c ****         CyBle_WptsInit();
 341:Generated_Source\PSoC4/BLE.c ****     #endif /* CYBLE_WPTS */
 342:Generated_Source\PSoC4/BLE.c **** 
 343:Generated_Source\PSoC4/BLE.c ****     #ifdef CYBLE_WSS
 344:Generated_Source\PSoC4/BLE.c ****         CyBle_WssInit();
 345:Generated_Source\PSoC4/BLE.c ****     #endif /* CYBLE_WSS */
 346:Generated_Source\PSoC4/BLE.c **** }
 347:Generated_Source\PSoC4/BLE.c **** 
 348:Generated_Source\PSoC4/BLE.c **** 
 349:Generated_Source\PSoC4/BLE.c **** /******************************************************************************
 350:Generated_Source\PSoC4/BLE.c **** * Function Name: CyBle_Start
 351:Generated_Source\PSoC4/BLE.c **** ***************************************************************************//**
 352:Generated_Source\PSoC4/BLE.c **** * 
 353:Generated_Source\PSoC4/BLE.c **** *  This function initializes the BLE Stack, which consists of the BLE Stack 
 354:Generated_Source\PSoC4/BLE.c **** *  Manager, BLE Controller, and BLE Host modules. It takes care of initializing
 355:Generated_Source\PSoC4/BLE.c **** *  the Profile layer, schedulers, Timer and other platform related
 356:Generated_Source\PSoC4/BLE.c **** *  resources required for the BLE component. It also registers the callback 
 357:Generated_Source\PSoC4/BLE.c **** *  function for BLE events that will be registered in the BLE stack.
 358:Generated_Source\PSoC4/BLE.c **** * 
 359:Generated_Source\PSoC4/BLE.c **** *  Note that this function does not reset the BLE Stack.
 360:Generated_Source\PSoC4/BLE.c **** * 
 361:Generated_Source\PSoC4/BLE.c **** *  For HCI-Mode of operation, this function will not initialize the BLE Host 
 362:Generated_Source\PSoC4/BLE.c **** *  module.
 363:Generated_Source\PSoC4/BLE.c **** * 
 364:Generated_Source\PSoC4/BLE.c **** *  Calling this function results in the generation of CYBLE_EVT_STACK_ON event
 365:Generated_Source\PSoC4/BLE.c **** *  on successful initialization of the BLE Stack.
 366:Generated_Source\PSoC4/BLE.c **** * 
 367:Generated_Source\PSoC4/BLE.c **** *  \param callbackFunc: Event callback function to receive events from BLE stack.
 368:Generated_Source\PSoC4/BLE.c **** *   CYBLE_CALLBACK_T is a function pointer type.
 369:Generated_Source\PSoC4/BLE.c **** * 
 370:Generated_Source\PSoC4/BLE.c **** * \return
 371:Generated_Source\PSoC4/BLE.c **** *  CYBLE_API_RESULT_T : Return value indicates if the function succeeded or 
 372:Generated_Source\PSoC4/BLE.c **** *  failed. Following are the possible error codes.
 373:Generated_Source\PSoC4/BLE.c **** * 
ARM GAS  C:\Users\7709\AppData\Local\Temp\ccDQbrve.s 			page 8


 374:Generated_Source\PSoC4/BLE.c **** *   <table>
 375:Generated_Source\PSoC4/BLE.c **** *  	  <tr>
 376:Generated_Source\PSoC4/BLE.c **** *       <th>Error codes</th>
 377:Generated_Source\PSoC4/BLE.c **** *       <th>Description</th>
 378:Generated_Source\PSoC4/BLE.c **** *     </tr>
 379:Generated_Source\PSoC4/BLE.c **** *     <tr>
 380:Generated_Source\PSoC4/BLE.c **** *       <td>CYBLE_ERROR_OK</td>
 381:Generated_Source\PSoC4/BLE.c **** *       <td>On successful operation.</td>
 382:Generated_Source\PSoC4/BLE.c **** *     </tr>
 383:Generated_Source\PSoC4/BLE.c **** *     <tr>
 384:Generated_Source\PSoC4/BLE.c **** *       <td>CYBLE_ERROR_INVALID_PARAMETER</td>
 385:Generated_Source\PSoC4/BLE.c **** *       <td>On passing a NULL pointer to the function. 
 386:Generated_Source\PSoC4/BLE.c **** *		</td>
 387:Generated_Source\PSoC4/BLE.c **** *     </tr>
 388:Generated_Source\PSoC4/BLE.c **** *     <tr>
 389:Generated_Source\PSoC4/BLE.c **** *       <td>CYBLE_ERROR_REPEATED_ATTEMPTS</td>
 390:Generated_Source\PSoC4/BLE.c **** *       <td>On invoking this function more than once without calling CyBle_Shutdown() 
 391:Generated_Source\PSoC4/BLE.c **** *           function between calls to this function.</td>
 392:Generated_Source\PSoC4/BLE.c **** *     </tr>
 393:Generated_Source\PSoC4/BLE.c **** *     <tr>
 394:Generated_Source\PSoC4/BLE.c **** *       <td>CYBLE_ERROR_MEMORY_ALLOCATION_FAILED</td>
 395:Generated_Source\PSoC4/BLE.c **** *       <td>There is insufficient memory available.</td>
 396:Generated_Source\PSoC4/BLE.c **** *     </tr>
 397:Generated_Source\PSoC4/BLE.c **** *   </table>
 398:Generated_Source\PSoC4/BLE.c **** * 
 399:Generated_Source\PSoC4/BLE.c **** *  \globalvars
 400:Generated_Source\PSoC4/BLE.c **** *   The CyBle_initVar variable is used to indicate initial
 401:Generated_Source\PSoC4/BLE.c **** *   configuration of this component. The variable is initialized to zero (0u)
 402:Generated_Source\PSoC4/BLE.c **** *   and set to one (1u) the first time CyBle_Start() is called. This
 403:Generated_Source\PSoC4/BLE.c **** *   allows for component initialization without re-initialization in all
 404:Generated_Source\PSoC4/BLE.c **** *   subsequent calls to the CyBle_Start() routine.
 405:Generated_Source\PSoC4/BLE.c **** * 
 406:Generated_Source\PSoC4/BLE.c **** ******************************************************************************/
 407:Generated_Source\PSoC4/BLE.c **** CYBLE_API_RESULT_T CyBle_Start(CYBLE_CALLBACK_T callbackFunc)
 408:Generated_Source\PSoC4/BLE.c **** {
 409:Generated_Source\PSoC4/BLE.c ****     CYBLE_API_RESULT_T apiResult = CYBLE_ERROR_OK;
 410:Generated_Source\PSoC4/BLE.c ****     
 411:Generated_Source\PSoC4/BLE.c ****     #if(CYBLE_MODE_PROFILE)
 412:Generated_Source\PSoC4/BLE.c ****     
 413:Generated_Source\PSoC4/BLE.c ****     CYBLE_STK_APP_DATA_BUFF_T cyBle_stackDataBuff[CYBLE_STACK_APP_MIN_POOL] = 
 414:Generated_Source\PSoC4/BLE.c ****     {
 415:Generated_Source\PSoC4/BLE.c ****         {CYBLE_GATT_MTU_PLUS_L2CAP_MEM_EXT, CYBLE_GATT_MTU_BUFF_COUNT + CYBLE_GATT_MAX_ATTR_BUFF_CO
 416:Generated_Source\PSoC4/BLE.c ****         {CYBLE_L2CAP_PSM_PLUS_L2CAP_MEM_EXT, CYBLE_L2CAP_PSM_COUNT},
 417:Generated_Source\PSoC4/BLE.c ****         {CYBLE_L2CAP_CBFC_PLUS_L2CAP_MEM_EXT, 2u * CYBLE_L2CAP_LOGICAL_CHANNEL_COUNT},
 418:Generated_Source\PSoC4/BLE.c ****         {CYBLE_L2CAP_MTU_PLUS_L2CAP_MEM_EXT, CYBLE_L2CAP_LOGICAL_CHANNEL_COUNT},
 419:Generated_Source\PSoC4/BLE.c ****         {CYBLE_L2CAP_MPS_PLUS_L2CAP_MEM_EXT, CYBLE_L2CAP_LOGICAL_CHANNEL_COUNT * (CYBLE_L2CAP_MTU_M
 420:Generated_Source\PSoC4/BLE.c ****     }; 
 421:Generated_Source\PSoC4/BLE.c **** 
 422:Generated_Source\PSoC4/BLE.c ****     #endif /* CYBLE_MODE_PROFILE */
 423:Generated_Source\PSoC4/BLE.c ****     
 424:Generated_Source\PSoC4/BLE.c ****     /* If not initialized then initialize all the required hardware and software */
 425:Generated_Source\PSoC4/BLE.c ****     if(cyBle_initVar == 0u)
 426:Generated_Source\PSoC4/BLE.c ****     {
 427:Generated_Source\PSoC4/BLE.c ****         CyBle_Init();
 428:Generated_Source\PSoC4/BLE.c ****         cyBle_initVar = 1u;
 429:Generated_Source\PSoC4/BLE.c ****     }
 430:Generated_Source\PSoC4/BLE.c ****     
ARM GAS  C:\Users\7709\AppData\Local\Temp\ccDQbrve.s 			page 9


 431:Generated_Source\PSoC4/BLE.c ****     if(callbackFunc != NULL)
 432:Generated_Source\PSoC4/BLE.c ****     {
 433:Generated_Source\PSoC4/BLE.c ****         CyBle_ApplCallback = callbackFunc;
 434:Generated_Source\PSoC4/BLE.c ****         
 435:Generated_Source\PSoC4/BLE.c ****     #if(CYBLE_SHARING_MODE_EXPORT)
 436:Generated_Source\PSoC4/BLE.c ****         if(cyBle_stackMemoryRam == NULL)
 437:Generated_Source\PSoC4/BLE.c ****         {
 438:Generated_Source\PSoC4/BLE.c ****             cyBle_stackMemoryRam = (uint8 *)malloc(CYBLE_STACK_RAM_SIZE);
 439:Generated_Source\PSoC4/BLE.c ****             if(cyBle_stackMemoryRam == NULL)
 440:Generated_Source\PSoC4/BLE.c ****             {
 441:Generated_Source\PSoC4/BLE.c ****                 apiResult = CYBLE_ERROR_MEMORY_ALLOCATION_FAILED;
 442:Generated_Source\PSoC4/BLE.c ****             }
 443:Generated_Source\PSoC4/BLE.c ****         }
 444:Generated_Source\PSoC4/BLE.c ****     #endif /* CYBLE_SHARING_MODE_EXPORT */
 445:Generated_Source\PSoC4/BLE.c ****         if(apiResult == CYBLE_ERROR_OK)
 446:Generated_Source\PSoC4/BLE.c ****         {
 447:Generated_Source\PSoC4/BLE.c ****             CYBLE_DLE_CONFIG_PARAM_T dleConfigParams;
 448:Generated_Source\PSoC4/BLE.c ****             CYBLE_PRIVACY_1_2_CONFIG_PARAM_T privacyConfigParams;
 449:Generated_Source\PSoC4/BLE.c ****             CYBLE_STACK_CONFIG_PARAM_T stackConfig;
 450:Generated_Source\PSoC4/BLE.c ****             uint16 featureHeapReq;
 451:Generated_Source\PSoC4/BLE.c ****             
 452:Generated_Source\PSoC4/BLE.c ****             stackConfig.privacyConfig = &privacyConfigParams;
 453:Generated_Source\PSoC4/BLE.c ****             stackConfig.dleConfig = &dleConfigParams;
 454:Generated_Source\PSoC4/BLE.c ****             
 455:Generated_Source\PSoC4/BLE.c ****             /* Configure default BLE 4.1 features and enabled 4.2 features */
 456:Generated_Source\PSoC4/BLE.c ****             stackConfig.feature_mask = CYBLE_DLE_FEATURE | CYBLE_LL_PRIVACY_FEATURE | 
 457:Generated_Source\PSoC4/BLE.c ****                                        CYBLE_SECURE_CONN_FEATURE;
 458:Generated_Source\PSoC4/BLE.c **** 
 459:Generated_Source\PSoC4/BLE.c ****             /* Configure DLE */
 460:Generated_Source\PSoC4/BLE.c ****             dleConfigParams.dleMaxTxCapability = CYBLE_LL_MAX_TX_PAYLOAD_SIZE;
 461:Generated_Source\PSoC4/BLE.c ****             dleConfigParams.dleMaxRxCapability = CYBLE_LL_MAX_RX_PAYLOAD_SIZE;
 462:Generated_Source\PSoC4/BLE.c ****             dleConfigParams.dleNumTxBuffer = CYBLE_LL_DEFAULT_NUM_ACL_TX_PACKETS;
 463:Generated_Source\PSoC4/BLE.c ****         #if(CYBLE_DLE_FEATURE_ENABLED)
 464:Generated_Source\PSoC4/BLE.c ****             CyBle_EnableDleFeature();              /* Enable DLE code in stack */
 465:Generated_Source\PSoC4/BLE.c ****         #endif /* CYBLE_DLE_FEATURE_ENABLED */
 466:Generated_Source\PSoC4/BLE.c ****         
 467:Generated_Source\PSoC4/BLE.c ****             /* Configure LL Privacy */
 468:Generated_Source\PSoC4/BLE.c ****             privacyConfigParams.resolvingListSize = CYBLE_MAX_RESOLVABLE_DEVICES;
 469:Generated_Source\PSoC4/BLE.c ****         #if(CYBLE_LL_PRIVACY_FEATURE_ENABLED)
 470:Generated_Source\PSoC4/BLE.c ****             CyBle_EnablePrivacyFeature();          /* Enable LL Privacy code in stack */
 471:Generated_Source\PSoC4/BLE.c ****         #endif /* CYBLE_LL_PRIVACY_FEATURE_ENABLED */
 472:Generated_Source\PSoC4/BLE.c **** 
 473:Generated_Source\PSoC4/BLE.c ****             apiResult = CyBle_StackSetFeatureConfig(&stackConfig, &featureHeapReq);
 474:Generated_Source\PSoC4/BLE.c ****             }
 475:Generated_Source\PSoC4/BLE.c ****     
 476:Generated_Source\PSoC4/BLE.c ****         if(apiResult == CYBLE_ERROR_OK)
 477:Generated_Source\PSoC4/BLE.c ****         {
 478:Generated_Source\PSoC4/BLE.c ****         
 479:Generated_Source\PSoC4/BLE.c ****         #if(CYBLE_MODE_PROFILE)
 480:Generated_Source\PSoC4/BLE.c ****             #if(CYBLE_BONDING_REQUIREMENT == CYBLE_BONDING_YES)
 481:Generated_Source\PSoC4/BLE.c ****                 apiResult = CyBle_StackInit(&CyBle_EventHandler, cyBle_stackMemoryRam, 
 482:Generated_Source\PSoC4/BLE.c ****                     CYBLE_STACK_RAM_SIZE - CYBLE_GATT_PREPARE_WRITE_BUFF_LEN, cyBle_stackDataBuff, 
 483:Generated_Source\PSoC4/BLE.c ****                     CYBLE_STACK_APP_MIN_POOL, cyBle_flashStorage.stackFlashptr, CYBLE_STACK_FLASH_S
 484:Generated_Source\PSoC4/BLE.c ****             #else
 485:Generated_Source\PSoC4/BLE.c ****                 apiResult = CyBle_StackInit(&CyBle_EventHandler, cyBle_stackMemoryRam, 
 486:Generated_Source\PSoC4/BLE.c ****                     CYBLE_STACK_RAM_SIZE - CYBLE_GATT_PREPARE_WRITE_BUFF_LEN, cyBle_stackDataBuff, 
 487:Generated_Source\PSoC4/BLE.c ****                     CYBLE_STACK_APP_MIN_POOL, NULL, 0u);
ARM GAS  C:\Users\7709\AppData\Local\Temp\ccDQbrve.s 			page 10


 488:Generated_Source\PSoC4/BLE.c ****             #endif  /* CYBLE_BONDING_REQUIREMENT == CYBLE_BONDING_YES */
 489:Generated_Source\PSoC4/BLE.c ****         #else /* HCI mode */
 490:Generated_Source\PSoC4/BLE.c ****             /* The following will perform preparation to use HCI over UART or over
 491:Generated_Source\PSoC4/BLE.c ****                software. But the following fucntions will not initialize the HCI
 492:Generated_Source\PSoC4/BLE.c ****                Transport. This will be done as part of Stack initialization, so
 493:Generated_Source\PSoC4/BLE.c ****                the functions should be called prior CyBle_StackInit().
 494:Generated_Source\PSoC4/BLE.c ****             */
 495:Generated_Source\PSoC4/BLE.c ****             #if (CYBLE_HCI_TYPE == CYBLE_HCI_OVER_UART)
 496:Generated_Source\PSoC4/BLE.c ****                 CyBle_HciUartTransportEnable();
 497:Generated_Source\PSoC4/BLE.c ****             #else
 498:Generated_Source\PSoC4/BLE.c ****                 CyBle_HciSoftTransportEnable();
 499:Generated_Source\PSoC4/BLE.c ****             #endif /* (CYBLE_HCI_TYPE == CYBLE_HCI_OVER_UART) */
 500:Generated_Source\PSoC4/BLE.c ****             /* This will initialize BLE stack for HCI mode operation */
 501:Generated_Source\PSoC4/BLE.c ****             apiResult = CyBle_StackInit(&CyBle_EventHandler, cyBle_stackMemoryRam, CYBLE_STACK_RAM_
 502:Generated_Source\PSoC4/BLE.c ****                 NULL, 0u, NULL, 0u);
 503:Generated_Source\PSoC4/BLE.c ****         #endif /* CYBLE_MODE_PROFILE */
 504:Generated_Source\PSoC4/BLE.c **** 
 505:Generated_Source\PSoC4/BLE.c ****             if(apiResult == CYBLE_ERROR_OK)
 506:Generated_Source\PSoC4/BLE.c ****             {
 507:Generated_Source\PSoC4/BLE.c ****                 CyBle_SetState(CYBLE_STATE_INITIALIZING);
 508:Generated_Source\PSoC4/BLE.c ****                 
 509:Generated_Source\PSoC4/BLE.c ****             #if (CYBLE_GATT_ROLE_CLIENT)
 510:Generated_Source\PSoC4/BLE.c ****                 CyBle_SetClientState(CYBLE_CLIENT_STATE_DISCONNECTED);
 511:Generated_Source\PSoC4/BLE.c ****             #endif /* CYBLE_GATT_ROLE_CLIENT */
 512:Generated_Source\PSoC4/BLE.c ****                 
 513:Generated_Source\PSoC4/BLE.c ****             #if(CYBLE_GATT_ROLE_SERVER)
 514:Generated_Source\PSoC4/BLE.c ****                 apiResult = CyBle_GattsDbRegister(cyBle_gattDB, CYBLE_GATT_DB_INDEX_COUNT, CYBLE_GA
 515:Generated_Source\PSoC4/BLE.c ****             #endif /* CYBLE_GATT_ROLE_SERVER */
 516:Generated_Source\PSoC4/BLE.c ****             }
 517:Generated_Source\PSoC4/BLE.c ****         }
 518:Generated_Source\PSoC4/BLE.c ****     }
 519:Generated_Source\PSoC4/BLE.c ****     else
 520:Generated_Source\PSoC4/BLE.c ****     {
 521:Generated_Source\PSoC4/BLE.c ****         apiResult = CYBLE_ERROR_INVALID_PARAMETER;
 522:Generated_Source\PSoC4/BLE.c ****     }
 523:Generated_Source\PSoC4/BLE.c **** 
 524:Generated_Source\PSoC4/BLE.c ****     return (apiResult);
 525:Generated_Source\PSoC4/BLE.c **** }
 526:Generated_Source\PSoC4/BLE.c **** 
 527:Generated_Source\PSoC4/BLE.c **** 
 528:Generated_Source\PSoC4/BLE.c **** /******************************************************************************
 529:Generated_Source\PSoC4/BLE.c **** * Function Name: CyBle_Stop
 530:Generated_Source\PSoC4/BLE.c **** ***************************************************************************//**
 531:Generated_Source\PSoC4/BLE.c **** * 
 532:Generated_Source\PSoC4/BLE.c **** *  This function stops any ongoing operation in the BLE Stack and forces the 
 533:Generated_Source\PSoC4/BLE.c **** *  BLE Stack to shut down. The only function that can be called after calling
 534:Generated_Source\PSoC4/BLE.c **** *  this function is CyBle_Start(). 
 535:Generated_Source\PSoC4/BLE.c **** * 
 536:Generated_Source\PSoC4/BLE.c **** * \return
 537:Generated_Source\PSoC4/BLE.c **** *  None
 538:Generated_Source\PSoC4/BLE.c **** * 
 539:Generated_Source\PSoC4/BLE.c **** ******************************************************************************/
 540:Generated_Source\PSoC4/BLE.c **** void CyBle_Stop(void)
 541:Generated_Source\PSoC4/BLE.c **** {
 542:Generated_Source\PSoC4/BLE.c ****     CyBle_Shutdown();                         /* Stop all ongoing activities */
 543:Generated_Source\PSoC4/BLE.c ****     CyBle_SetState(CYBLE_STATE_STOPPED);
 544:Generated_Source\PSoC4/BLE.c ****     #if(CYBLE_SHARING_MODE_EXPORT)
ARM GAS  C:\Users\7709\AppData\Local\Temp\ccDQbrve.s 			page 11


 545:Generated_Source\PSoC4/BLE.c ****         if(cyBle_stackMemoryRam != NULL)
 546:Generated_Source\PSoC4/BLE.c ****         {
 547:Generated_Source\PSoC4/BLE.c ****             free(cyBle_stackMemoryRam);
 548:Generated_Source\PSoC4/BLE.c ****         }
 549:Generated_Source\PSoC4/BLE.c ****     #endif /* CYBLE_SHARING_MODE_EXPORT */
 550:Generated_Source\PSoC4/BLE.c **** }
 551:Generated_Source\PSoC4/BLE.c **** 
 552:Generated_Source\PSoC4/BLE.c **** 
 553:Generated_Source\PSoC4/BLE.c **** #if((CYBLE_GAP_ROLE_PERIPHERAL || CYBLE_GAP_ROLE_CENTRAL) && (CYBLE_BONDING_REQUIREMENT == CYBLE_BO
 554:Generated_Source\PSoC4/BLE.c **** 
 555:Generated_Source\PSoC4/BLE.c ****     
 556:Generated_Source\PSoC4/BLE.c **** /******************************************************************************
 557:Generated_Source\PSoC4/BLE.c **** * Function Name: CyBle_StoreBondingData
 558:Generated_Source\PSoC4/BLE.c **** ***************************************************************************//**
 559:Generated_Source\PSoC4/BLE.c **** * 
 560:Generated_Source\PSoC4/BLE.c **** *  This function writes the new bonding data from RAM to the dedicated Flash 
 561:Generated_Source\PSoC4/BLE.c **** *  location as defined by the component. It performs data comparing between RAM
 562:Generated_Source\PSoC4/BLE.c **** *  and Flash before writing to Flash. If there is no change between RAM and Flash
 563:Generated_Source\PSoC4/BLE.c **** *  data, then no write is performed. It writes only one flash row in one call.
 564:Generated_Source\PSoC4/BLE.c **** *  Application should keep calling this function till it return CYBLE_ERROR_OK. 
 565:Generated_Source\PSoC4/BLE.c **** *  This function is available only when Bonding requirement is selected in
 566:Generated_Source\PSoC4/BLE.c **** *  Security settings.    
 567:Generated_Source\PSoC4/BLE.c **** * 
 568:Generated_Source\PSoC4/BLE.c **** *  \param isForceWrite:  If value is set to 0, then stack will check if flash write 
 569:Generated_Source\PSoC4/BLE.c **** *                 is permissible. 
 570:Generated_Source\PSoC4/BLE.c **** *  
 571:Generated_Source\PSoC4/BLE.c **** * \return
 572:Generated_Source\PSoC4/BLE.c **** *  Return value is of type CYBLE_API_RESULT_T.
 573:Generated_Source\PSoC4/BLE.c **** *
 574:Generated_Source\PSoC4/BLE.c **** *   Errors codes                         | Description
 575:Generated_Source\PSoC4/BLE.c **** *   ----------------------------------   | ------------------------------------
 576:Generated_Source\PSoC4/BLE.c **** *   CYBLE_ERROR_OK                       | On successful operation
 577:Generated_Source\PSoC4/BLE.c **** *   CYBLE_ERROR_FLASH_WRITE_NOT_PERMITED | Flash Write is not complete
 578:Generated_Source\PSoC4/BLE.c **** *   CYBLE_ERROR_INVALID_PARAMETER        | Invalid input parameter  
 579:Generated_Source\PSoC4/BLE.c **** *   CYBLE_ERROR_FLASH_WRITE              | Error in flash Write	
 580:Generated_Source\PSoC4/BLE.c ****     
 581:Generated_Source\PSoC4/BLE.c **** *  \sideeffect
 582:Generated_Source\PSoC4/BLE.c **** *   For BLE devices with 128K of Flash memory this function will automatically 
 583:Generated_Source\PSoC4/BLE.c **** *   modify the clock settings for the device.
 584:Generated_Source\PSoC4/BLE.c **** *   Writing to flash requires changes to be done to the IMO (set to 48 MHz)
 585:Generated_Source\PSoC4/BLE.c **** *   and HFCLK (source set to IMO) settings. The configuration is restored before
 586:Generated_Source\PSoC4/BLE.c **** *   returning. This will impact the operation of most of the hardware in the
 587:Generated_Source\PSoC4/BLE.c **** *   device.
 588:Generated_Source\PSoC4/BLE.c **** * 
 589:Generated_Source\PSoC4/BLE.c **** *  \globalvars
 590:Generated_Source\PSoC4/BLE.c **** *   The cyBle_pendingFlashWrite variable is used to detect status
 591:Generated_Source\PSoC4/BLE.c **** *   of pending write to flash operation for stack data and CCCD.
 592:Generated_Source\PSoC4/BLE.c **** *   This function automatically clears pending bits after write operation 
 593:Generated_Source\PSoC4/BLE.c **** *   complete.
 594:Generated_Source\PSoC4/BLE.c **** *     
 595:Generated_Source\PSoC4/BLE.c **** ******************************************************************************/
 596:Generated_Source\PSoC4/BLE.c **** CYBLE_API_RESULT_T CyBle_StoreBondingData(uint8 isForceWrite)
 597:Generated_Source\PSoC4/BLE.c **** {
 598:Generated_Source\PSoC4/BLE.c ****     CYBLE_API_RESULT_T apiResult = CYBLE_ERROR_OK;
 599:Generated_Source\PSoC4/BLE.c ****     
 600:Generated_Source\PSoC4/BLE.c ****     /* Store Stack data */
 601:Generated_Source\PSoC4/BLE.c ****     if((cyBle_pendingFlashWrite & CYBLE_PENDING_STACK_FLASH_WRITE_BIT) != 0u)
ARM GAS  C:\Users\7709\AppData\Local\Temp\ccDQbrve.s 			page 12


 602:Generated_Source\PSoC4/BLE.c ****     {
 603:Generated_Source\PSoC4/BLE.c ****         apiResult = CyBle_StoreStackData(isForceWrite);
 604:Generated_Source\PSoC4/BLE.c ****         if(apiResult == CYBLE_ERROR_OK)
 605:Generated_Source\PSoC4/BLE.c ****         {
 606:Generated_Source\PSoC4/BLE.c ****             cyBle_pendingFlashWrite &= (uint8)~CYBLE_PENDING_STACK_FLASH_WRITE_BIT;
 607:Generated_Source\PSoC4/BLE.c ****             /* Change apiResult if there are more pending data to store */
 608:Generated_Source\PSoC4/BLE.c ****             if((cyBle_pendingFlashWrite & CYBLE_PENDING_CCCD_FLASH_WRITE_BIT) != 0u)
 609:Generated_Source\PSoC4/BLE.c ****             {
 610:Generated_Source\PSoC4/BLE.c ****                 apiResult = CYBLE_ERROR_FLASH_WRITE_NOT_PERMITED;
 611:Generated_Source\PSoC4/BLE.c ****             }
 612:Generated_Source\PSoC4/BLE.c ****         }
 613:Generated_Source\PSoC4/BLE.c ****     }
 614:Generated_Source\PSoC4/BLE.c **** #if(CYBLE_GATT_DB_CCCD_COUNT != 0u)
 615:Generated_Source\PSoC4/BLE.c ****     /* Store CCCD values */
 616:Generated_Source\PSoC4/BLE.c ****     if( ((apiResult == CYBLE_ERROR_OK) || (isForceWrite != 0u)) && 
 617:Generated_Source\PSoC4/BLE.c ****         ((cyBle_pendingFlashWrite & CYBLE_PENDING_CCCD_FLASH_WRITE_BIT) != 0u) &&
 618:Generated_Source\PSoC4/BLE.c ****         (cyBle_connHandle.bdHandle <= CYBLE_GAP_MAX_BONDED_DEVICE))
 619:Generated_Source\PSoC4/BLE.c ****     {
 620:Generated_Source\PSoC4/BLE.c ****         apiResult = CyBle_StoreAppData(cyBle_attValuesCCCD, cyBle_flashStorage.attValuesCCCDFlashMe
 621:Generated_Source\PSoC4/BLE.c ****                         cyBle_connHandle.bdHandle], CYBLE_GATT_DB_CCCD_COUNT, isForceWrite);
 622:Generated_Source\PSoC4/BLE.c ****         if(apiResult == CYBLE_ERROR_OK)
 623:Generated_Source\PSoC4/BLE.c ****         {
 624:Generated_Source\PSoC4/BLE.c ****             cyBle_pendingFlashWrite &= (uint8)~CYBLE_PENDING_CCCD_FLASH_WRITE_BIT;
 625:Generated_Source\PSoC4/BLE.c ****         }
 626:Generated_Source\PSoC4/BLE.c ****     }
 627:Generated_Source\PSoC4/BLE.c ****     /* Clear requested CCCD values */
 628:Generated_Source\PSoC4/BLE.c ****     if( ((apiResult == CYBLE_ERROR_OK) || (isForceWrite != 0u)) && 
 629:Generated_Source\PSoC4/BLE.c ****         ((cyBle_pendingFlashWrite & CYBLE_PENDING_CCCD_FLASH_CLEAR_MASK) != 0u) )
 630:Generated_Source\PSoC4/BLE.c ****     {
 631:Generated_Source\PSoC4/BLE.c ****         if((cyBle_pendingFlashWrite & CYBLE_PENDING_CCCD_FLASH_CLEAR_ALL_BIT) != 0u)
 632:Generated_Source\PSoC4/BLE.c ****         {
 633:Generated_Source\PSoC4/BLE.c ****             /* Remove cccd values for all bonded devices */
 634:Generated_Source\PSoC4/BLE.c ****             uint8 defaultValuesCCCD[CYBLE_GAP_MAX_BONDED_DEVICE + 1u][CYBLE_GATT_DB_CCCD_COUNT];
 635:Generated_Source\PSoC4/BLE.c ****             
 636:Generated_Source\PSoC4/BLE.c ****             (void)memset(defaultValuesCCCD, 0, sizeof(defaultValuesCCCD));
 637:Generated_Source\PSoC4/BLE.c **** 
 638:Generated_Source\PSoC4/BLE.c ****             apiResult = CyBle_StoreAppData((uint8 *)defaultValuesCCCD, 
 639:Generated_Source\PSoC4/BLE.c ****                 (const uint8 *)cyBle_flashStorage.attValuesCCCDFlashMemory, sizeof(defaultValuesCCC
 640:Generated_Source\PSoC4/BLE.c ****             if(apiResult == CYBLE_ERROR_OK)
 641:Generated_Source\PSoC4/BLE.c ****             {
 642:Generated_Source\PSoC4/BLE.c ****                 cyBle_pendingFlashWrite &= (uint8)~CYBLE_PENDING_CCCD_FLASH_CLEAR_ALL_BIT;
 643:Generated_Source\PSoC4/BLE.c ****             }
 644:Generated_Source\PSoC4/BLE.c ****         }
 645:Generated_Source\PSoC4/BLE.c ****         else /* Remove cccd values for particular device */
 646:Generated_Source\PSoC4/BLE.c ****         {
 647:Generated_Source\PSoC4/BLE.c ****             uint8 defaultValuesCCCD[CYBLE_GATT_DB_CCCD_COUNT] = {0u};
 648:Generated_Source\PSoC4/BLE.c ****             
 649:Generated_Source\PSoC4/BLE.c ****             apiResult = CyBle_StoreAppData(defaultValuesCCCD, cyBle_flashStorage.attValuesCCCDFlash
 650:Generated_Source\PSoC4/BLE.c ****                                     cyBle_pendingFlashClearCccdHandle], CYBLE_GATT_DB_CCCD_COUNT, i
 651:Generated_Source\PSoC4/BLE.c ****             if(apiResult == CYBLE_ERROR_OK)
 652:Generated_Source\PSoC4/BLE.c ****             {
 653:Generated_Source\PSoC4/BLE.c ****                 cyBle_pendingFlashWrite &= (uint8)~CYBLE_PENDING_CCCD_FLASH_CLEAR_BIT;
 654:Generated_Source\PSoC4/BLE.c ****             }
 655:Generated_Source\PSoC4/BLE.c ****         }
 656:Generated_Source\PSoC4/BLE.c ****     }
 657:Generated_Source\PSoC4/BLE.c **** #endif /* CYBLE_GATT_DB_CCCD_COUNT != 0u */
 658:Generated_Source\PSoC4/BLE.c ****     return(apiResult);
ARM GAS  C:\Users\7709\AppData\Local\Temp\ccDQbrve.s 			page 13


 659:Generated_Source\PSoC4/BLE.c **** }
 660:Generated_Source\PSoC4/BLE.c **** 
 661:Generated_Source\PSoC4/BLE.c **** 
 662:Generated_Source\PSoC4/BLE.c **** /******************************************************************************
 663:Generated_Source\PSoC4/BLE.c **** * Function Name: CyBle_GapRemoveBondedDevice
 664:Generated_Source\PSoC4/BLE.c **** ***************************************************************************//**
 665:Generated_Source\PSoC4/BLE.c **** * 
 666:Generated_Source\PSoC4/BLE.c **** *  This function marks the device untrusted. It removes the bonding information
 667:Generated_Source\PSoC4/BLE.c **** *  of the device including CCCD values. This function removes device from the
 668:Generated_Source\PSoC4/BLE.c **** *  white list also when autopopulate white list with bonded devices option is
 669:Generated_Source\PSoC4/BLE.c **** *  enabled.
 670:Generated_Source\PSoC4/BLE.c **** * 
 671:Generated_Source\PSoC4/BLE.c **** *  This function is available only when Bonding requirement is selected in
 672:Generated_Source\PSoC4/BLE.c **** *  Security settings.    
 673:Generated_Source\PSoC4/BLE.c **** *
 674:Generated_Source\PSoC4/BLE.c **** *  \param bdAddr: Pointer to peer device address, of type CYBLE_GAP_BD_ADDR_T.
 675:Generated_Source\PSoC4/BLE.c **** *                 If device address is set to 0, then all devices shall be
 676:Generated_Source\PSoC4/BLE.c **** *                 removed from trusted list and white list.
 677:Generated_Source\PSoC4/BLE.c **** *
 678:Generated_Source\PSoC4/BLE.c **** * \return
 679:Generated_Source\PSoC4/BLE.c **** *  CYBLE_API_RESULT_T : Return value indicates if the function succeeded or
 680:Generated_Source\PSoC4/BLE.c **** *  failed. Following are the possible error codes.
 681:Generated_Source\PSoC4/BLE.c **** *
 682:Generated_Source\PSoC4/BLE.c **** *   Errors codes                     | Description
 683:Generated_Source\PSoC4/BLE.c **** *   ---------------------------------| ------------------------------------
 684:Generated_Source\PSoC4/BLE.c **** *   CYBLE_ERROR_OK                   | On successful operation.
 685:Generated_Source\PSoC4/BLE.c **** *   CYBLE_ERROR_INVALID_PARAMETER    | On specifying NULL as input parameter for 'bdAddr'.
 686:Generated_Source\PSoC4/BLE.c **** *   CYBLE_ERROR_INVALID_OPERATION    | Whitelist is already in use or there is pending write to fla
 687:Generated_Source\PSoC4/BLE.c **** *   CYBLE_ERROR_NO_DEVICE_ENTITY     | Device does not exist in the bond list.
 688:Generated_Source\PSoC4/BLE.c **** *
 689:Generated_Source\PSoC4/BLE.c **** *  \globalvars
 690:Generated_Source\PSoC4/BLE.c **** *   The bdHandle is set in cyBle_pendingFlashWrite variable to indicate that
 691:Generated_Source\PSoC4/BLE.c **** *   data should be stored to flash by CyBle_StoreBondingData() afterwards. 
 692:Generated_Source\PSoC4/BLE.c **** *     
 693:Generated_Source\PSoC4/BLE.c **** ******************************************************************************/
 694:Generated_Source\PSoC4/BLE.c **** CYBLE_API_RESULT_T CyBle_GapRemoveBondedDevice(CYBLE_GAP_BD_ADDR_T* bdAddr)
 695:Generated_Source\PSoC4/BLE.c **** {
 696:Generated_Source\PSoC4/BLE.c ****     CYBLE_API_RESULT_T apiResult = CYBLE_ERROR_OK;
 697:Generated_Source\PSoC4/BLE.c ****     
 698:Generated_Source\PSoC4/BLE.c ****     if(cyBle_pendingFlashWrite == 0u)
 699:Generated_Source\PSoC4/BLE.c ****     {
 700:Generated_Source\PSoC4/BLE.c ****         
 701:Generated_Source\PSoC4/BLE.c ****     #if(CYBLE_GATT_DB_CCCD_COUNT != 0u)
 702:Generated_Source\PSoC4/BLE.c ****         /* Request to clear CCCD values which will be done by CyBle_StoreBondingData() */
 703:Generated_Source\PSoC4/BLE.c ****         uint8 bDevHandle;
 704:Generated_Source\PSoC4/BLE.c ****         CYBLE_GAP_BD_ADDR_T invalidBdAddr = {{0u,0u,0u,0u,0u,0u}, 0u};
 705:Generated_Source\PSoC4/BLE.c **** 
 706:Generated_Source\PSoC4/BLE.c ****         if(memcmp(((uint8 *) &(bdAddr->bdAddr)), ((uint8 *) &(invalidBdAddr.bdAddr)), CYBLE_GAP_BD_
 707:Generated_Source\PSoC4/BLE.c **** 	    {
 708:Generated_Source\PSoC4/BLE.c ****             /* Request to remove all bonded devices by CyBle_StoreBondingData() */
 709:Generated_Source\PSoC4/BLE.c ****             cyBle_pendingFlashWrite |= CYBLE_PENDING_CCCD_FLASH_CLEAR_ALL_BIT;
 710:Generated_Source\PSoC4/BLE.c ****         }
 711:Generated_Source\PSoC4/BLE.c ****         else
 712:Generated_Source\PSoC4/BLE.c ****         {
 713:Generated_Source\PSoC4/BLE.c ****             /* Get the BD handle from Address */
 714:Generated_Source\PSoC4/BLE.c ****             apiResult = CyBle_GapGetPeerBdHandle(&bDevHandle, bdAddr);
 715:Generated_Source\PSoC4/BLE.c ****             if(apiResult == CYBLE_ERROR_OK)
ARM GAS  C:\Users\7709\AppData\Local\Temp\ccDQbrve.s 			page 14


 716:Generated_Source\PSoC4/BLE.c ****             {
 717:Generated_Source\PSoC4/BLE.c ****                 /* Store BD handle to clear cccd values by CyBle_StoreBondingData() */
 718:Generated_Source\PSoC4/BLE.c ****                 cyBle_pendingFlashWrite |= CYBLE_PENDING_CCCD_FLASH_CLEAR_BIT;
 719:Generated_Source\PSoC4/BLE.c ****                 cyBle_pendingFlashClearCccdHandle = bDevHandle;
 720:Generated_Source\PSoC4/BLE.c ****             }
 721:Generated_Source\PSoC4/BLE.c ****         }
 722:Generated_Source\PSoC4/BLE.c ****     #endif /* CYBLE_GATT_DB_CCCD_COUNT != 0u */
 723:Generated_Source\PSoC4/BLE.c ****         if(apiResult == CYBLE_ERROR_OK)
 724:Generated_Source\PSoC4/BLE.c ****         {
 725:Generated_Source\PSoC4/BLE.c ****             apiResult = CyBle_GapRemoveDeviceFromWhiteList(bdAddr);
 726:Generated_Source\PSoC4/BLE.c ****         }
 727:Generated_Source\PSoC4/BLE.c ****     }
 728:Generated_Source\PSoC4/BLE.c ****     else
 729:Generated_Source\PSoC4/BLE.c ****     {
 730:Generated_Source\PSoC4/BLE.c ****         apiResult = CYBLE_ERROR_INVALID_OPERATION;
 731:Generated_Source\PSoC4/BLE.c ****     }
 732:Generated_Source\PSoC4/BLE.c ****     
 733:Generated_Source\PSoC4/BLE.c ****     return(apiResult);
 734:Generated_Source\PSoC4/BLE.c **** }
 735:Generated_Source\PSoC4/BLE.c **** 
 736:Generated_Source\PSoC4/BLE.c **** 
 737:Generated_Source\PSoC4/BLE.c **** #endif /* (CYBLE_GAP_ROLE_PERIPHERAL || CYBLE_GAP_ROLE_CENTRAL) && (CYBLE_BONDING_REQUIREMENT == CY
 738:Generated_Source\PSoC4/BLE.c **** 
 739:Generated_Source\PSoC4/BLE.c **** 
 740:Generated_Source\PSoC4/BLE.c **** #if(CYBLE_GAP_ROLE_PERIPHERAL || CYBLE_GAP_ROLE_BROADCASTER)
 741:Generated_Source\PSoC4/BLE.c **** 
 742:Generated_Source\PSoC4/BLE.c ****     /******************************************************************************
 743:Generated_Source\PSoC4/BLE.c ****     *  Function Name: CyBle_GappStartAdvertisement
 744:Generated_Source\PSoC4/BLE.c ****     ***************************************************************************//**
 745:Generated_Source\PSoC4/BLE.c ****     *     
 746:Generated_Source\PSoC4/BLE.c ****     *  This function is used to start the advertisement using the advertisement data 
 747:Generated_Source\PSoC4/BLE.c ****     *  set in the component customizer's GUI. After invoking this function, the 
 748:Generated_Source\PSoC4/BLE.c ****     *  device will be available for connection by the devices configured for GAP 
 749:Generated_Source\PSoC4/BLE.c ****     *  central role. It is only included if the device is configured for GAP 
 750:Generated_Source\PSoC4/BLE.c ****     *  Peripheral or GAP Peripheral + Central role.
 751:Generated_Source\PSoC4/BLE.c ****     *  
 752:Generated_Source\PSoC4/BLE.c ****     *  On start of advertisement, GAP Peripheral receives the
 753:Generated_Source\PSoC4/BLE.c ****     *  CYBLE_EVT_GAPP_ADVERTISEMENT_START_STOP event. The following events are 
 754:Generated_Source\PSoC4/BLE.c ****     *  possible on invoking this function:
 755:Generated_Source\PSoC4/BLE.c ****     *  
 756:Generated_Source\PSoC4/BLE.c ****     *  * CYBLE_EVT_GAP_DEVICE_CONNECTED - If the device connects to a GAP Central and 
 757:Generated_Source\PSoC4/BLE.c ****     *    Link Layer Privacy is disabled in component customizer.
 758:Generated_Source\PSoC4/BLE.c ****     *  * CYBLE_EVT_GAP_ENHANCE_CONN_COMPLETE - If the device connects to a GAP Central and 
 759:Generated_Source\PSoC4/BLE.c ****     *    Link Layer Privacy is enabled in component customizer.
 760:Generated_Source\PSoC4/BLE.c ****     *  * CYBLE_EVT_TIMEOUT: If no device in GAP Central mode connects to this 
 761:Generated_Source\PSoC4/BLE.c ****     *                       device within the specified timeout limit. Stack 
 762:Generated_Source\PSoC4/BLE.c ****     *                       automatically initiate stop advertising when Slow 
 763:Generated_Source\PSoC4/BLE.c ****     *                       advertising was initiated, or starts Slow advertising
 764:Generated_Source\PSoC4/BLE.c ****     *                       after Fast advertising timeout occur.
 765:Generated_Source\PSoC4/BLE.c ****     *  * CYBLE_EVT_GAPP_ADVERTISEMENT_START_STOP: If device started or stopped
 766:Generated_Source\PSoC4/BLE.c ****     *                                               advertising. Use CyBle_GetState()
 767:Generated_Source\PSoC4/BLE.c ****     *                                               to determine the state. Sequential 
 768:Generated_Source\PSoC4/BLE.c ****     *                                               advertising could be started when
 769:Generated_Source\PSoC4/BLE.c ****     *                                               CYBLE_STATE_DISCONNECTED state is
 770:Generated_Source\PSoC4/BLE.c ****     *                                               returned.
 771:Generated_Source\PSoC4/BLE.c ****     * 
 772:Generated_Source\PSoC4/BLE.c ****     *  \param advertisingIntervalType: Fast or slow advertising interval with timings
ARM GAS  C:\Users\7709\AppData\Local\Temp\ccDQbrve.s 			page 15


 773:Generated_Source\PSoC4/BLE.c ****     *                                 entered in Advertising settings section of the
 774:Generated_Source\PSoC4/BLE.c ****     *                                 customizer.
 775:Generated_Source\PSoC4/BLE.c ****     *  * CYBLE_ADVERTISING_FAST   0x00u
 776:Generated_Source\PSoC4/BLE.c ****     *  * CYBLE_ADVERTISING_SLOW   0x01u
 777:Generated_Source\PSoC4/BLE.c ****     *  * CYBLE_ADVERTISING_CUSTOM 0x02u
 778:Generated_Source\PSoC4/BLE.c ****     * 
 779:Generated_Source\PSoC4/BLE.c ****     * \return
 780:Generated_Source\PSoC4/BLE.c ****     *  CYBLE_API_RESULT_T : Return value indicates if the function succeeded or
 781:Generated_Source\PSoC4/BLE.c ****     *  failed. Following are the possible error codes.
 782:Generated_Source\PSoC4/BLE.c ****     * 
 783:Generated_Source\PSoC4/BLE.c ****     *   Errors codes                      |  Description
 784:Generated_Source\PSoC4/BLE.c ****     *   --------------------------------- |  --------------------------------
 785:Generated_Source\PSoC4/BLE.c ****     *   CYBLE_ERROR_OK                    |  On successful operation.
 786:Generated_Source\PSoC4/BLE.c ****     *   CYBLE_ERROR_INVALID_PARAMETER     |  On passing an invalid parameter.
 787:Generated_Source\PSoC4/BLE.c ****     *   CYBLE_ERROR_INVALID_STATE         |  On calling this function not in Disconnected state.
 788:Generated_Source\PSoC4/BLE.c ****     *
 789:Generated_Source\PSoC4/BLE.c ****     * 
 790:Generated_Source\PSoC4/BLE.c ****     *******************************************************************************/
 791:Generated_Source\PSoC4/BLE.c ****     CYBLE_API_RESULT_T CyBle_GappStartAdvertisement(uint8 advertisingIntervalType)
 792:Generated_Source\PSoC4/BLE.c ****     {
 793:Generated_Source\PSoC4/BLE.c ****         CYBLE_API_RESULT_T apiResult;
 794:Generated_Source\PSoC4/BLE.c ****         
 795:Generated_Source\PSoC4/BLE.c ****         if(advertisingIntervalType > CYBLE_ADVERTISING_CUSTOM)
 796:Generated_Source\PSoC4/BLE.c ****         {
 797:Generated_Source\PSoC4/BLE.c ****             apiResult = CYBLE_ERROR_INVALID_PARAMETER;
 798:Generated_Source\PSoC4/BLE.c ****         }
 799:Generated_Source\PSoC4/BLE.c ****         else if((CYBLE_STATE_DISCONNECTED == CyBle_GetState()) && ((cyBle_eventHandlerFlag & CYBLE_
 800:Generated_Source\PSoC4/BLE.c ****         {   
 801:Generated_Source\PSoC4/BLE.c ****             if(advertisingIntervalType == CYBLE_ADVERTISING_FAST)
 802:Generated_Source\PSoC4/BLE.c ****             {
 803:Generated_Source\PSoC4/BLE.c ****                 cyBle_discoveryModeInfo.advTo = CYBLE_FAST_ADV_TIMEOUT;
 804:Generated_Source\PSoC4/BLE.c ****                 cyBle_discoveryModeInfo.advParam->advIntvMin = CYBLE_FAST_ADV_INT_MIN;
 805:Generated_Source\PSoC4/BLE.c ****                 cyBle_discoveryModeInfo.advParam->advIntvMax = CYBLE_FAST_ADV_INT_MAX;
 806:Generated_Source\PSoC4/BLE.c ****             }
 807:Generated_Source\PSoC4/BLE.c ****             else if(advertisingIntervalType == CYBLE_ADVERTISING_SLOW)
 808:Generated_Source\PSoC4/BLE.c ****             {
 809:Generated_Source\PSoC4/BLE.c ****                 cyBle_discoveryModeInfo.advTo = CYBLE_SLOW_ADV_TIMEOUT;
 810:Generated_Source\PSoC4/BLE.c ****                 cyBle_discoveryModeInfo.advParam->advIntvMin = CYBLE_SLOW_ADV_INT_MIN;
 811:Generated_Source\PSoC4/BLE.c ****                 cyBle_discoveryModeInfo.advParam->advIntvMax = CYBLE_SLOW_ADV_INT_MAX;
 812:Generated_Source\PSoC4/BLE.c ****             }       
 813:Generated_Source\PSoC4/BLE.c ****             else /* Do not update advertising intervals */
 814:Generated_Source\PSoC4/BLE.c ****             {
 815:Generated_Source\PSoC4/BLE.c ****             }
 816:Generated_Source\PSoC4/BLE.c ****             cyBle_advertisingIntervalType = advertisingIntervalType;
 817:Generated_Source\PSoC4/BLE.c ****             apiResult = CyBle_GappEnterDiscoveryMode(&cyBle_discoveryModeInfo);
 818:Generated_Source\PSoC4/BLE.c ****         
 819:Generated_Source\PSoC4/BLE.c ****             if(apiResult == CYBLE_ERROR_OK)
 820:Generated_Source\PSoC4/BLE.c ****             {
 821:Generated_Source\PSoC4/BLE.c ****                 cyBle_eventHandlerFlag |= CYBLE_START_FLAG;
 822:Generated_Source\PSoC4/BLE.c ****             }
 823:Generated_Source\PSoC4/BLE.c ****         }
 824:Generated_Source\PSoC4/BLE.c ****         else
 825:Generated_Source\PSoC4/BLE.c ****         {
 826:Generated_Source\PSoC4/BLE.c ****             apiResult = CYBLE_ERROR_INVALID_STATE;
 827:Generated_Source\PSoC4/BLE.c ****         }
 828:Generated_Source\PSoC4/BLE.c **** 
 829:Generated_Source\PSoC4/BLE.c ****         return (apiResult);
ARM GAS  C:\Users\7709\AppData\Local\Temp\ccDQbrve.s 			page 16


 830:Generated_Source\PSoC4/BLE.c ****     }
 831:Generated_Source\PSoC4/BLE.c **** 
 832:Generated_Source\PSoC4/BLE.c ****     
 833:Generated_Source\PSoC4/BLE.c ****     /******************************************************************************
 834:Generated_Source\PSoC4/BLE.c ****     * Function Name: CyBle_GappStopAdvertisement
 835:Generated_Source\PSoC4/BLE.c ****     ***************************************************************************//**
 836:Generated_Source\PSoC4/BLE.c ****     * 
 837:Generated_Source\PSoC4/BLE.c ****     *   This function can be used to exit from discovery mode. After the execution 
 838:Generated_Source\PSoC4/BLE.c ****     *   of this function, there will no longer be any advertisements. On stopping 
 839:Generated_Source\PSoC4/BLE.c ****     *   advertising, GAP Peripheral receives CYBLE_EVT_GAPP_ADVERTISEMENT_START_STOP
 840:Generated_Source\PSoC4/BLE.c ****     *   event. It is expected that the application layer tracks the function call 
 841:Generated_Source\PSoC4/BLE.c ****     *   performed before occurrence of this event as this event can occur on making 
 842:Generated_Source\PSoC4/BLE.c ****     *   a call to Cy_BleGappStartAdvertisement(), CyBle_GappEnterDiscoveryMode(), 
 843:Generated_Source\PSoC4/BLE.c ****     *   or CyBle_GappStartAdvertisement() functions as well.
 844:Generated_Source\PSoC4/BLE.c ****     *   
 845:Generated_Source\PSoC4/BLE.c ****     *   The following event occurs on invoking this function:
 846:Generated_Source\PSoC4/BLE.c ****     *   * CYBLE_EVT_GAPP_ADVERTISEMENT_START_STOP
 847:Generated_Source\PSoC4/BLE.c ****     * 
 848:Generated_Source\PSoC4/BLE.c ****     *  \return
 849:Generated_Source\PSoC4/BLE.c ****     *   None
 850:Generated_Source\PSoC4/BLE.c ****     * 
 851:Generated_Source\PSoC4/BLE.c ****     *******************************************************************************/
 852:Generated_Source\PSoC4/BLE.c ****     void CyBle_GappStopAdvertisement(void)
 853:Generated_Source\PSoC4/BLE.c ****     {
 854:Generated_Source\PSoC4/BLE.c ****         CyBle_GappExitDiscoveryMode();
 855:Generated_Source\PSoC4/BLE.c ****         cyBle_eventHandlerFlag |= CYBLE_STOP_FLAG;
 856:Generated_Source\PSoC4/BLE.c ****     }
 857:Generated_Source\PSoC4/BLE.c ****     
 858:Generated_Source\PSoC4/BLE.c ****     
 859:Generated_Source\PSoC4/BLE.c ****     /******************************************************************************
 860:Generated_Source\PSoC4/BLE.c ****     * Function Name: CyBle_ChangeAdDeviceAddress
 861:Generated_Source\PSoC4/BLE.c ****     ***************************************************************************//**
 862:Generated_Source\PSoC4/BLE.c ****     * 
 863:Generated_Source\PSoC4/BLE.c ****     *  This function is used to set the Bluetooth device address into the 
 864:Generated_Source\PSoC4/BLE.c ****     *  advertisement or scan response data structure.
 865:Generated_Source\PSoC4/BLE.c ****     * 
 866:Generated_Source\PSoC4/BLE.c ****     *  \param bdAddr: Bluetooth Device address. The variable is of type CYBLE_GAP_BD_ADDR_T
 867:Generated_Source\PSoC4/BLE.c ****     *  \param dest: 0 - selects advertisement structure, not zero value selects scan 
 868:Generated_Source\PSoC4/BLE.c ****     *               response structure.
 869:Generated_Source\PSoC4/BLE.c ****     * 
 870:Generated_Source\PSoC4/BLE.c ****     * \return
 871:Generated_Source\PSoC4/BLE.c ****     *  None
 872:Generated_Source\PSoC4/BLE.c ****     *  
 873:Generated_Source\PSoC4/BLE.c ****     *******************************************************************************/
 874:Generated_Source\PSoC4/BLE.c ****     void CyBle_ChangeAdDeviceAddress(const CYBLE_GAP_BD_ADDR_T* bdAddr, uint8 dest)
 875:Generated_Source\PSoC4/BLE.c ****     {
 876:Generated_Source\PSoC4/BLE.c ****         uint8 i;
 877:Generated_Source\PSoC4/BLE.c ****         uint8 *destBuffer = NULL;
 878:Generated_Source\PSoC4/BLE.c ****         
 879:Generated_Source\PSoC4/BLE.c ****         if(dest == 0u)      /* Destination - advertising structure */
 880:Generated_Source\PSoC4/BLE.c ****         {
 881:Generated_Source\PSoC4/BLE.c ****             #ifdef CYBLE_ADV_PKT_INDEX_BLUETOOTH_DEVICE_ADDRESS
 882:Generated_Source\PSoC4/BLE.c ****                 destBuffer = &cyBle_discoveryData.advData[CYBLE_ADV_PKT_INDEX_BLUETOOTH_DEVICE_ADDR
 883:Generated_Source\PSoC4/BLE.c ****             #endif /* CYBLE_ADV_PKT_INDEX_BLUETOOTH_DEVICE_ADDRESS */
 884:Generated_Source\PSoC4/BLE.c ****         }
 885:Generated_Source\PSoC4/BLE.c ****         else                /* Destination - scan response structure */
 886:Generated_Source\PSoC4/BLE.c ****         {
ARM GAS  C:\Users\7709\AppData\Local\Temp\ccDQbrve.s 			page 17


 887:Generated_Source\PSoC4/BLE.c ****             #ifdef CYBLE_SCN_PKT_INDEX_BLUETOOTH_DEVICE_ADDRESS
 888:Generated_Source\PSoC4/BLE.c ****                 destBuffer = &cyBle_scanRspData.scanRspData[CYBLE_SCN_PKT_INDEX_BLUETOOTH_DEVICE_AD
 889:Generated_Source\PSoC4/BLE.c ****             #endif /* CYBLE_SCN_PKT_INDEX_BLUETOOTH_DEVICE_ADDRESS */    
 890:Generated_Source\PSoC4/BLE.c ****         }
 891:Generated_Source\PSoC4/BLE.c ****         
 892:Generated_Source\PSoC4/BLE.c ****         if(destBuffer != NULL)
 893:Generated_Source\PSoC4/BLE.c ****         {
 894:Generated_Source\PSoC4/BLE.c ****             /* Update Device Address type */
 895:Generated_Source\PSoC4/BLE.c ****             destBuffer[0u] = bdAddr->type;
 896:Generated_Source\PSoC4/BLE.c ****             
 897:Generated_Source\PSoC4/BLE.c ****             for(i = 0u; i < CYBLE_GAP_BD_ADDR_SIZE; i++)
 898:Generated_Source\PSoC4/BLE.c ****             {
 899:Generated_Source\PSoC4/BLE.c ****                 destBuffer[i + 1u] = bdAddr->bdAddr[i];
 900:Generated_Source\PSoC4/BLE.c ****             }
 901:Generated_Source\PSoC4/BLE.c ****         }
 902:Generated_Source\PSoC4/BLE.c ****     }
 903:Generated_Source\PSoC4/BLE.c ****   
 904:Generated_Source\PSoC4/BLE.c **** #endif /* CYBLE_GAP_ROLE_PERIPHERAL || CYBLE_GAP_ROLE_BROADCASTER */
 905:Generated_Source\PSoC4/BLE.c **** 
 906:Generated_Source\PSoC4/BLE.c **** 
 907:Generated_Source\PSoC4/BLE.c **** #if(CYBLE_GAP_ROLE_CENTRAL || CYBLE_GAP_ROLE_OBSERVER)
 908:Generated_Source\PSoC4/BLE.c **** 
 909:Generated_Source\PSoC4/BLE.c ****     /******************************************************************************
 910:Generated_Source\PSoC4/BLE.c ****     * Function Name: CyBle_GapcStartScan
 911:Generated_Source\PSoC4/BLE.c ****     ***************************************************************************//**
 912:Generated_Source\PSoC4/BLE.c ****     * 
 913:Generated_Source\PSoC4/BLE.c ****     *   This function is used for discovering GAP peripheral devices that are 
 914:Generated_Source\PSoC4/BLE.c ****     *   available for connection. It performs the scanning routine using the 
 915:Generated_Source\PSoC4/BLE.c ****     *   parameters entered in the component's customizer.
 916:Generated_Source\PSoC4/BLE.c ****     *   
 917:Generated_Source\PSoC4/BLE.c ****     *   As soon as the discovery operation starts, CYBLE_EVT_GAPC_SCAN_START_STOP 
 918:Generated_Source\PSoC4/BLE.c ****     *   event is generated. The CYBLE_EVT_GAPC_SCAN_PROGRESS_RESULT event is 
 919:Generated_Source\PSoC4/BLE.c ****     *   generated when a GAP peripheral device is located. There are three discovery
 920:Generated_Source\PSoC4/BLE.c ****     *   procedures can be selected in the customizer's GUI:
 921:Generated_Source\PSoC4/BLE.c ****     *   
 922:Generated_Source\PSoC4/BLE.c ****     *   * Observation procedure: A device performing the observer role receives only
 923:Generated_Source\PSoC4/BLE.c ****     *                            advertisement data from devices irrespective of 
 924:Generated_Source\PSoC4/BLE.c ****     *                            their discoverable mode settings. Advertisement 
 925:Generated_Source\PSoC4/BLE.c ****     *                            data received is provided by the event,      
 926:Generated_Source\PSoC4/BLE.c ****     *                            CYBLE_EVT_GAPC_SCAN_PROGRESS_RESULT. This procedure
 927:Generated_Source\PSoC4/BLE.c ****     *                            requires the scanType sub parameter to be passive
 928:Generated_Source\PSoC4/BLE.c ****     *                            scanning. 
 929:Generated_Source\PSoC4/BLE.c ****     *   
 930:Generated_Source\PSoC4/BLE.c ****     *   * Limited Discovery procedure: A device performing the limited discovery
 931:Generated_Source\PSoC4/BLE.c ****     *                                  procedure receives advertisement data and 
 932:Generated_Source\PSoC4/BLE.c ****     *                                  scan# response data from devices in the 
 933:Generated_Source\PSoC4/BLE.c ****     *                                  limited discoverable mode only. Received data
 934:Generated_Source\PSoC4/BLE.c ****     *                                  is provided by the event, 
 935:Generated_Source\PSoC4/BLE.c ****     *                                  CYBLE_EVT_GAPC_SCAN_PROGRESS_RESULT. This 
 936:Generated_Source\PSoC4/BLE.c ****     *                                  procedure requires the scanType sub-parameter 
 937:Generated_Source\PSoC4/BLE.c ****     *                                  to be active scanning.
 938:Generated_Source\PSoC4/BLE.c ****     *   
 939:Generated_Source\PSoC4/BLE.c ****     *   * General Discovery procedure: A device performing the general discovery 
 940:Generated_Source\PSoC4/BLE.c ****     *                                  procedure receives the advertisement data and
 941:Generated_Source\PSoC4/BLE.c ****     *                                  scan response data from devices in both 
 942:Generated_Source\PSoC4/BLE.c ****     *                                  limited discoverable mode and the general 
 943:Generated_Source\PSoC4/BLE.c ****     *                                  discoverable mode. Received data is provided
ARM GAS  C:\Users\7709\AppData\Local\Temp\ccDQbrve.s 			page 18


 944:Generated_Source\PSoC4/BLE.c ****     *                                  by the event,
 945:Generated_Source\PSoC4/BLE.c ****     *                                  CYBLE_EVT_GAPC_SCAN_PROGRESS_RESULT. This 
 946:Generated_Source\PSoC4/BLE.c ****     *                                  procedure requires the scanType sub-parameter
 947:Generated_Source\PSoC4/BLE.c ****     *                                  to be active scanning.
 948:Generated_Source\PSoC4/BLE.c ****     *   
 949:Generated_Source\PSoC4/BLE.c ****     *   Every Advertisement / Scan response packet received results in a new event, 
 950:Generated_Source\PSoC4/BLE.c ****     *   CYBLE_EVT_GAPC_SCAN_PROGRESS_RESULT.
 951:Generated_Source\PSoC4/BLE.c ****     *   If 'scanTo' sub-parameter is a non-zero value, then upon commencement of 
 952:Generated_Source\PSoC4/BLE.c ****     *   discovery procedure and elapsed time = 'scanTo', CYBLE_EVT_TIMEOUT event
 953:Generated_Source\PSoC4/BLE.c ****     *   is generated with the event parameter indicating CYBLE_GAP_SCAN_TO.
 954:Generated_Source\PSoC4/BLE.c ****     *   Possible generated events are:
 955:Generated_Source\PSoC4/BLE.c ****     *   * CYBLE_EVT_GAPC_SCAN_START_STOP: If a device started or stopped scanning. 
 956:Generated_Source\PSoC4/BLE.c ****     *                                     Use CyBle_GetState() to determine the 
 957:Generated_Source\PSoC4/BLE.c ****     *                                     state. Sequential scanning could be 
 958:Generated_Source\PSoC4/BLE.c ****     *                                     started when CYBLE_STATE_DISCONNECTED 
 959:Generated_Source\PSoC4/BLE.c ****     *                                     state is returned. 
 960:Generated_Source\PSoC4/BLE.c ****     *   * CYBLE_EVT_GAPC_SCAN_PROGRESS_RESULT 
 961:Generated_Source\PSoC4/BLE.c ****     *   * CYBLE_EVT_TIMEOUT (CYBLE_GAP_SCAN_TO)
 962:Generated_Source\PSoC4/BLE.c ****     * 
 963:Generated_Source\PSoC4/BLE.c ****     *   \param scanningIntervalType:  Fast or slow scanning interval with
 964:Generated_Source\PSoC4/BLE.c ****     *       timings entered in Scan settings section of the customizer.
 965:Generated_Source\PSoC4/BLE.c ****     * 	  * CYBLE_SCANNING_FAST   0x00u
 966:Generated_Source\PSoC4/BLE.c ****     * 	  * CYBLE_SCANNING_SLOW   0x01u
 967:Generated_Source\PSoC4/BLE.c ****     * 	  * CYBLE_SCANNING_CUSTOM 0x02u
 968:Generated_Source\PSoC4/BLE.c ****     * 
 969:Generated_Source\PSoC4/BLE.c ****     * \return
 970:Generated_Source\PSoC4/BLE.c ****     *  CYBLE_API_RESULT_T : Return value indicates if the function succeeded or
 971:Generated_Source\PSoC4/BLE.c ****     *  failed. Following are the possible error codes.
 972:Generated_Source\PSoC4/BLE.c ****     *
 973:Generated_Source\PSoC4/BLE.c ****     *   Errors codes                       | Description
 974:Generated_Source\PSoC4/BLE.c ****     *   ---------------------------------- | -----------------------------------
 975:Generated_Source\PSoC4/BLE.c ****     *   CYBLE_ERROR_OK                     | On successful operation.
 976:Generated_Source\PSoC4/BLE.c ****     *   CYBLE_ERROR_STACK_INTERNAL         | An error occurred in the BLE stack.
 977:Generated_Source\PSoC4/BLE.c ****     *   CYBLE_ERROR_INVALID_PARAMETER      | On passing an invalid parameter.
 978:Generated_Source\PSoC4/BLE.c ****     *  
 979:Generated_Source\PSoC4/BLE.c ****     *******************************************************************************/
 980:Generated_Source\PSoC4/BLE.c ****     CYBLE_API_RESULT_T CyBle_GapcStartScan(uint8 scanningIntervalType)
 981:Generated_Source\PSoC4/BLE.c ****     {
 982:Generated_Source\PSoC4/BLE.c ****         CYBLE_API_RESULT_T apiResult;
 983:Generated_Source\PSoC4/BLE.c **** 
 984:Generated_Source\PSoC4/BLE.c ****         if(scanningIntervalType > CYBLE_SCANNING_CUSTOM)
 985:Generated_Source\PSoC4/BLE.c ****         {
 986:Generated_Source\PSoC4/BLE.c ****             apiResult = CYBLE_ERROR_INVALID_PARAMETER;
 987:Generated_Source\PSoC4/BLE.c ****         }
 988:Generated_Source\PSoC4/BLE.c ****         else
 989:Generated_Source\PSoC4/BLE.c ****         {
 990:Generated_Source\PSoC4/BLE.c ****             if(scanningIntervalType == CYBLE_SCANNING_FAST)
 991:Generated_Source\PSoC4/BLE.c ****             {
 992:Generated_Source\PSoC4/BLE.c ****                 cyBle_discoveryInfo.scanTo = CYBLE_FAST_SCAN_TIMEOUT;
 993:Generated_Source\PSoC4/BLE.c ****                 cyBle_discoveryInfo.scanIntv = CYBLE_FAST_SCAN_INTERVAL;
 994:Generated_Source\PSoC4/BLE.c ****                 cyBle_discoveryInfo.scanWindow = CYBLE_FAST_SCAN_WINDOW;
 995:Generated_Source\PSoC4/BLE.c ****             }
 996:Generated_Source\PSoC4/BLE.c ****             else if(scanningIntervalType == CYBLE_SCANNING_SLOW)
 997:Generated_Source\PSoC4/BLE.c ****             {
 998:Generated_Source\PSoC4/BLE.c ****                 cyBle_discoveryInfo.scanTo = CYBLE_SLOW_SCAN_TIMEOUT;
 999:Generated_Source\PSoC4/BLE.c ****                 cyBle_discoveryInfo.scanIntv = CYBLE_SLOW_SCAN_INTERVAL;
1000:Generated_Source\PSoC4/BLE.c ****                 cyBle_discoveryInfo.scanWindow = CYBLE_SLOW_SCAN_WINDOW;
ARM GAS  C:\Users\7709\AppData\Local\Temp\ccDQbrve.s 			page 19


1001:Generated_Source\PSoC4/BLE.c ****             }       
1002:Generated_Source\PSoC4/BLE.c ****             else /* Do not update scanning intervals */
1003:Generated_Source\PSoC4/BLE.c ****             {
1004:Generated_Source\PSoC4/BLE.c ****             }
1005:Generated_Source\PSoC4/BLE.c ****             
1006:Generated_Source\PSoC4/BLE.c ****             cyBle_scanningIntervalType = scanningIntervalType;
1007:Generated_Source\PSoC4/BLE.c ****             apiResult = CyBle_GapcStartDiscovery(&cyBle_discoveryInfo);
1008:Generated_Source\PSoC4/BLE.c ****         
1009:Generated_Source\PSoC4/BLE.c ****             if(apiResult == CYBLE_ERROR_OK)
1010:Generated_Source\PSoC4/BLE.c ****             {
1011:Generated_Source\PSoC4/BLE.c ****                 cyBle_eventHandlerFlag |= CYBLE_START_FLAG;
1012:Generated_Source\PSoC4/BLE.c ****             }
1013:Generated_Source\PSoC4/BLE.c ****         }
1014:Generated_Source\PSoC4/BLE.c ****        
1015:Generated_Source\PSoC4/BLE.c ****         return (apiResult);
1016:Generated_Source\PSoC4/BLE.c ****     }
1017:Generated_Source\PSoC4/BLE.c ****     
1018:Generated_Source\PSoC4/BLE.c ****     
1019:Generated_Source\PSoC4/BLE.c ****     /******************************************************************************
1020:Generated_Source\PSoC4/BLE.c ****     * Function Name: CyBle_GapcStopScan
1021:Generated_Source\PSoC4/BLE.c ****     ***************************************************************************//**
1022:Generated_Source\PSoC4/BLE.c ****     * 
1023:Generated_Source\PSoC4/BLE.c ****     *   This function used to stop the discovery of devices. On stopping discovery
1024:Generated_Source\PSoC4/BLE.c ****     *   operation, CYBLE_EVT_GAPC_SCAN_START_STOP event is generated. Application
1025:Generated_Source\PSoC4/BLE.c ****     *   layer needs to keep track of the function call made before receiving this
1026:Generated_Source\PSoC4/BLE.c ****     *   event to associate this event with either the start or stop discovery
1027:Generated_Source\PSoC4/BLE.c ****     *   function.
1028:Generated_Source\PSoC4/BLE.c ****     * 
1029:Generated_Source\PSoC4/BLE.c ****     *   Possible events generated are:
1030:Generated_Source\PSoC4/BLE.c ****     *    * CYBLE_EVT_GAPC_SCAN_START_STOP
1031:Generated_Source\PSoC4/BLE.c ****     * 
1032:Generated_Source\PSoC4/BLE.c ****     *  \return
1033:Generated_Source\PSoC4/BLE.c ****     *   None
1034:Generated_Source\PSoC4/BLE.c ****     * 
1035:Generated_Source\PSoC4/BLE.c ****     *******************************************************************************/
1036:Generated_Source\PSoC4/BLE.c ****     void CyBle_GapcStopScan(void)
1037:Generated_Source\PSoC4/BLE.c ****     {
1038:Generated_Source\PSoC4/BLE.c ****         CyBle_GapcStopDiscovery();
1039:Generated_Source\PSoC4/BLE.c ****         
1040:Generated_Source\PSoC4/BLE.c ****         cyBle_eventHandlerFlag |= CYBLE_STOP_FLAG;
1041:Generated_Source\PSoC4/BLE.c ****     }
1042:Generated_Source\PSoC4/BLE.c **** 
1043:Generated_Source\PSoC4/BLE.c ****     
1044:Generated_Source\PSoC4/BLE.c **** #endif /* CYBLE_GAP_ROLE_CENTRAL || CYBLE_GAP_ROLE_OBSERVER */
1045:Generated_Source\PSoC4/BLE.c **** 
1046:Generated_Source\PSoC4/BLE.c **** 
1047:Generated_Source\PSoC4/BLE.c **** #if(CYBLE_GAP_ROLE_CENTRAL)
1048:Generated_Source\PSoC4/BLE.c **** 
1049:Generated_Source\PSoC4/BLE.c ****     /******************************************************************************
1050:Generated_Source\PSoC4/BLE.c ****     * Function Name: CyBle_GapcConnectDevice
1051:Generated_Source\PSoC4/BLE.c ****     ***************************************************************************//**
1052:Generated_Source\PSoC4/BLE.c ****     * 
1053:Generated_Source\PSoC4/BLE.c ****     *  This function is used to send a connection request to the remote device with
1054:Generated_Source\PSoC4/BLE.c ****     *  the connection parameters set in the component customizer. This function needs
1055:Generated_Source\PSoC4/BLE.c ****     *  to be called only once after the target device is discovered by 
1056:Generated_Source\PSoC4/BLE.c ****     *  CyBle_GapcStartScan() and further scanning has stopped. Scanning is 
1057:Generated_Source\PSoC4/BLE.c ****     *  successfully stopped on invoking CyBle_GapcStopScan() and then receiving the
ARM GAS  C:\Users\7709\AppData\Local\Temp\ccDQbrve.s 			page 20


1058:Generated_Source\PSoC4/BLE.c ****     *  event CYBLE_EVT_GAPC_SCAN_START_STOP with sub-parameter 'success' = 0x01u.
1059:Generated_Source\PSoC4/BLE.c ****     *  
1060:Generated_Source\PSoC4/BLE.c ****     *  On successful connection, the following events are generated at the GAP 
1061:Generated_Source\PSoC4/BLE.c ****     *  Central device (as well as the GAP Peripheral device), in the following order.
1062:Generated_Source\PSoC4/BLE.c ****     *  * CYBLE_EVT_GATT_CONNECT_IND
1063:Generated_Source\PSoC4/BLE.c ****     *  * CYBLE_EVT_GAP_DEVICE_CONNECTED - If the device connects to a GAP Central and 
1064:Generated_Source\PSoC4/BLE.c ****     *    Link Layer Privacy is disabled in component customizer.
1065:Generated_Source\PSoC4/BLE.c ****     *  * CYBLE_EVT_GAP_ENHANCE_CONN_COMPLETE - If the device connects to a GAP Central and 
1066:Generated_Source\PSoC4/BLE.c ****     *    Link Layer Privacy is enabled in component customizer.
1067:Generated_Source\PSoC4/BLE.c ****     *  * CYBLE_EVT_GAP_DEVICE_CONNECTED
1068:Generated_Source\PSoC4/BLE.c ****     *  
1069:Generated_Source\PSoC4/BLE.c ****     *  A procedure is considered to have timed out if a connection response packet is 
1070:Generated_Source\PSoC4/BLE.c ****     *  not received within time set by cyBle_connectingTimeout global variable
1071:Generated_Source\PSoC4/BLE.c ****     *  (30 seconds by default). CYBLE_EVT_TIMEOUT event with CYBLE_GENERIC_TO parameter
1072:Generated_Source\PSoC4/BLE.c ****     *  will indicate about connection procedure timeout. Connection will automatically
1073:Generated_Source\PSoC4/BLE.c ****     *  be canceled and state will be changed to CYBLE_STATE_DISCONNECTED.
1074:Generated_Source\PSoC4/BLE.c ****     * 
1075:Generated_Source\PSoC4/BLE.c ****     *  \param address: The device address of the remote device to connect to. 
1076:Generated_Source\PSoC4/BLE.c ****     *  
1077:Generated_Source\PSoC4/BLE.c ****     * \return
1078:Generated_Source\PSoC4/BLE.c ****     *  CYBLE_API_RESULT_T : Return value indicates if the function succeeded or 
1079:Generated_Source\PSoC4/BLE.c ****     *  failed. Following are the possible error codes.
1080:Generated_Source\PSoC4/BLE.c ****     *
1081:Generated_Source\PSoC4/BLE.c ****     *   Errors codes                       | Description
1082:Generated_Source\PSoC4/BLE.c ****     *   ------------                       | -----------
1083:Generated_Source\PSoC4/BLE.c ****     *   CYBLE_ERROR_OK                     | On successful operation.
1084:Generated_Source\PSoC4/BLE.c ****     *   CYBLE_ERROR_STACK_INTERNAL         | On error occurred in the BLE stack.
1085:Generated_Source\PSoC4/BLE.c ****     *   CYBLE_ERROR_INVALID_PARAMETER      | On passing an invalid parameter.
1086:Generated_Source\PSoC4/BLE.c ****     *   CYBLE_ERROR_INVALID_STATE          | On calling this function not in Disconnected state.
1087:Generated_Source\PSoC4/BLE.c ****     *  
1088:Generated_Source\PSoC4/BLE.c ****     ******************************************************************************/
1089:Generated_Source\PSoC4/BLE.c ****     CYBLE_API_RESULT_T CyBle_GapcConnectDevice(const CYBLE_GAP_BD_ADDR_T * address)
1090:Generated_Source\PSoC4/BLE.c ****     {
1091:Generated_Source\PSoC4/BLE.c ****         CYBLE_API_RESULT_T apiResult;
1092:Generated_Source\PSoC4/BLE.c ****         uint8 i;
1093:Generated_Source\PSoC4/BLE.c **** 
1094:Generated_Source\PSoC4/BLE.c ****         if(CyBle_GetState() != CYBLE_STATE_DISCONNECTED)
1095:Generated_Source\PSoC4/BLE.c ****         {
1096:Generated_Source\PSoC4/BLE.c ****             apiResult = CYBLE_ERROR_INVALID_STATE;
1097:Generated_Source\PSoC4/BLE.c ****         }
1098:Generated_Source\PSoC4/BLE.c ****         else if(address == NULL)
1099:Generated_Source\PSoC4/BLE.c ****         {
1100:Generated_Source\PSoC4/BLE.c ****             apiResult = CYBLE_ERROR_INVALID_PARAMETER;
1101:Generated_Source\PSoC4/BLE.c ****         }
1102:Generated_Source\PSoC4/BLE.c ****         else
1103:Generated_Source\PSoC4/BLE.c ****         {
1104:Generated_Source\PSoC4/BLE.c ****             for(i = 0u; i < CYBLE_GAP_BD_ADDR_SIZE; i++)
1105:Generated_Source\PSoC4/BLE.c ****             {
1106:Generated_Source\PSoC4/BLE.c ****                 cyBle_connectionParameters.peerBdAddr[i] = address->bdAddr[i];
1107:Generated_Source\PSoC4/BLE.c ****             }
1108:Generated_Source\PSoC4/BLE.c ****             cyBle_connectionParameters.peerAddrType = address -> type;
1109:Generated_Source\PSoC4/BLE.c ****             apiResult = CyBle_GapcInitConnection(&cyBle_connectionParameters);
1110:Generated_Source\PSoC4/BLE.c ****             
1111:Generated_Source\PSoC4/BLE.c ****             if(apiResult == CYBLE_ERROR_OK)
1112:Generated_Source\PSoC4/BLE.c ****             {
1113:Generated_Source\PSoC4/BLE.c ****                 CyBle_SetState(CYBLE_STATE_CONNECTING);
1114:Generated_Source\PSoC4/BLE.c ****                 if(cyBle_connectingTimeout != 0u)
ARM GAS  C:\Users\7709\AppData\Local\Temp\ccDQbrve.s 			page 21


1115:Generated_Source\PSoC4/BLE.c ****                 {
1116:Generated_Source\PSoC4/BLE.c ****                     (void)CyBle_StartTimer(cyBle_connectingTimeout);
1117:Generated_Source\PSoC4/BLE.c ****                 }
1118:Generated_Source\PSoC4/BLE.c ****             }
1119:Generated_Source\PSoC4/BLE.c ****         }
1120:Generated_Source\PSoC4/BLE.c ****         return (apiResult);
1121:Generated_Source\PSoC4/BLE.c ****     }
1122:Generated_Source\PSoC4/BLE.c ****     
1123:Generated_Source\PSoC4/BLE.c **** 
1124:Generated_Source\PSoC4/BLE.c ****     /******************************************************************************
1125:Generated_Source\PSoC4/BLE.c ****     * Function Name: CyBle_GapcCancelDeviceConnection
1126:Generated_Source\PSoC4/BLE.c ****     ***************************************************************************//**
1127:Generated_Source\PSoC4/BLE.c ****     * 
1128:Generated_Source\PSoC4/BLE.c ****     *  This function cancels a previously initiated connection with the remote 
1129:Generated_Source\PSoC4/BLE.c ****     *  device. It is a blocking function. No event is generated on calling this 
1130:Generated_Source\PSoC4/BLE.c ****     *  function. If the devices are already connected then this function should not
1131:Generated_Source\PSoC4/BLE.c ****     *  be used. If you intend to disconnect from an existing connection, the function
1132:Generated_Source\PSoC4/BLE.c ****     *  CyBle_GapDisconnect() should be used.
1133:Generated_Source\PSoC4/BLE.c ****     * 
1134:Generated_Source\PSoC4/BLE.c ****     * \return
1135:Generated_Source\PSoC4/BLE.c ****     *  CYBLE_API_RESULT_T : Return value indicates if the function succeeded or 
1136:Generated_Source\PSoC4/BLE.c ****     *  failed. Following are the possible error codes.
1137:Generated_Source\PSoC4/BLE.c ****     *
1138:Generated_Source\PSoC4/BLE.c ****     *   Errors codes                       | Description
1139:Generated_Source\PSoC4/BLE.c ****     *   ---------------------------------- | --------------------------------------
1140:Generated_Source\PSoC4/BLE.c ****     *   CYBLE_ERROR_OK                     | On successful operation.
1141:Generated_Source\PSoC4/BLE.c ****     *   CYBLE_ERROR_STACK_INTERNAL         | An error occurred in the BLE stack.
1142:Generated_Source\PSoC4/BLE.c ****     *   CYBLE_ERROR_INVALID_STATE          | On calling this function not in Connecting state.
1143:Generated_Source\PSoC4/BLE.c ****     *  
1144:Generated_Source\PSoC4/BLE.c ****     *******************************************************************************/
1145:Generated_Source\PSoC4/BLE.c ****     CYBLE_API_RESULT_T CyBle_GapcCancelDeviceConnection(void)
1146:Generated_Source\PSoC4/BLE.c ****     {
1147:Generated_Source\PSoC4/BLE.c ****         CYBLE_API_RESULT_T apiResult;
1148:Generated_Source\PSoC4/BLE.c ****         
1149:Generated_Source\PSoC4/BLE.c ****         if(CyBle_GetState() != CYBLE_STATE_CONNECTING)
1150:Generated_Source\PSoC4/BLE.c ****         {
1151:Generated_Source\PSoC4/BLE.c ****             apiResult = CYBLE_ERROR_INVALID_STATE;
1152:Generated_Source\PSoC4/BLE.c ****         }
1153:Generated_Source\PSoC4/BLE.c ****         else 
1154:Generated_Source\PSoC4/BLE.c ****         {
1155:Generated_Source\PSoC4/BLE.c ****             apiResult = CyBle_GapcCancelConnection();
1156:Generated_Source\PSoC4/BLE.c ****             
1157:Generated_Source\PSoC4/BLE.c ****             if(cyBle_connectingTimeout != 0u)
1158:Generated_Source\PSoC4/BLE.c ****             {
1159:Generated_Source\PSoC4/BLE.c ****                 (void)CyBle_StopTimer();
1160:Generated_Source\PSoC4/BLE.c ****             }
1161:Generated_Source\PSoC4/BLE.c **** 
1162:Generated_Source\PSoC4/BLE.c ****             if(apiResult == CYBLE_ERROR_OK)
1163:Generated_Source\PSoC4/BLE.c ****             {
1164:Generated_Source\PSoC4/BLE.c ****                 CyBle_SetState(CYBLE_STATE_DISCONNECTED);
1165:Generated_Source\PSoC4/BLE.c ****             }
1166:Generated_Source\PSoC4/BLE.c ****         }
1167:Generated_Source\PSoC4/BLE.c ****         return (apiResult);
1168:Generated_Source\PSoC4/BLE.c ****     }    
1169:Generated_Source\PSoC4/BLE.c **** 
1170:Generated_Source\PSoC4/BLE.c ****     
1171:Generated_Source\PSoC4/BLE.c **** #endif /* CYBLE_GAP_ROLE_CENTRAL */
ARM GAS  C:\Users\7709\AppData\Local\Temp\ccDQbrve.s 			page 22


1172:Generated_Source\PSoC4/BLE.c **** 
1173:Generated_Source\PSoC4/BLE.c **** 
1174:Generated_Source\PSoC4/BLE.c **** #if(CYBLE_GATT_ROLE_SERVER)
1175:Generated_Source\PSoC4/BLE.c **** 
1176:Generated_Source\PSoC4/BLE.c **** #if(CYBLE_GAP_ROLE_PERIPHERAL)
1177:Generated_Source\PSoC4/BLE.c **** 
1178:Generated_Source\PSoC4/BLE.c ****         /******************************************************************************
1179:Generated_Source\PSoC4/BLE.c ****         * Function Name: CyBle_ChangeAdLocalName
1180:Generated_Source\PSoC4/BLE.c ****         ***************************************************************************//**
1181:Generated_Source\PSoC4/BLE.c ****         *  This function is used to set the local device name in the advertisement or 
1182:Generated_Source\PSoC4/BLE.c ****         *  scan response data structure.
1183:Generated_Source\PSoC4/BLE.c ****         * 
1184:Generated_Source\PSoC4/BLE.c ****         *  \param name: The local device name string to be set in advertisement data 
1185:Generated_Source\PSoC4/BLE.c ****         *            structure.
1186:Generated_Source\PSoC4/BLE.c ****         *  \param dest: 0 - advertisement structure, not zero value selects scan response
1187:Generated_Source\PSoC4/BLE.c ****         *              structure.
1188:Generated_Source\PSoC4/BLE.c ****         * 
1189:Generated_Source\PSoC4/BLE.c ****         * \return
1190:Generated_Source\PSoC4/BLE.c ****         *  None
1191:Generated_Source\PSoC4/BLE.c ****         *  
1192:Generated_Source\PSoC4/BLE.c ****         *******************************************************************************/
1193:Generated_Source\PSoC4/BLE.c ****         static void CyBle_ChangeAdLocalName(const char8 name[], uint8 dest)
1194:Generated_Source\PSoC4/BLE.c ****         {
  27              		.loc 1 1194 0
  28              		.cfi_startproc
  29              		@ args = 0, pretend = 0, frame = 0
  30              		@ frame_needed = 0, uses_anonymous_args = 0
  31              	.LVL0:
  32 0000 70B5     		push	{r4, r5, r6, lr}
  33              		.cfi_def_cfa_offset 16
  34              		.cfi_offset 4, -16
  35              		.cfi_offset 5, -12
  36              		.cfi_offset 6, -8
  37              		.cfi_offset 14, -4
  38 0002 1C4B     		ldr	r3, .L20
1195:Generated_Source\PSoC4/BLE.c ****             uint8 i;
1196:Generated_Source\PSoC4/BLE.c ****             uint8 flag = 0u;
1197:Generated_Source\PSoC4/BLE.c ****             uint8 adLength = 0u;
1198:Generated_Source\PSoC4/BLE.c ****             uint8 byteCounter = 0u;
1199:Generated_Source\PSoC4/BLE.c ****             uint8 *destBuffer;
1200:Generated_Source\PSoC4/BLE.c ****             uint8 maxLength;
1201:Generated_Source\PSoC4/BLE.c ****             
1202:Generated_Source\PSoC4/BLE.c ****             if(dest == 0u)      /* Destination - advertising structure */
  39              		.loc 1 1202 0
  40 0004 0029     		cmp	r1, #0
  41 0006 05D1     		bne	.L2
  42              	.LVL1:
1203:Generated_Source\PSoC4/BLE.c ****             {
1204:Generated_Source\PSoC4/BLE.c ****                 destBuffer = cyBle_discoveryData.advData;
1205:Generated_Source\PSoC4/BLE.c ****                 maxLength = cyBle_discoveryData.advDataLen;
  43              		.loc 1 1205 0
  44 0008 DE7F     		ldrb	r6, [r3, #31]
  45              	.LVL2:
  46              	.L16:
1204:Generated_Source\PSoC4/BLE.c ****                 maxLength = cyBle_discoveryData.advDataLen;
  47              		.loc 1 1204 0
  48 000a 1900     		movs	r1, r3
ARM GAS  C:\Users\7709\AppData\Local\Temp\ccDQbrve.s 			page 23


  49              	.LVL3:
1206:Generated_Source\PSoC4/BLE.c ****             }
1207:Generated_Source\PSoC4/BLE.c ****             else                /* Destination - scan response structure */
1208:Generated_Source\PSoC4/BLE.c ****             {
1209:Generated_Source\PSoC4/BLE.c ****                 destBuffer = cyBle_scanRspData.scanRspData;
1210:Generated_Source\PSoC4/BLE.c ****                 maxLength = cyBle_scanRspData.scanRspDataLen;
1211:Generated_Source\PSoC4/BLE.c ****             }
1212:Generated_Source\PSoC4/BLE.c ****             
1213:Generated_Source\PSoC4/BLE.c ****             while((byteCounter < maxLength) && (flag == 0u))
1214:Generated_Source\PSoC4/BLE.c ****             {
1215:Generated_Source\PSoC4/BLE.c ****                 adLength = destBuffer[byteCounter];
1216:Generated_Source\PSoC4/BLE.c ****                 
1217:Generated_Source\PSoC4/BLE.c ****                 if(0u != adLength)
1218:Generated_Source\PSoC4/BLE.c ****                 {
1219:Generated_Source\PSoC4/BLE.c ****                     /* Increment byte counter so it can point to AD type */
1220:Generated_Source\PSoC4/BLE.c ****                     byteCounter++;
1221:Generated_Source\PSoC4/BLE.c ****                     
1222:Generated_Source\PSoC4/BLE.c ****                     if((destBuffer[byteCounter] == CYBLE_SHORT_LOCAL_NAME) || 
1223:Generated_Source\PSoC4/BLE.c ****                        (destBuffer[byteCounter] == CYBLE_COMPLETE_LOCAL_NAME))
1224:Generated_Source\PSoC4/BLE.c ****                     {
1225:Generated_Source\PSoC4/BLE.c ****                         /* Start of the Local Name AD type was fount. Set flag and exit the loop. *
1226:Generated_Source\PSoC4/BLE.c ****                         flag = 1u;
  50              		.loc 1 1226 0
  51 000c 0023     		movs	r3, #0
  52 000e 1A00     		movs	r2, r3
  53 0010 1C00     		movs	r4, r3
  54 0012 11E0     		b	.L3
  55              	.LVL4:
  56              	.L2:
1210:Generated_Source\PSoC4/BLE.c ****             }
  57              		.loc 1 1210 0
  58 0014 1A00     		movs	r2, r3
  59 0016 3F32     		adds	r2, r2, #63
  60 0018 1678     		ldrb	r6, [r2]
  61              	.LVL5:
1209:Generated_Source\PSoC4/BLE.c ****                 maxLength = cyBle_scanRspData.scanRspDataLen;
  62              		.loc 1 1209 0
  63 001a 2033     		adds	r3, r3, #32
  64 001c F5E7     		b	.L16
  65              	.LVL6:
  66              	.L18:
1213:Generated_Source\PSoC4/BLE.c ****             {
  67              		.loc 1 1213 0 discriminator 1
  68 001e 002C     		cmp	r4, #0
  69 0020 11D1     		bne	.L10
1215:Generated_Source\PSoC4/BLE.c ****                 
  70              		.loc 1 1215 0
  71 0022 CA5C     		ldrb	r2, [r1, r3]
  72              	.LVL7:
1217:Generated_Source\PSoC4/BLE.c ****                 {
  73              		.loc 1 1217 0
  74 0024 002A     		cmp	r2, #0
  75 0026 23D0     		beq	.L1
1220:Generated_Source\PSoC4/BLE.c ****                     
  76              		.loc 1 1220 0
  77 0028 0133     		adds	r3, r3, #1
  78              	.LVL8:
ARM GAS  C:\Users\7709\AppData\Local\Temp\ccDQbrve.s 			page 24


  79 002a DBB2     		uxtb	r3, r3
  80              	.LVL9:
1222:Generated_Source\PSoC4/BLE.c ****                        (destBuffer[byteCounter] == CYBLE_COMPLETE_LOCAL_NAME))
  81              		.loc 1 1222 0
  82 002c CD5C     		ldrb	r5, [r1, r3]
  83 002e 083D     		subs	r5, r5, #8
  84 0030 012D     		cmp	r5, #1
  85 0032 04D9     		bls	.L14
1227:Generated_Source\PSoC4/BLE.c ****                     }
1228:Generated_Source\PSoC4/BLE.c ****                     else
1229:Generated_Source\PSoC4/BLE.c ****                     {
1230:Generated_Source\PSoC4/BLE.c ****                         byteCounter += adLength;
  86              		.loc 1 1230 0
  87 0034 D318     		adds	r3, r2, r3
  88              	.LVL10:
  89 0036 DBB2     		uxtb	r3, r3
  90              	.LVL11:
  91              	.L3:
1213:Generated_Source\PSoC4/BLE.c ****             {
  92              		.loc 1 1213 0
  93 0038 B342     		cmp	r3, r6
  94 003a F0D3     		bcc	.L18
  95 003c 01E0     		b	.L7
  96              	.L14:
1226:Generated_Source\PSoC4/BLE.c ****                     }
  97              		.loc 1 1226 0
  98 003e 0124     		movs	r4, #1
  99              	.LVL12:
 100 0040 FAE7     		b	.L3
 101              	.LVL13:
 102              	.L7:
1231:Generated_Source\PSoC4/BLE.c ****                     }
1232:Generated_Source\PSoC4/BLE.c ****                 }
1233:Generated_Source\PSoC4/BLE.c ****                 else
1234:Generated_Source\PSoC4/BLE.c ****                 {
1235:Generated_Source\PSoC4/BLE.c ****                     /* The end of advertisement data structure was encountered though exit the loop
1236:Generated_Source\PSoC4/BLE.c ****                     break;
1237:Generated_Source\PSoC4/BLE.c ****                 }
1238:Generated_Source\PSoC4/BLE.c ****             }
1239:Generated_Source\PSoC4/BLE.c ****             
1240:Generated_Source\PSoC4/BLE.c ****             if(0u != flag)
 103              		.loc 1 1240 0
 104 0042 002C     		cmp	r4, #0
 105 0044 14D0     		beq	.L1
 106              	.L10:
1241:Generated_Source\PSoC4/BLE.c ****             {
1242:Generated_Source\PSoC4/BLE.c ****                 /* Reuse "adLength" to hold location of the last character of local name in 
1243:Generated_Source\PSoC4/BLE.c ****                    AD structure. */
1244:Generated_Source\PSoC4/BLE.c ****                 adLength += byteCounter;
 107              		.loc 1 1244 0
 108 0046 D218     		adds	r2, r2, r3
 109              	.LVL14:
1245:Generated_Source\PSoC4/BLE.c ****                 
1246:Generated_Source\PSoC4/BLE.c ****                 /* Increment byte counter to point to start of the local Name string */
1247:Generated_Source\PSoC4/BLE.c ****                 byteCounter++;
 110              		.loc 1 1247 0
 111 0048 0133     		adds	r3, r3, #1
ARM GAS  C:\Users\7709\AppData\Local\Temp\ccDQbrve.s 			page 25


 112              	.LVL15:
 113 004a DBB2     		uxtb	r3, r3
1244:Generated_Source\PSoC4/BLE.c ****                 
 114              		.loc 1 1244 0
 115 004c D4B2     		uxtb	r4, r2
 116              	.LVL16:
1248:Generated_Source\PSoC4/BLE.c ****                 
1249:Generated_Source\PSoC4/BLE.c ****                 for(i = byteCounter; ((i < (adLength)) && (CYBLE_NULL_CHARCTER != name[i - byteCoun
 117              		.loc 1 1249 0
 118 004e 1A00     		movs	r2, r3
 119 0050 06E0     		b	.L9
 120              	.LVL17:
 121              	.L19:
 122              		.loc 1 1249 0 is_stmt 0 discriminator 3
 123 0052 D51A     		subs	r5, r2, r3
 124 0054 455D     		ldrb	r5, [r0, r5]
 125 0056 002D     		cmp	r5, #0
 126 0058 05D0     		beq	.L13
1250:Generated_Source\PSoC4/BLE.c ****                 {
1251:Generated_Source\PSoC4/BLE.c ****                     destBuffer[i] = (uint8)name[i - byteCounter];
 127              		.loc 1 1251 0 is_stmt 1 discriminator 4
 128 005a 8D54     		strb	r5, [r1, r2]
1249:Generated_Source\PSoC4/BLE.c ****                 {
 129              		.loc 1 1249 0 discriminator 4
 130 005c 0132     		adds	r2, r2, #1
 131              	.LVL18:
 132 005e D2B2     		uxtb	r2, r2
 133              	.LVL19:
 134              	.L9:
1249:Generated_Source\PSoC4/BLE.c ****                 {
 135              		.loc 1 1249 0 is_stmt 0 discriminator 1
 136 0060 A242     		cmp	r2, r4
 137 0062 F6D3     		bcc	.L19
 138 0064 04E0     		b	.L1
 139              	.L13:
1252:Generated_Source\PSoC4/BLE.c ****                 }
1253:Generated_Source\PSoC4/BLE.c ****                 
1254:Generated_Source\PSoC4/BLE.c ****                 /* This loop handles the case when new local name is shorted than old one.
1255:Generated_Source\PSoC4/BLE.c ****                    In this case all remaining characters should be null characters. */
1256:Generated_Source\PSoC4/BLE.c ****                 while(adLength > i)
1257:Generated_Source\PSoC4/BLE.c ****                 {
1258:Generated_Source\PSoC4/BLE.c ****                     /* Terminate string */
1259:Generated_Source\PSoC4/BLE.c ****                     destBuffer[i] = (uint8)CYBLE_NULL_CHARCTER;
 140              		.loc 1 1259 0 is_stmt 1
 141 0066 8D54     		strb	r5, [r1, r2]
1260:Generated_Source\PSoC4/BLE.c ****                     i++;
 142              		.loc 1 1260 0
 143 0068 0132     		adds	r2, r2, #1
 144              	.LVL20:
 145 006a D2B2     		uxtb	r2, r2
 146              	.LVL21:
1256:Generated_Source\PSoC4/BLE.c ****                 {
 147              		.loc 1 1256 0
 148 006c 9442     		cmp	r4, r2
 149 006e FAD8     		bhi	.L13
 150              	.LVL22:
 151              	.L1:
ARM GAS  C:\Users\7709\AppData\Local\Temp\ccDQbrve.s 			page 26


1261:Generated_Source\PSoC4/BLE.c ****                 }
1262:Generated_Source\PSoC4/BLE.c ****             }
1263:Generated_Source\PSoC4/BLE.c ****         }
 152              		.loc 1 1263 0
 153              		@ sp needed
 154              	.LVL23:
 155 0070 70BD     		pop	{r4, r5, r6, pc}
 156              	.L21:
 157 0072 C046     		.align	2
 158              	.L20:
 159 0074 00000000 		.word	.LANCHOR0
 160              		.cfi_endproc
 161              	.LFE9:
 162              		.size	CyBle_ChangeAdLocalName, .-CyBle_ChangeAdLocalName
 163              		.section	.text.CyBle_Init,"ax",%progbits
 164              		.align	1
 165              		.global	CyBle_Init
 166              		.code	16
 167              		.thumb_func
 168              		.type	CyBle_Init, %function
 169              	CyBle_Init:
 170              	.LFB2:
 153:Generated_Source\PSoC4/BLE.c ****     cyBle_eventHandlerFlag = 0u;
 171              		.loc 1 153 0
 172              		.cfi_startproc
 173              		@ args = 0, pretend = 0, frame = 0
 174              		@ frame_needed = 0, uses_anonymous_args = 0
 154:Generated_Source\PSoC4/BLE.c ****     cyBle_busyStatus = CYBLE_STACK_STATE_FREE;
 175              		.loc 1 154 0
 176 0000 0023     		movs	r3, #0
 177 0002 054A     		ldr	r2, .L23
 153:Generated_Source\PSoC4/BLE.c ****     cyBle_eventHandlerFlag = 0u;
 178              		.loc 1 153 0
 179 0004 10B5     		push	{r4, lr}
 180              		.cfi_def_cfa_offset 8
 181              		.cfi_offset 4, -8
 182              		.cfi_offset 14, -4
 154:Generated_Source\PSoC4/BLE.c ****     cyBle_busyStatus = CYBLE_STACK_STATE_FREE;
 183              		.loc 1 154 0
 184 0006 1370     		strb	r3, [r2]
 155:Generated_Source\PSoC4/BLE.c **** 
 185              		.loc 1 155 0
 186 0008 044A     		ldr	r2, .L23+4
 188:Generated_Source\PSoC4/BLE.c **** 
 187              		.loc 1 188 0
 188              		@ sp needed
 155:Generated_Source\PSoC4/BLE.c **** 
 189              		.loc 1 155 0
 190 000a 1370     		strb	r3, [r2]
 158:Generated_Source\PSoC4/BLE.c ****     #endif /* (CYBLE_GAP_ROLE_PERIPHERAL || CYBLE_GAP_ROLE_BROADCASTER)  */
 191              		.loc 1 158 0
 192 000c 044A     		ldr	r2, .L23+8
 193 000e 1370     		strb	r3, [r2]
 194              	.LBB4:
 195              	.LBB5:
 260:Generated_Source\PSoC4/BLE.c ****     #endif /* CYBLE_CUSTOM */
 196              		.loc 1 260 0
ARM GAS  C:\Users\7709\AppData\Local\Temp\ccDQbrve.s 			page 27


 197 0010 FFF7FEFF 		bl	CyBle_CustomInit
 198              	.LVL24:
 199              	.LBE5:
 200              	.LBE4:
 188:Generated_Source\PSoC4/BLE.c **** 
 201              		.loc 1 188 0
 202 0014 10BD     		pop	{r4, pc}
 203              	.L24:
 204 0016 C046     		.align	2
 205              	.L23:
 206 0018 00000000 		.word	cyBle_eventHandlerFlag
 207 001c 00000000 		.word	cyBle_busyStatus
 208 0020 00000000 		.word	cyBle_advertisingIntervalType
 209              		.cfi_endproc
 210              	.LFE2:
 211              		.size	CyBle_Init, .-CyBle_Init
 212              		.section	.text.CyBle_ServiceInit,"ax",%progbits
 213              		.align	1
 214              		.global	CyBle_ServiceInit
 215              		.code	16
 216              		.thumb_func
 217              		.type	CyBle_ServiceInit, %function
 218              	CyBle_ServiceInit:
 219              	.LFB3:
 202:Generated_Source\PSoC4/BLE.c ****     #if(CYBLE_GATT_ROLE_CLIENT)
 220              		.loc 1 202 0
 221              		.cfi_startproc
 222              		@ args = 0, pretend = 0, frame = 0
 223              		@ frame_needed = 0, uses_anonymous_args = 0
 224 0000 10B5     		push	{r4, lr}
 225              		.cfi_def_cfa_offset 8
 226              		.cfi_offset 4, -8
 227              		.cfi_offset 14, -4
 260:Generated_Source\PSoC4/BLE.c ****     #endif /* CYBLE_CUSTOM */
 228              		.loc 1 260 0
 229 0002 FFF7FEFF 		bl	CyBle_CustomInit
 230              	.LVL25:
 346:Generated_Source\PSoC4/BLE.c **** 
 231              		.loc 1 346 0
 232              		@ sp needed
 233 0006 10BD     		pop	{r4, pc}
 234              		.cfi_endproc
 235              	.LFE3:
 236              		.size	CyBle_ServiceInit, .-CyBle_ServiceInit
 237              		.section	.text.CyBle_Start,"ax",%progbits
 238              		.align	1
 239              		.global	CyBle_Start
 240              		.code	16
 241              		.thumb_func
 242              		.type	CyBle_Start, %function
 243              	CyBle_Start:
 244              	.LFB4:
 408:Generated_Source\PSoC4/BLE.c ****     CYBLE_API_RESULT_T apiResult = CYBLE_ERROR_OK;
 245              		.loc 1 408 0
 246              		.cfi_startproc
 247              		@ args = 0, pretend = 0, frame = 48
 248              		@ frame_needed = 0, uses_anonymous_args = 0
ARM GAS  C:\Users\7709\AppData\Local\Temp\ccDQbrve.s 			page 28


 249              	.LVL26:
 250 0000 30B5     		push	{r4, r5, lr}
 251              		.cfi_def_cfa_offset 12
 252              		.cfi_offset 4, -12
 253              		.cfi_offset 5, -8
 254              		.cfi_offset 14, -4
 255 0002 91B0     		sub	sp, sp, #68
 256              		.cfi_def_cfa_offset 80
 408:Generated_Source\PSoC4/BLE.c ****     CYBLE_API_RESULT_T apiResult = CYBLE_ERROR_OK;
 257              		.loc 1 408 0
 258 0004 0400     		movs	r4, r0
 413:Generated_Source\PSoC4/BLE.c ****     {
 259              		.loc 1 413 0
 260 0006 1422     		movs	r2, #20
 261 0008 1D49     		ldr	r1, .L30
 262 000a 0BA8     		add	r0, sp, #44
 263              	.LVL27:
 264 000c FFF7FEFF 		bl	memcpy
 265              	.LVL28:
 425:Generated_Source\PSoC4/BLE.c ****     {
 266              		.loc 1 425 0
 267 0010 1C4D     		ldr	r5, .L30+4
 268 0012 2B78     		ldrb	r3, [r5]
 269 0014 002B     		cmp	r3, #0
 270 0016 03D1     		bne	.L27
 427:Generated_Source\PSoC4/BLE.c ****         cyBle_initVar = 1u;
 271              		.loc 1 427 0
 272 0018 FFF7FEFF 		bl	CyBle_Init
 273              	.LVL29:
 428:Generated_Source\PSoC4/BLE.c ****     }
 274              		.loc 1 428 0
 275 001c 0123     		movs	r3, #1
 276 001e 2B70     		strb	r3, [r5]
 277              	.L27:
 521:Generated_Source\PSoC4/BLE.c ****     }
 278              		.loc 1 521 0
 279 0020 0120     		movs	r0, #1
 431:Generated_Source\PSoC4/BLE.c ****     {
 280              		.loc 1 431 0
 281 0022 002C     		cmp	r4, #0
 282 0024 29D0     		beq	.L28
 433:Generated_Source\PSoC4/BLE.c ****         
 283              		.loc 1 433 0
 284 0026 184B     		ldr	r3, .L30+8
 285              	.LBB6:
 456:Generated_Source\PSoC4/BLE.c ****                                        CYBLE_SECURE_CONN_FEATURE;
 286              		.loc 1 456 0
 287 0028 0021     		movs	r1, #0
 288              	.LBE6:
 433:Generated_Source\PSoC4/BLE.c ****         
 289              		.loc 1 433 0
 290 002a 1C60     		str	r4, [r3]
 291              	.LBB7:
 460:Generated_Source\PSoC4/BLE.c ****             dleConfigParams.dleMaxRxCapability = CYBLE_LL_MAX_RX_PAYLOAD_SIZE;
 292              		.loc 1 460 0
 293 002c 1B24     		movs	r4, #27
 294              	.LVL30:
ARM GAS  C:\Users\7709\AppData\Local\Temp\ccDQbrve.s 			page 29


 452:Generated_Source\PSoC4/BLE.c ****             stackConfig.dleConfig = &dleConfigParams;
 295              		.loc 1 452 0
 296 002e 08A8     		add	r0, sp, #32
 297 0030 05AA     		add	r2, sp, #20
 453:Generated_Source\PSoC4/BLE.c ****             
 298              		.loc 1 453 0
 299 0032 06AB     		add	r3, sp, #24
 456:Generated_Source\PSoC4/BLE.c ****                                        CYBLE_SECURE_CONN_FEATURE;
 300              		.loc 1 456 0
 301 0034 0181     		strh	r1, [r0, #8]
 468:Generated_Source\PSoC4/BLE.c ****         #if(CYBLE_LL_PRIVACY_FEATURE_ENABLED)
 302              		.loc 1 468 0
 303 0036 1170     		strb	r1, [r2]
 473:Generated_Source\PSoC4/BLE.c ****             }
 304              		.loc 1 473 0
 305 0038 1631     		adds	r1, r1, #22
 460:Generated_Source\PSoC4/BLE.c ****             dleConfigParams.dleMaxRxCapability = CYBLE_LL_MAX_RX_PAYLOAD_SIZE;
 306              		.loc 1 460 0
 307 003a 1C80     		strh	r4, [r3]
 461:Generated_Source\PSoC4/BLE.c ****             dleConfigParams.dleNumTxBuffer = CYBLE_LL_DEFAULT_NUM_ACL_TX_PACKETS;
 308              		.loc 1 461 0
 309 003c 5C80     		strh	r4, [r3, #2]
 473:Generated_Source\PSoC4/BLE.c ****             }
 310              		.loc 1 473 0
 311 003e 6944     		add	r1, r1, sp
 462:Generated_Source\PSoC4/BLE.c ****         #if(CYBLE_DLE_FEATURE_ENABLED)
 312              		.loc 1 462 0
 313 0040 173C     		subs	r4, r4, #23
 452:Generated_Source\PSoC4/BLE.c ****             stackConfig.dleConfig = &dleConfigParams;
 314              		.loc 1 452 0
 315 0042 4260     		str	r2, [r0, #4]
 453:Generated_Source\PSoC4/BLE.c ****             
 316              		.loc 1 453 0
 317 0044 0893     		str	r3, [sp, #32]
 462:Generated_Source\PSoC4/BLE.c ****         #if(CYBLE_DLE_FEATURE_ENABLED)
 318              		.loc 1 462 0
 319 0046 1C71     		strb	r4, [r3, #4]
 473:Generated_Source\PSoC4/BLE.c ****             }
 320              		.loc 1 473 0
 321 0048 FFF7FEFF 		bl	CyBle_StackSetFeatureConfig
 322              	.LVL31:
 323              	.LBE7:
 476:Generated_Source\PSoC4/BLE.c ****         {
 324              		.loc 1 476 0
 325 004c 0028     		cmp	r0, #0
 326 004e 14D1     		bne	.L28
 485:Generated_Source\PSoC4/BLE.c ****                     CYBLE_STACK_RAM_SIZE - CYBLE_GATT_PREPARE_WRITE_BUFF_LEN, cyBle_stackDataBuff, 
 327              		.loc 1 485 0
 328 0050 0523     		movs	r3, #5
 329 0052 AE22     		movs	r2, #174
 330 0054 0290     		str	r0, [sp, #8]
 331 0056 0190     		str	r0, [sp, #4]
 332 0058 0093     		str	r3, [sp]
 333 005a 1201     		lsls	r2, r2, #4
 334 005c 0BAB     		add	r3, sp, #44
 335 005e 0B49     		ldr	r1, .L30+12
 336 0060 0B48     		ldr	r0, .L30+16
ARM GAS  C:\Users\7709\AppData\Local\Temp\ccDQbrve.s 			page 30


 337              	.LVL32:
 338 0062 FFF7FEFF 		bl	CyBle_StackInit
 339              	.LVL33:
 505:Generated_Source\PSoC4/BLE.c ****             {
 340              		.loc 1 505 0
 341 0066 0028     		cmp	r0, #0
 342 0068 07D1     		bne	.L28
 507:Generated_Source\PSoC4/BLE.c ****                 
 343              		.loc 1 507 0
 344 006a 0122     		movs	r2, #1
 345 006c 094B     		ldr	r3, .L30+20
 514:Generated_Source\PSoC4/BLE.c ****             #endif /* CYBLE_GATT_ROLE_SERVER */
 346              		.loc 1 514 0
 347 006e 1121     		movs	r1, #17
 507:Generated_Source\PSoC4/BLE.c ****                 
 348              		.loc 1 507 0
 349 0070 1A70     		strb	r2, [r3]
 514:Generated_Source\PSoC4/BLE.c ****             #endif /* CYBLE_GATT_ROLE_SERVER */
 350              		.loc 1 514 0
 351 0072 0948     		ldr	r0, .L30+24
 352              	.LVL34:
 353 0074 1332     		adds	r2, r2, #19
 354 0076 FFF7FEFF 		bl	CyBle_GattsDbRegister
 355              	.LVL35:
 356              	.L28:
 525:Generated_Source\PSoC4/BLE.c **** 
 357              		.loc 1 525 0
 358 007a 11B0     		add	sp, sp, #68
 359              		@ sp needed
 360 007c 30BD     		pop	{r4, r5, pc}
 361              	.L31:
 362 007e C046     		.align	2
 363              	.L30:
 364 0080 00000000 		.word	.LANCHOR1
 365 0084 00000000 		.word	.LANCHOR2
 366 0088 00000000 		.word	CyBle_ApplCallback
 367 008c 00000000 		.word	.LANCHOR3
 368 0090 00000000 		.word	CyBle_EventHandler
 369 0094 00000000 		.word	cyBle_state
 370 0098 00000000 		.word	cyBle_gattDB
 371              		.cfi_endproc
 372              	.LFE4:
 373              		.size	CyBle_Start, .-CyBle_Start
 374              		.section	.text.CyBle_Stop,"ax",%progbits
 375              		.align	1
 376              		.global	CyBle_Stop
 377              		.code	16
 378              		.thumb_func
 379              		.type	CyBle_Stop, %function
 380              	CyBle_Stop:
 381              	.LFB5:
 541:Generated_Source\PSoC4/BLE.c ****     CyBle_Shutdown();                         /* Stop all ongoing activities */
 382              		.loc 1 541 0
 383              		.cfi_startproc
 384              		@ args = 0, pretend = 0, frame = 0
 385              		@ frame_needed = 0, uses_anonymous_args = 0
 386 0000 10B5     		push	{r4, lr}
ARM GAS  C:\Users\7709\AppData\Local\Temp\ccDQbrve.s 			page 31


 387              		.cfi_def_cfa_offset 8
 388              		.cfi_offset 4, -8
 389              		.cfi_offset 14, -4
 542:Generated_Source\PSoC4/BLE.c ****     CyBle_SetState(CYBLE_STATE_STOPPED);
 390              		.loc 1 542 0
 391 0002 FFF7FEFF 		bl	CyBle_Shutdown
 392              	.LVL36:
 543:Generated_Source\PSoC4/BLE.c ****     #if(CYBLE_SHARING_MODE_EXPORT)
 393              		.loc 1 543 0
 394 0006 0022     		movs	r2, #0
 395 0008 014B     		ldr	r3, .L33
 550:Generated_Source\PSoC4/BLE.c **** 
 396              		.loc 1 550 0
 397              		@ sp needed
 543:Generated_Source\PSoC4/BLE.c ****     #if(CYBLE_SHARING_MODE_EXPORT)
 398              		.loc 1 543 0
 399 000a 1A70     		strb	r2, [r3]
 550:Generated_Source\PSoC4/BLE.c **** 
 400              		.loc 1 550 0
 401 000c 10BD     		pop	{r4, pc}
 402              	.L34:
 403 000e C046     		.align	2
 404              	.L33:
 405 0010 00000000 		.word	cyBle_state
 406              		.cfi_endproc
 407              	.LFE5:
 408              		.size	CyBle_Stop, .-CyBle_Stop
 409              		.section	.text.CyBle_GappStartAdvertisement,"ax",%progbits
 410              		.align	1
 411              		.global	CyBle_GappStartAdvertisement
 412              		.code	16
 413              		.thumb_func
 414              		.type	CyBle_GappStartAdvertisement, %function
 415              	CyBle_GappStartAdvertisement:
 416              	.LFB6:
 792:Generated_Source\PSoC4/BLE.c ****         CYBLE_API_RESULT_T apiResult;
 417              		.loc 1 792 0
 418              		.cfi_startproc
 419              		@ args = 0, pretend = 0, frame = 0
 420              		@ frame_needed = 0, uses_anonymous_args = 0
 421              	.LVL37:
 422 0000 0200     		movs	r2, r0
 423 0002 10B5     		push	{r4, lr}
 424              		.cfi_def_cfa_offset 8
 425              		.cfi_offset 4, -8
 426              		.cfi_offset 14, -4
 797:Generated_Source\PSoC4/BLE.c ****         }
 427              		.loc 1 797 0
 428 0004 0120     		movs	r0, #1
 429              	.LVL38:
 795:Generated_Source\PSoC4/BLE.c ****         {
 430              		.loc 1 795 0
 431 0006 022A     		cmp	r2, #2
 432 0008 2FD8     		bhi	.L36
 799:Generated_Source\PSoC4/BLE.c ****         {   
 433              		.loc 1 799 0
 434 000a 184B     		ldr	r3, .L43
ARM GAS  C:\Users\7709\AppData\Local\Temp\ccDQbrve.s 			page 32


 435 000c 1B78     		ldrb	r3, [r3]
 436 000e 042B     		cmp	r3, #4
 437 0010 29D1     		bne	.L41
 799:Generated_Source\PSoC4/BLE.c ****         {   
 438              		.loc 1 799 0 is_stmt 0 discriminator 1
 439 0012 174C     		ldr	r4, .L43+4
 440 0014 2178     		ldrb	r1, [r4]
 441 0016 1942     		tst	r1, r3
 442 0018 25D1     		bne	.L41
 443 001a 164B     		ldr	r3, .L43+8
 801:Generated_Source\PSoC4/BLE.c ****             {
 444              		.loc 1 801 0 is_stmt 1
 445 001c 002A     		cmp	r2, #0
 446 001e 08D1     		bne	.L37
 803:Generated_Source\PSoC4/BLE.c ****                 cyBle_discoveryModeInfo.advParam->advIntvMin = CYBLE_FAST_ADV_INT_MIN;
 447              		.loc 1 803 0
 448 0020 1900     		movs	r1, r3
 449 0022 0930     		adds	r0, r0, #9
 450 0024 5031     		adds	r1, r1, #80
 451 0026 0880     		strh	r0, [r1]
 804:Generated_Source\PSoC4/BLE.c ****                 cyBle_discoveryModeInfo.advParam->advIntvMax = CYBLE_FAST_ADV_INT_MAX;
 452              		.loc 1 804 0
 453 0028 596C     		ldr	r1, [r3, #68]
 454 002a 1630     		adds	r0, r0, #22
 455 002c 0880     		strh	r0, [r1]
 805:Generated_Source\PSoC4/BLE.c ****             }
 456              		.loc 1 805 0
 457 002e 8030     		adds	r0, r0, #128
 458 0030 0BE0     		b	.L42
 459              	.L37:
 807:Generated_Source\PSoC4/BLE.c ****             {
 460              		.loc 1 807 0
 461 0032 012A     		cmp	r2, #1
 462 0034 0AD1     		bne	.L38
 809:Generated_Source\PSoC4/BLE.c ****                 cyBle_discoveryModeInfo.advParam->advIntvMin = CYBLE_SLOW_ADV_INT_MIN;
 463              		.loc 1 809 0
 464 0036 1900     		movs	r1, r3
 465 0038 9620     		movs	r0, #150
 466 003a 5031     		adds	r1, r1, #80
 467 003c 0880     		strh	r0, [r1]
 810:Generated_Source\PSoC4/BLE.c ****                 cyBle_discoveryModeInfo.advParam->advIntvMax = CYBLE_SLOW_ADV_INT_MAX;
 468              		.loc 1 810 0
 469 003e C820     		movs	r0, #200
 470 0040 596C     		ldr	r1, [r3, #68]
 471 0042 C000     		lsls	r0, r0, #3
 472 0044 0880     		strh	r0, [r1]
 811:Generated_Source\PSoC4/BLE.c ****             }       
 473              		.loc 1 811 0
 474 0046 8020     		movs	r0, #128
 475 0048 C001     		lsls	r0, r0, #7
 476              	.L42:
 477 004a 4880     		strh	r0, [r1, #2]
 478              	.L38:
 816:Generated_Source\PSoC4/BLE.c ****             apiResult = CyBle_GappEnterDiscoveryMode(&cyBle_discoveryModeInfo);
 479              		.loc 1 816 0
 480 004c 0A49     		ldr	r1, .L43+12
 817:Generated_Source\PSoC4/BLE.c ****         
ARM GAS  C:\Users\7709\AppData\Local\Temp\ccDQbrve.s 			page 33


 481              		.loc 1 817 0
 482 004e 4033     		adds	r3, r3, #64
 483 0050 1800     		movs	r0, r3
 816:Generated_Source\PSoC4/BLE.c ****             apiResult = CyBle_GappEnterDiscoveryMode(&cyBle_discoveryModeInfo);
 484              		.loc 1 816 0
 485 0052 0A70     		strb	r2, [r1]
 817:Generated_Source\PSoC4/BLE.c ****         
 486              		.loc 1 817 0
 487 0054 FFF7FEFF 		bl	CyBle_GappEnterDiscoveryMode
 488              	.LVL39:
 819:Generated_Source\PSoC4/BLE.c ****             {
 489              		.loc 1 819 0
 490 0058 0028     		cmp	r0, #0
 491 005a 06D1     		bne	.L36
 821:Generated_Source\PSoC4/BLE.c ****             }
 492              		.loc 1 821 0
 493 005c 0422     		movs	r2, #4
 494 005e 2378     		ldrb	r3, [r4]
 495 0060 1343     		orrs	r3, r2
 496 0062 2370     		strb	r3, [r4]
 497 0064 01E0     		b	.L36
 498              	.LVL40:
 499              	.L41:
 826:Generated_Source\PSoC4/BLE.c ****         }
 500              		.loc 1 826 0
 501 0066 0420     		movs	r0, #4
 502 0068 FF30     		adds	r0, r0, #255
 503              	.L36:
 504              	.LVL41:
 830:Generated_Source\PSoC4/BLE.c **** 
 505              		.loc 1 830 0
 506              		@ sp needed
 507 006a 10BD     		pop	{r4, pc}
 508              	.L44:
 509              		.align	2
 510              	.L43:
 511 006c 00000000 		.word	cyBle_state
 512 0070 00000000 		.word	cyBle_eventHandlerFlag
 513 0074 00000000 		.word	.LANCHOR0
 514 0078 00000000 		.word	cyBle_advertisingIntervalType
 515              		.cfi_endproc
 516              	.LFE6:
 517              		.size	CyBle_GappStartAdvertisement, .-CyBle_GappStartAdvertisement
 518              		.section	.text.CyBle_GappStopAdvertisement,"ax",%progbits
 519              		.align	1
 520              		.global	CyBle_GappStopAdvertisement
 521              		.code	16
 522              		.thumb_func
 523              		.type	CyBle_GappStopAdvertisement, %function
 524              	CyBle_GappStopAdvertisement:
 525              	.LFB7:
 853:Generated_Source\PSoC4/BLE.c ****         CyBle_GappExitDiscoveryMode();
 526              		.loc 1 853 0
 527              		.cfi_startproc
 528              		@ args = 0, pretend = 0, frame = 0
 529              		@ frame_needed = 0, uses_anonymous_args = 0
 530 0000 10B5     		push	{r4, lr}
ARM GAS  C:\Users\7709\AppData\Local\Temp\ccDQbrve.s 			page 34


 531              		.cfi_def_cfa_offset 8
 532              		.cfi_offset 4, -8
 533              		.cfi_offset 14, -4
 854:Generated_Source\PSoC4/BLE.c ****         cyBle_eventHandlerFlag |= CYBLE_STOP_FLAG;
 534              		.loc 1 854 0
 535 0002 FFF7FEFF 		bl	CyBle_GappExitDiscoveryMode
 536              	.LVL42:
 855:Generated_Source\PSoC4/BLE.c ****     }
 537              		.loc 1 855 0
 538 0006 0821     		movs	r1, #8
 539 0008 024A     		ldr	r2, .L46
 856:Generated_Source\PSoC4/BLE.c ****     
 540              		.loc 1 856 0
 541              		@ sp needed
 855:Generated_Source\PSoC4/BLE.c ****     }
 542              		.loc 1 855 0
 543 000a 1378     		ldrb	r3, [r2]
 544 000c 0B43     		orrs	r3, r1
 545 000e 1370     		strb	r3, [r2]
 856:Generated_Source\PSoC4/BLE.c ****     
 546              		.loc 1 856 0
 547 0010 10BD     		pop	{r4, pc}
 548              	.L47:
 549 0012 C046     		.align	2
 550              	.L46:
 551 0014 00000000 		.word	cyBle_eventHandlerFlag
 552              		.cfi_endproc
 553              	.LFE7:
 554              		.size	CyBle_GappStopAdvertisement, .-CyBle_GappStopAdvertisement
 555              		.section	.text.CyBle_ChangeAdDeviceAddress,"ax",%progbits
 556              		.align	1
 557              		.global	CyBle_ChangeAdDeviceAddress
 558              		.code	16
 559              		.thumb_func
 560              		.type	CyBle_ChangeAdDeviceAddress, %function
 561              	CyBle_ChangeAdDeviceAddress:
 562              	.LFB8:
 875:Generated_Source\PSoC4/BLE.c ****         uint8 i;
 563              		.loc 1 875 0
 564              		.cfi_startproc
 565              		@ args = 0, pretend = 0, frame = 0
 566              		@ frame_needed = 0, uses_anonymous_args = 0
 567              		@ link register save eliminated.
 568              	.LVL43:
 902:Generated_Source\PSoC4/BLE.c ****   
 569              		.loc 1 902 0
 570              		@ sp needed
 571 0000 7047     		bx	lr
 572              		.cfi_endproc
 573              	.LFE8:
 574              		.size	CyBle_ChangeAdDeviceAddress, .-CyBle_ChangeAdDeviceAddress
 575              		.section	.text.CyBle_GapSetLocalName,"ax",%progbits
 576              		.align	1
 577              		.global	CyBle_GapSetLocalName
 578              		.code	16
 579              		.thumb_func
 580              		.type	CyBle_GapSetLocalName, %function
ARM GAS  C:\Users\7709\AppData\Local\Temp\ccDQbrve.s 			page 35


 581              	CyBle_GapSetLocalName:
 582              	.LFB10:
1264:Generated_Source\PSoC4/BLE.c ****         
1265:Generated_Source\PSoC4/BLE.c **** #endif /* (CYBLE_GAP_ROLE_PERIPHERAL) */  
1266:Generated_Source\PSoC4/BLE.c ****     
1267:Generated_Source\PSoC4/BLE.c ****     
1268:Generated_Source\PSoC4/BLE.c ****     /******************************************************************************
1269:Generated_Source\PSoC4/BLE.c ****     * Function Name: CyBle_GapSetLocalName
1270:Generated_Source\PSoC4/BLE.c ****     ***************************************************************************//**
1271:Generated_Source\PSoC4/BLE.c ****     *  This function is used to set the local device name - a Characteristic of the 
1272:Generated_Source\PSoC4/BLE.c ****     *  GAP Service. If the characteristic length entered in the component customizer
1273:Generated_Source\PSoC4/BLE.c ****     *  is shorter than the string specified by the "name" parameter, the local device
1274:Generated_Source\PSoC4/BLE.c ****     *  name will be cut to the length specified in the customizer.
1275:Generated_Source\PSoC4/BLE.c ****     * 
1276:Generated_Source\PSoC4/BLE.c ****     *  \param name: The local device name string. The name string to be written as
1277:Generated_Source\PSoC4/BLE.c ****     *              the local device name. It represents a UTF-8 encoded User
1278:Generated_Source\PSoC4/BLE.c ****     *              Friendly Descriptive Name for the device. The length of the local
1279:Generated_Source\PSoC4/BLE.c ****     *              device string is entered into the component customizer and it can
1280:Generated_Source\PSoC4/BLE.c ****     *              be set to a value from 0 to 248 bytes. If the name contained in
1281:Generated_Source\PSoC4/BLE.c ****     *              the parameter is shorter than the length from the customizer, the
1282:Generated_Source\PSoC4/BLE.c ****     *              end of the name is indicated by a NULL octet (0x00).
1283:Generated_Source\PSoC4/BLE.c ****     * 
1284:Generated_Source\PSoC4/BLE.c ****     * \return
1285:Generated_Source\PSoC4/BLE.c ****     *  CYBLE_API_RESULT_T : Return value indicates if the function succeeded or 
1286:Generated_Source\PSoC4/BLE.c ****     *  failed. Following are the possible error codes.
1287:Generated_Source\PSoC4/BLE.c ****     *
1288:Generated_Source\PSoC4/BLE.c ****     *   Errors codes                       | Description
1289:Generated_Source\PSoC4/BLE.c ****     *   ------------                       | -----------
1290:Generated_Source\PSoC4/BLE.c ****     *   CYBLE_ERROR_OK                     | Function completed successfully.
1291:Generated_Source\PSoC4/BLE.c ****     *   CYBLE_ERROR_INVALID_PARAMETER      | On specifying NULL as input parameter
1292:Generated_Source\PSoC4/BLE.c ****     *  
1293:Generated_Source\PSoC4/BLE.c ****     *******************************************************************************/
1294:Generated_Source\PSoC4/BLE.c ****     CYBLE_API_RESULT_T CyBle_GapSetLocalName(const char8 name[])
1295:Generated_Source\PSoC4/BLE.c ****     {
 583              		.loc 1 1295 0
 584              		.cfi_startproc
 585              		@ args = 0, pretend = 0, frame = 0
 586              		@ frame_needed = 0, uses_anonymous_args = 0
 587              	.LVL44:
 588 0000 10B5     		push	{r4, lr}
 589              		.cfi_def_cfa_offset 8
 590              		.cfi_offset 4, -8
 591              		.cfi_offset 14, -4
 592              		.loc 1 1295 0
 593 0002 0400     		movs	r4, r0
1296:Generated_Source\PSoC4/BLE.c ****         CYBLE_API_RESULT_T apiResult = CYBLE_ERROR_OK;
1297:Generated_Source\PSoC4/BLE.c ****         uint8 i;
1298:Generated_Source\PSoC4/BLE.c ****         char8 *ptr;
1299:Generated_Source\PSoC4/BLE.c ****         uint8 charLen;
1300:Generated_Source\PSoC4/BLE.c **** 
1301:Generated_Source\PSoC4/BLE.c ****         if(NULL != name)
1302:Generated_Source\PSoC4/BLE.c ****         {
1303:Generated_Source\PSoC4/BLE.c ****             /* Get the pointer to the Device Name characteristic  */
1304:Generated_Source\PSoC4/BLE.c ****             ptr = (char8 *) CYBLE_GATT_DB_ATTR_GET_ATTR_GEN_PTR(cyBle_gaps.deviceNameCharHandle);
1305:Generated_Source\PSoC4/BLE.c **** 
1306:Generated_Source\PSoC4/BLE.c ****             /* First need to get the maximum length of the characteristic data in the GATT
1307:Generated_Source\PSoC4/BLE.c ****                 database to make sure there is enough place for the data. The length
ARM GAS  C:\Users\7709\AppData\Local\Temp\ccDQbrve.s 			page 36


1308:Generated_Source\PSoC4/BLE.c ****                 can't be longer than 248, so only the LSB of 16 bit of length is to
1309:Generated_Source\PSoC4/BLE.c ****                 be used. */
1310:Generated_Source\PSoC4/BLE.c ****             charLen = (uint8)CYBLE_GATT_DB_ATTR_GET_ATTR_GEN_MAX_LEN(cyBle_gaps.deviceNameCharHandl
1311:Generated_Source\PSoC4/BLE.c **** 
1312:Generated_Source\PSoC4/BLE.c ****             /* Copy name into characteristic */
1313:Generated_Source\PSoC4/BLE.c ****             for(i = 0u; ((i < charLen) && (CYBLE_NULL_CHARCTER != name[i])); i++)
1314:Generated_Source\PSoC4/BLE.c ****             {
1315:Generated_Source\PSoC4/BLE.c ****                 ptr[i] = name[i];
1316:Generated_Source\PSoC4/BLE.c ****             }
1317:Generated_Source\PSoC4/BLE.c **** 
1318:Generated_Source\PSoC4/BLE.c ****             if(i < charLen)
1319:Generated_Source\PSoC4/BLE.c ****             {
1320:Generated_Source\PSoC4/BLE.c ****                 /* Terminate string */
1321:Generated_Source\PSoC4/BLE.c ****                 ptr[i] = CYBLE_NULL_CHARCTER;
1322:Generated_Source\PSoC4/BLE.c ****             }
1323:Generated_Source\PSoC4/BLE.c ****             
1324:Generated_Source\PSoC4/BLE.c ****             /* Set new actual length */
1325:Generated_Source\PSoC4/BLE.c ****             
1326:Generated_Source\PSoC4/BLE.c ****             /* Update device name in advertising and scan response structure */
1327:Generated_Source\PSoC4/BLE.c ****             #if(CYBLE_GAP_ROLE_PERIPHERAL)
1328:Generated_Source\PSoC4/BLE.c ****                 CyBle_ChangeAdLocalName(name, 0u);
1329:Generated_Source\PSoC4/BLE.c ****                 CyBle_ChangeAdLocalName(name, 1u);
1330:Generated_Source\PSoC4/BLE.c ****             #endif /* (CYBLE_GAP_ROLE_PERIPHERAL) */
1331:Generated_Source\PSoC4/BLE.c ****         }
1332:Generated_Source\PSoC4/BLE.c ****         else
1333:Generated_Source\PSoC4/BLE.c ****         {
1334:Generated_Source\PSoC4/BLE.c ****             apiResult = CYBLE_ERROR_INVALID_PARAMETER;
 594              		.loc 1 1334 0
 595 0004 0120     		movs	r0, #1
 596              	.LVL45:
1301:Generated_Source\PSoC4/BLE.c ****         {
 597              		.loc 1 1301 0
 598 0006 002C     		cmp	r4, #0
 599 0008 1CD0     		beq	.L50
1304:Generated_Source\PSoC4/BLE.c **** 
 600              		.loc 1 1304 0
 601 000a 1422     		movs	r2, #20
 602 000c 0E4B     		ldr	r3, .L55
 603 000e 5B88     		ldrh	r3, [r3, #2]
 604 0010 013B     		subs	r3, r3, #1
 605 0012 5343     		muls	r3, r2
 606 0014 0D4A     		ldr	r2, .L55+4
 607 0016 D318     		adds	r3, r2, r3
 608 0018 1A69     		ldr	r2, [r3, #16]
1310:Generated_Source\PSoC4/BLE.c **** 
 609              		.loc 1 1310 0
 610 001a 187B     		ldrb	r0, [r3, #12]
1313:Generated_Source\PSoC4/BLE.c ****             {
 611              		.loc 1 1313 0
 612 001c 0023     		movs	r3, #0
1304:Generated_Source\PSoC4/BLE.c **** 
 613              		.loc 1 1304 0
 614 001e 5168     		ldr	r1, [r2, #4]
 615              	.LVL46:
 616              	.L51:
1313:Generated_Source\PSoC4/BLE.c ****             {
 617              		.loc 1 1313 0 discriminator 1
ARM GAS  C:\Users\7709\AppData\Local\Temp\ccDQbrve.s 			page 37


 618 0020 DAB2     		uxtb	r2, r3
 619 0022 9042     		cmp	r0, r2
 620 0024 05D9     		bls	.L52
1313:Generated_Source\PSoC4/BLE.c ****             {
 621              		.loc 1 1313 0 is_stmt 0 discriminator 3
 622 0026 E25C     		ldrb	r2, [r4, r3]
1315:Generated_Source\PSoC4/BLE.c ****             }
 623              		.loc 1 1315 0 is_stmt 1 discriminator 3
 624 0028 CA54     		strb	r2, [r1, r3]
1313:Generated_Source\PSoC4/BLE.c ****             {
 625              		.loc 1 1313 0 discriminator 3
 626 002a 002A     		cmp	r2, #0
 627 002c 01D0     		beq	.L52
 628              	.LVL47:
 629 002e 0133     		adds	r3, r3, #1
 630              	.LVL48:
 631 0030 F6E7     		b	.L51
 632              	.LVL49:
 633              	.L52:
1328:Generated_Source\PSoC4/BLE.c ****                 CyBle_ChangeAdLocalName(name, 1u);
 634              		.loc 1 1328 0
 635 0032 0021     		movs	r1, #0
 636              	.LVL50:
 637 0034 2000     		movs	r0, r4
 638              	.LVL51:
 639 0036 FFF7FEFF 		bl	CyBle_ChangeAdLocalName
 640              	.LVL52:
1329:Generated_Source\PSoC4/BLE.c ****             #endif /* (CYBLE_GAP_ROLE_PERIPHERAL) */
 641              		.loc 1 1329 0
 642 003a 2000     		movs	r0, r4
 643 003c 0121     		movs	r1, #1
 644 003e FFF7FEFF 		bl	CyBle_ChangeAdLocalName
 645              	.LVL53:
1296:Generated_Source\PSoC4/BLE.c ****         uint8 i;
 646              		.loc 1 1296 0
 647 0042 0020     		movs	r0, #0
 648              	.L50:
 649              	.LVL54:
1335:Generated_Source\PSoC4/BLE.c ****         }
1336:Generated_Source\PSoC4/BLE.c ****         
1337:Generated_Source\PSoC4/BLE.c ****         return(apiResult);
1338:Generated_Source\PSoC4/BLE.c ****     }
 650              		.loc 1 1338 0
 651              		@ sp needed
 652              	.LVL55:
 653 0044 10BD     		pop	{r4, pc}
 654              	.L56:
 655 0046 C046     		.align	2
 656              	.L55:
 657 0048 00000000 		.word	cyBle_gaps
 658 004c 00000000 		.word	cyBle_gattDB
 659              		.cfi_endproc
 660              	.LFE10:
 661              		.size	CyBle_GapSetLocalName, .-CyBle_GapSetLocalName
 662              		.section	.text.CyBle_GapGetLocalName,"ax",%progbits
 663              		.align	1
 664              		.global	CyBle_GapGetLocalName
ARM GAS  C:\Users\7709\AppData\Local\Temp\ccDQbrve.s 			page 38


 665              		.code	16
 666              		.thumb_func
 667              		.type	CyBle_GapGetLocalName, %function
 668              	CyBle_GapGetLocalName:
 669              	.LFB11:
1339:Generated_Source\PSoC4/BLE.c **** 
1340:Generated_Source\PSoC4/BLE.c **** 
1341:Generated_Source\PSoC4/BLE.c ****     /******************************************************************************
1342:Generated_Source\PSoC4/BLE.c ****     * Function Name: CyBle_GapGetLocalName
1343:Generated_Source\PSoC4/BLE.c ****     ***************************************************************************//**
1344:Generated_Source\PSoC4/BLE.c ****     *  
1345:Generated_Source\PSoC4/BLE.c ****     *  This function is used to read the local device name - a Characteristic of the 
1346:Generated_Source\PSoC4/BLE.c ****     *  GAP Service.
1347:Generated_Source\PSoC4/BLE.c ****     * 
1348:Generated_Source\PSoC4/BLE.c ****     * \param name: The local device name string. Used to read the local name to the
1349:Generated_Source\PSoC4/BLE.c ****     *             given string array. It represents a UTF-8 encoded User Friendly 
1350:Generated_Source\PSoC4/BLE.c ****     *             Descriptive Name for the device. The length of the local device
1351:Generated_Source\PSoC4/BLE.c ****     *             string is entered into the component customizer and it can be set
1352:Generated_Source\PSoC4/BLE.c ****     *             to a value from 0 to 248 bytes. If the name contained in the
1353:Generated_Source\PSoC4/BLE.c ****     *             parameter is shorter than the length from the customizer, the end
1354:Generated_Source\PSoC4/BLE.c ****     *             of the name is indicated by a NULL octet (0x00).
1355:Generated_Source\PSoC4/BLE.c ****     * 
1356:Generated_Source\PSoC4/BLE.c ****     * \return
1357:Generated_Source\PSoC4/BLE.c ****     *  CYBLE_API_RESULT_T : Return value indicates if the function succeeded or 
1358:Generated_Source\PSoC4/BLE.c ****     *  failed. Following are the possible error codes.
1359:Generated_Source\PSoC4/BLE.c ****     *
1360:Generated_Source\PSoC4/BLE.c ****     *   Errors codes                       | Description
1361:Generated_Source\PSoC4/BLE.c ****     *   ------------                       | -----------
1362:Generated_Source\PSoC4/BLE.c ****     *   CYBLE_ERROR_OK                     | Function completed successfully.
1363:Generated_Source\PSoC4/BLE.c ****     *   CYBLE_ERROR_INVALID_PARAMETER      | On specifying NULL as input parameter
1364:Generated_Source\PSoC4/BLE.c ****     *
1365:Generated_Source\PSoC4/BLE.c ****     *******************************************************************************/
1366:Generated_Source\PSoC4/BLE.c ****     CYBLE_API_RESULT_T CyBle_GapGetLocalName(char8 name[])
1367:Generated_Source\PSoC4/BLE.c ****     {
 670              		.loc 1 1367 0
 671              		.cfi_startproc
 672              		@ args = 0, pretend = 0, frame = 0
 673              		@ frame_needed = 0, uses_anonymous_args = 0
 674              	.LVL56:
 675 0000 0100     		movs	r1, r0
 676 0002 10B5     		push	{r4, lr}
 677              		.cfi_def_cfa_offset 8
 678              		.cfi_offset 4, -8
 679              		.cfi_offset 14, -4
1368:Generated_Source\PSoC4/BLE.c ****         CYBLE_API_RESULT_T apiResult = CYBLE_ERROR_OK;
1369:Generated_Source\PSoC4/BLE.c ****         uint8 charLen;
1370:Generated_Source\PSoC4/BLE.c ****         uint8 i;
1371:Generated_Source\PSoC4/BLE.c ****         char8 *ptr;
1372:Generated_Source\PSoC4/BLE.c **** 
1373:Generated_Source\PSoC4/BLE.c ****         if(NULL != name)
1374:Generated_Source\PSoC4/BLE.c ****         {
1375:Generated_Source\PSoC4/BLE.c ****             /* Get the pointer to the Device Name characteristic  */
1376:Generated_Source\PSoC4/BLE.c ****             ptr = (char8 *) CYBLE_GATT_DB_ATTR_GET_ATTR_GEN_PTR(cyBle_gaps.deviceNameCharHandle);
1377:Generated_Source\PSoC4/BLE.c **** 
1378:Generated_Source\PSoC4/BLE.c ****             /* First need to get the length of the characteristic data in the GATT
1379:Generated_Source\PSoC4/BLE.c ****                 database to make sure there is enough place for the data. The length
1380:Generated_Source\PSoC4/BLE.c ****                 can't be longer than 248, so only the LSB of 16 bit of length is to
ARM GAS  C:\Users\7709\AppData\Local\Temp\ccDQbrve.s 			page 39


1381:Generated_Source\PSoC4/BLE.c ****                 be used. */
1382:Generated_Source\PSoC4/BLE.c ****             charLen = (uint8)CYBLE_GATT_DB_ATTR_GET_ATTR_GEN_LEN(cyBle_gaps.deviceNameCharHandle);
1383:Generated_Source\PSoC4/BLE.c **** 
1384:Generated_Source\PSoC4/BLE.c ****             /* Copy name from characteristic */
1385:Generated_Source\PSoC4/BLE.c ****             for(i = 0u; ((i < charLen) && (CYBLE_NULL_CHARCTER != ptr[i])); i++)
1386:Generated_Source\PSoC4/BLE.c ****             {
1387:Generated_Source\PSoC4/BLE.c ****                 name[i] = ptr[i];
1388:Generated_Source\PSoC4/BLE.c ****             }
1389:Generated_Source\PSoC4/BLE.c **** 
1390:Generated_Source\PSoC4/BLE.c ****             /* Terminate string */
1391:Generated_Source\PSoC4/BLE.c ****             name[i] = CYBLE_NULL_CHARCTER;
1392:Generated_Source\PSoC4/BLE.c ****         }
1393:Generated_Source\PSoC4/BLE.c ****         else
1394:Generated_Source\PSoC4/BLE.c ****         {
1395:Generated_Source\PSoC4/BLE.c ****             apiResult = CYBLE_ERROR_INVALID_PARAMETER;
 680              		.loc 1 1395 0
 681 0004 0120     		movs	r0, #1
 682              	.LVL57:
1373:Generated_Source\PSoC4/BLE.c ****         {
 683              		.loc 1 1373 0
 684 0006 0029     		cmp	r1, #0
 685 0008 18D0     		beq	.L58
1376:Generated_Source\PSoC4/BLE.c **** 
 686              		.loc 1 1376 0
 687 000a 1422     		movs	r2, #20
 688 000c 0C4B     		ldr	r3, .L64
 689 000e 5B88     		ldrh	r3, [r3, #2]
 690 0010 013B     		subs	r3, r3, #1
 691 0012 5343     		muls	r3, r2
 692 0014 0B4A     		ldr	r2, .L64+4
 693 0016 D318     		adds	r3, r2, r3
 694 0018 1B69     		ldr	r3, [r3, #16]
 695 001a 5868     		ldr	r0, [r3, #4]
 696              	.LVL58:
1382:Generated_Source\PSoC4/BLE.c **** 
 697              		.loc 1 1382 0
 698 001c 1C78     		ldrb	r4, [r3]
 699              	.LVL59:
1385:Generated_Source\PSoC4/BLE.c ****             {
 700              		.loc 1 1385 0
 701 001e 0023     		movs	r3, #0
 702              	.LVL60:
 703              	.L59:
1385:Generated_Source\PSoC4/BLE.c ****             {
 704              		.loc 1 1385 0 is_stmt 0 discriminator 1
 705 0020 DAB2     		uxtb	r2, r3
 706 0022 A242     		cmp	r2, r4
 707 0024 04D3     		bcc	.L60
 708              	.L62:
1391:Generated_Source\PSoC4/BLE.c ****         }
 709              		.loc 1 1391 0 is_stmt 1
 710 0026 0022     		movs	r2, #0
 711 0028 DBB2     		uxtb	r3, r3
 712 002a CA54     		strb	r2, [r1, r3]
1368:Generated_Source\PSoC4/BLE.c ****         uint8 charLen;
 713              		.loc 1 1368 0
 714 002c 1000     		movs	r0, r2
ARM GAS  C:\Users\7709\AppData\Local\Temp\ccDQbrve.s 			page 40


 715              	.LVL61:
 716 002e 05E0     		b	.L58
 717              	.LVL62:
 718              	.L60:
1385:Generated_Source\PSoC4/BLE.c ****             {
 719              		.loc 1 1385 0 discriminator 3
 720 0030 C25C     		ldrb	r2, [r0, r3]
 721 0032 002A     		cmp	r2, #0
 722 0034 F7D0     		beq	.L62
1387:Generated_Source\PSoC4/BLE.c ****             }
 723              		.loc 1 1387 0 discriminator 4
 724 0036 CA54     		strb	r2, [r1, r3]
 725              	.LVL63:
 726 0038 0133     		adds	r3, r3, #1
 727              	.LVL64:
 728 003a F1E7     		b	.L59
 729              	.LVL65:
 730              	.L58:
1396:Generated_Source\PSoC4/BLE.c ****         }
1397:Generated_Source\PSoC4/BLE.c ****         
1398:Generated_Source\PSoC4/BLE.c ****         return(apiResult);
1399:Generated_Source\PSoC4/BLE.c ****     }
 731              		.loc 1 1399 0
 732              		@ sp needed
 733 003c 10BD     		pop	{r4, pc}
 734              	.L65:
 735 003e C046     		.align	2
 736              	.L64:
 737 0040 00000000 		.word	cyBle_gaps
 738 0044 00000000 		.word	cyBle_gattDB
 739              		.cfi_endproc
 740              	.LFE11:
 741              		.size	CyBle_GapGetLocalName, .-CyBle_GapGetLocalName
 742              		.section	.text.CyBle_Get16ByPtr,"ax",%progbits
 743              		.align	1
 744              		.global	CyBle_Get16ByPtr
 745              		.code	16
 746              		.thumb_func
 747              		.type	CyBle_Get16ByPtr, %function
 748              	CyBle_Get16ByPtr:
 749              	.LFB12:
1400:Generated_Source\PSoC4/BLE.c **** 
1401:Generated_Source\PSoC4/BLE.c **** #endif /* (CYBLE_GATT_ROLE_SERVER) */
1402:Generated_Source\PSoC4/BLE.c **** 
1403:Generated_Source\PSoC4/BLE.c **** 
1404:Generated_Source\PSoC4/BLE.c **** /******************************************************************************
1405:Generated_Source\PSoC4/BLE.c **** * Function Name: CyBle_Get16ByPtr
1406:Generated_Source\PSoC4/BLE.c **** ***************************************************************************//**
1407:Generated_Source\PSoC4/BLE.c **** * 
1408:Generated_Source\PSoC4/BLE.c **** *  Returns the two-bytes value by using a pointer to the LSB.
1409:Generated_Source\PSoC4/BLE.c **** * 
1410:Generated_Source\PSoC4/BLE.c **** *  \param ptr: Pointer to the LSB of two-bytes data (little endian).
1411:Generated_Source\PSoC4/BLE.c **** * 
1412:Generated_Source\PSoC4/BLE.c **** *  \return
1413:Generated_Source\PSoC4/BLE.c **** *  uint16: Two-bytes data.
1414:Generated_Source\PSoC4/BLE.c **** * 
1415:Generated_Source\PSoC4/BLE.c **** ******************************************************************************/
ARM GAS  C:\Users\7709\AppData\Local\Temp\ccDQbrve.s 			page 41


1416:Generated_Source\PSoC4/BLE.c **** uint16 CyBle_Get16ByPtr(const uint8 ptr[])
1417:Generated_Source\PSoC4/BLE.c **** {
 750              		.loc 1 1417 0
 751              		.cfi_startproc
 752              		@ args = 0, pretend = 0, frame = 0
 753              		@ frame_needed = 0, uses_anonymous_args = 0
 754              		@ link register save eliminated.
 755              	.LVL66:
1418:Generated_Source\PSoC4/BLE.c ****     return ((uint16) ptr[0u] | ((uint16) (((uint16) ptr[1u]) << 8u)));
 756              		.loc 1 1418 0
 757 0000 0378     		ldrb	r3, [r0]
 758 0002 4078     		ldrb	r0, [r0, #1]
 759              	.LVL67:
1419:Generated_Source\PSoC4/BLE.c **** }
 760              		.loc 1 1419 0
 761              		@ sp needed
1418:Generated_Source\PSoC4/BLE.c ****     return ((uint16) ptr[0u] | ((uint16) (((uint16) ptr[1u]) << 8u)));
 762              		.loc 1 1418 0
 763 0004 0002     		lsls	r0, r0, #8
 764 0006 1843     		orrs	r0, r3
 765              		.loc 1 1419 0
 766 0008 7047     		bx	lr
 767              		.cfi_endproc
 768              	.LFE12:
 769              		.size	CyBle_Get16ByPtr, .-CyBle_Get16ByPtr
 770              		.section	.text.CyBle_Set16ByPtr,"ax",%progbits
 771              		.align	1
 772              		.global	CyBle_Set16ByPtr
 773              		.code	16
 774              		.thumb_func
 775              		.type	CyBle_Set16ByPtr, %function
 776              	CyBle_Set16ByPtr:
 777              	.LFB13:
1420:Generated_Source\PSoC4/BLE.c **** 
1421:Generated_Source\PSoC4/BLE.c **** 
1422:Generated_Source\PSoC4/BLE.c **** /******************************************************************************
1423:Generated_Source\PSoC4/BLE.c **** * Function Name: CyBle_Set16ByPtr
1424:Generated_Source\PSoC4/BLE.c **** ***************************************************************************//**
1425:Generated_Source\PSoC4/BLE.c **** * 
1426:Generated_Source\PSoC4/BLE.c **** *  Sets the two-bytes value by using a pointer to the LSB.
1427:Generated_Source\PSoC4/BLE.c **** * 
1428:Generated_Source\PSoC4/BLE.c **** *  \param ptr:    Pointer to the LSB of two-bytes data (little endian).
1429:Generated_Source\PSoC4/BLE.c **** *  \param value:  Two-bytes data to be written.
1430:Generated_Source\PSoC4/BLE.c **** * 
1431:Generated_Source\PSoC4/BLE.c **** *  \return
1432:Generated_Source\PSoC4/BLE.c **** *  None
1433:Generated_Source\PSoC4/BLE.c **** * 
1434:Generated_Source\PSoC4/BLE.c **** ******************************************************************************/
1435:Generated_Source\PSoC4/BLE.c **** void CyBle_Set16ByPtr(uint8 ptr[], uint16 value)
1436:Generated_Source\PSoC4/BLE.c **** {
 778              		.loc 1 1436 0
 779              		.cfi_startproc
 780              		@ args = 0, pretend = 0, frame = 0
 781              		@ frame_needed = 0, uses_anonymous_args = 0
 782              		@ link register save eliminated.
 783              	.LVL68:
1437:Generated_Source\PSoC4/BLE.c ****     ptr[0u] = (uint8) value;
ARM GAS  C:\Users\7709\AppData\Local\Temp\ccDQbrve.s 			page 42


 784              		.loc 1 1437 0
 785 0000 0170     		strb	r1, [r0]
1438:Generated_Source\PSoC4/BLE.c ****     ptr[1u] = (uint8) (value >> 8u);
 786              		.loc 1 1438 0
 787 0002 090A     		lsrs	r1, r1, #8
 788              	.LVL69:
 789 0004 4170     		strb	r1, [r0, #1]
1439:Generated_Source\PSoC4/BLE.c **** }
 790              		.loc 1 1439 0
 791              		@ sp needed
 792 0006 7047     		bx	lr
 793              		.cfi_endproc
 794              	.LFE13:
 795              		.size	CyBle_Set16ByPtr, .-CyBle_Set16ByPtr
 796              		.global	cyBle_sflashDeviceAddress
 797              		.global	cyBle_deviceAddress
 798              		.comm	CyBle_ApplCallback,4,4
 799              		.global	cyBle_discoveryModeInfo
 800              		.global	cyBle_scanRspData
 801              		.global	cyBle_discoveryData
 802              		.global	cyBle_discoveryParam
 803              		.global	cyBle_stackMemoryRam
 804              		.global	cyBle_initVar
 805              		.section	.rodata
 806              		.align	1
 807              		.set	.LANCHOR1,. + 0
 808              	.LC0:
 809 0000 2400     		.short	36
 810 0002 03       		.byte	3
 811 0003 00       		.space	1
 812 0004 3000     		.short	48
 813 0006 01       		.byte	1
 814 0007 00       		.space	1
 815 0008 2800     		.short	40
 816 000a 02       		.byte	2
 817 000b 00       		.space	1
 818 000c 2400     		.short	36
 819 000e 01       		.byte	1
 820 000f 00       		.space	1
 821 0010 2400     		.short	36
 822 0012 01       		.byte	1
 823 0013 00       		.space	1
 824              		.data
 825              		.align	2
 826              		.set	.LANCHOR0,. + 0
 827              		.type	cyBle_discoveryData, %object
 828              		.size	cyBle_discoveryData, 32
 829              	cyBle_discoveryData:
 830 0000 02       		.byte	2
 831 0001 01       		.byte	1
 832 0002 06       		.byte	6
 833 0003 0D       		.byte	13
 834 0004 09       		.byte	9
 835 0005 53       		.byte	83
 836 0006 65       		.byte	101
 837 0007 6E       		.byte	110
 838 0008 73       		.byte	115
ARM GAS  C:\Users\7709\AppData\Local\Temp\ccDQbrve.s 			page 43


 839 0009 6F       		.byte	111
 840 000a 72       		.byte	114
 841 000b 5F       		.byte	95
 842 000c 53       		.byte	83
 843 000d 6C       		.byte	108
 844 000e 61       		.byte	97
 845 000f 76       		.byte	118
 846 0010 65       		.byte	101
 847 0011 00       		.byte	0
 848 0012 00       		.byte	0
 849 0013 00       		.byte	0
 850 0014 00       		.byte	0
 851 0015 00       		.byte	0
 852 0016 00       		.byte	0
 853 0017 00       		.byte	0
 854 0018 00       		.byte	0
 855 0019 00       		.byte	0
 856 001a 00       		.byte	0
 857 001b 00       		.byte	0
 858 001c 00       		.byte	0
 859 001d 00       		.byte	0
 860 001e 00       		.byte	0
 861 001f 11       		.byte	17
 862              		.type	cyBle_scanRspData, %object
 863              		.size	cyBle_scanRspData, 32
 864              	cyBle_scanRspData:
 865 0020 05       		.byte	5
 866 0021 FF       		.byte	-1
 867 0022 31       		.byte	49
 868 0023 01       		.byte	1
 869 0024 3B       		.byte	59
 870 0025 04       		.byte	4
 871 0026 00       		.byte	0
 872 0027 00       		.byte	0
 873 0028 00       		.byte	0
 874 0029 00       		.byte	0
 875 002a 00       		.byte	0
 876 002b 00       		.byte	0
 877 002c 00       		.byte	0
 878 002d 00       		.byte	0
 879 002e 00       		.byte	0
 880 002f 00       		.byte	0
 881 0030 00       		.byte	0
 882 0031 00       		.byte	0
 883 0032 00       		.byte	0
 884 0033 00       		.byte	0
 885 0034 00       		.byte	0
 886 0035 00       		.byte	0
 887 0036 00       		.byte	0
 888 0037 00       		.byte	0
 889 0038 00       		.byte	0
 890 0039 00       		.byte	0
 891 003a 00       		.byte	0
 892 003b 00       		.byte	0
 893 003c 00       		.byte	0
 894 003d 00       		.byte	0
 895 003e 00       		.byte	0
ARM GAS  C:\Users\7709\AppData\Local\Temp\ccDQbrve.s 			page 44


 896 003f 06       		.byte	6
 897              		.type	cyBle_discoveryModeInfo, %object
 898              		.size	cyBle_discoveryModeInfo, 20
 899              	cyBle_discoveryModeInfo:
 900 0040 02       		.byte	2
 901 0041 000000   		.space	3
 902 0044 00000000 		.word	cyBle_discoveryParam
 903 0048 00000000 		.word	cyBle_discoveryData
 904 004c 00000000 		.word	cyBle_scanRspData
 905 0050 0A00     		.short	10
 906 0052 0000     		.space	2
 907              		.type	cyBle_sflashDeviceAddress, %object
 908              		.size	cyBle_sflashDeviceAddress, 4
 909              	cyBle_sflashDeviceAddress:
 910 0054 00F2FF0F 		.word	268431872
 911              		.type	cyBle_deviceAddress, %object
 912              		.size	cyBle_deviceAddress, 7
 913              	cyBle_deviceAddress:
 914 0058 00       		.byte	0
 915 0059 00       		.byte	0
 916 005a 00       		.byte	0
 917 005b 50       		.byte	80
 918 005c A0       		.byte	-96
 919 005d BB       		.byte	-69
 920 005e 00       		.byte	0
 921 005f 00       		.space	1
 922              		.type	cyBle_discoveryParam, %object
 923              		.size	cyBle_discoveryParam, 16
 924              	cyBle_discoveryParam:
 925 0060 2000     		.short	32
 926 0062 A000     		.short	160
 927 0064 00       		.byte	0
 928 0065 00       		.byte	0
 929 0066 00       		.byte	0
 930 0067 00       		.byte	0
 931 0068 00       		.byte	0
 932 0069 00       		.byte	0
 933 006a 50       		.byte	80
 934 006b A0       		.byte	-96
 935 006c BB       		.byte	-69
 936 006d 07       		.byte	7
 937 006e 00       		.byte	0
 938 006f 00       		.space	1
 939              		.section	.noinit,"aw",%progbits
 940              		.align	3
 941              		.set	.LANCHOR3,. + 0
 942              		.type	cyBle_stackMemoryRam, %object
 943              		.size	cyBle_stackMemoryRam, 2784
 944              	cyBle_stackMemoryRam:
 945 0000 00000000 		.space	2784
 945      00000000 
 945      00000000 
 945      00000000 
 945      00000000 
 946              		.bss
 947              		.set	.LANCHOR2,. + 0
 948              		.type	cyBle_initVar, %object
ARM GAS  C:\Users\7709\AppData\Local\Temp\ccDQbrve.s 			page 45


 949              		.size	cyBle_initVar, 1
 950              	cyBle_initVar:
 951 0000 00       		.space	1
 952              		.text
 953              	.Letext0:
 954              		.file 2 "Generated_Source\\PSoC4\\cytypes.h"
 955              		.file 3 "Generated_Source\\PSoC4\\BLE_Stack.h"
 956              		.file 4 "Generated_Source\\PSoC4\\BLE_StackGap.h"
 957              		.file 5 "Generated_Source\\PSoC4\\BLE_StackGatt.h"
 958              		.file 6 "Generated_Source\\PSoC4\\BLE_StackGattDb.h"
 959              		.file 7 "Generated_Source\\PSoC4\\BLE.h"
 960              		.file 8 "Generated_Source\\PSoC4\\BLE_eventHandler.h"
 961              		.file 9 "Generated_Source\\PSoC4\\BLE_gatt.h"
 962              		.file 10 "Generated_Source\\PSoC4\\BLE_custom.h"