ARM GAS  C:\Users\7709\AppData\Local\Temp\ccC6CyHV.s 			page 1


   1              		.syntax unified
   2              		.cpu cortex-m0
   3              		.fpu softvfp
   4              		.eabi_attribute 20, 1
   5              		.eabi_attribute 21, 1
   6              		.eabi_attribute 23, 3
   7              		.eabi_attribute 24, 1
   8              		.eabi_attribute 25, 1
   9              		.eabi_attribute 26, 1
  10              		.eabi_attribute 30, 4
  11              		.eabi_attribute 34, 0
  12              		.eabi_attribute 18, 4
  13              		.thumb
  14              		.syntax unified
  15              		.file	"bme280.c"
  16              		.text
  17              	.Ltext0:
  18              		.cfi_sections	.debug_frame
  19              		.section	.text.gettemp280,"ax",%progbits
  20              		.align	1
  21              		.global	gettemp280
  22              		.code	16
  23              		.thumb_func
  24              		.type	gettemp280, %function
  25              	gettemp280:
  26              	.LFB35:
  27              		.file 1 "bme280.c"
   1:bme280.c      **** /* ========================================
   2:bme280.c      ****  *
   3:bme280.c      ****  *  Device driver to read temperature, humidity and pressure from BME280 Sensor using I2C interface
   4:bme280.c      ****  *
   5:bme280.c      ****  * ========================================
   6:bme280.c      **** */
   7:bme280.c      **** 
   8:bme280.c      **** #include "bme280.h"
   9:bme280.c      **** #include "I2C_1.h"
  10:bme280.c      **** #include "project.h"
  11:bme280.c      **** #include "teste.h"
  12:bme280.c      **** #include "math.h"  
  13:bme280.c      **** 
  14:bme280.c      **** /*************************Variables Declaration****************************************************
  15:bme280.c      **** uint8 SensorCalibrationData[0x16]; //Calibration data is stored in this array
  16:bme280.c      **** long X1, X2, X3, B3, B5, B6, UT, UP; //Variables to store calibration coefficients
  17:bme280.c      **** unsigned long B4, B7; //Variables to store calibration coefficients
  18:bme280.c      **** short AC1, AC2, AC3, B1, B2, MC, MD; //Variables to store calibration coefficients
  19:bme280.c      **** unsigned short AC4, AC5, AC6; //Variables to store calibration coefficients
  20:bme280.c      **** long UT, UP; //Variables to store uncompensated temperature and pressure data
  21:bme280.c      **** long Temperature, Pressure, Altitude; //Variables to store the true temperature, pressure and altit
  22:bme280.c      **** double PressureAtSeaLevel = 101325.0; //Pressure at sea level in Pascal
  23:bme280.c      **** uint8 CalibrationDataAvailable = FALSE; //This flag is to whether the calibration data is available
  24:bme280.c      **** 
  25:bme280.c      **** 
  26:bme280.c      **** int gettemp280(void)
  27:bme280.c      **** {
  28              		.loc 1 27 0
  29              		.cfi_startproc
  30              		@ args = 0, pretend = 0, frame = 0
ARM GAS  C:\Users\7709\AppData\Local\Temp\ccC6CyHV.s 			page 2


  31              		@ frame_needed = 0, uses_anonymous_args = 0
  32 0000 70B5     		push	{r4, r5, r6, lr}
  33              		.cfi_def_cfa_offset 16
  34              		.cfi_offset 4, -16
  35              		.cfi_offset 5, -12
  36              		.cfi_offset 6, -8
  37              		.cfi_offset 14, -4
  28:bme280.c      ****     //I2C_1_Start(); 
  29:bme280.c      ****     I2C_1_scl_SetDriveMode(I2C_1_scl_DM_OD_LO);
  38              		.loc 1 29 0
  39 0002 0420     		movs	r0, #4
  40 0004 FFF7FEFF 		bl	I2C_1_scl_SetDriveMode
  41              	.LVL0:
  30:bme280.c      ****     I2C_1_sda_SetDriveMode(I2C_1_sda_DM_OD_LO);
  42              		.loc 1 30 0
  43 0008 0420     		movs	r0, #4
  44 000a FFF7FEFF 		bl	I2C_1_sda_SetDriveMode
  45              	.LVL1:
  31:bme280.c      ****     static uint8 I2CReadBufferT[0x02]; //The uncompensated temperature read from the sensor is stor
  32:bme280.c      ****     static uint8 I2CWriteBufferT[0x01] = {0xF4}; //Command for temperature conversion - Register ad
  33:bme280.c      ****     static uint8 SetReadAddressBufferT[0x01] = {0xF6}; //Register address from which the data is re
  34:bme280.c      ****     
  35:bme280.c      ****     /* Do a write operation with the memory address bytes to get temperature data */
  36:bme280.c      **** 	I2C_1_I2CMasterWriteBuf(I2CSlaveAddress, (uint8 *) I2CWriteBufferT, sizeof(I2CWriteBufferT), I2C_I
  46              		.loc 1 36 0
  47 000e 0023     		movs	r3, #0
  48 0010 0122     		movs	r2, #1
  49 0012 1049     		ldr	r1, .L9
  50 0014 7620     		movs	r0, #118
  51 0016 FFF7FEFF 		bl	I2C_1_I2CMasterWriteBuf
  52              	.LVL2:
  37:bme280.c      ****     while(!(I2C_1_I2CMasterStatus() & I2C_I2C_MSTAT_WR_CMPLT)); //Wait till the master completes wr
  53              		.loc 1 37 0
  54 001a 0224     		movs	r4, #2
  55              	.L2:
  56              		.loc 1 37 0 is_stmt 0 discriminator 1
  57 001c FFF7FEFF 		bl	I2C_1_I2CMasterStatus
  58              	.LVL3:
  59 0020 2042     		tst	r0, r4
  60 0022 FBD0     		beq	.L2
  38:bme280.c      ****     I2C_1_I2CMasterClearStatus(); //Clear I2C master status
  61              		.loc 1 38 0 is_stmt 1
  62 0024 FFF7FEFF 		bl	I2C_1_I2CMasterClearStatus
  63              	.LVL4:
  39:bme280.c      ****     
  40:bme280.c      ****     //CyDelay(5); //Wait for 5ms temperature conversion
  41:bme280.c      ****     
  42:bme280.c      **** //    /* In order to do a read from a specific address, do a write operation with the memory addres
  43:bme280.c      **** //	I2C_1_I2CMasterWriteBuf(I2CSlaveAddress, (uint8 *) SetReadAddressBufferT, sizeof(SetReadAddressB
  44:bme280.c      **** //    while(!(I2C_1_I2CMasterStatus() & I2C_I2C_MSTAT_WR_CMPLT)); //Wait till the master completes 
  45:bme280.c      **** //    I2C_1_I2CMasterClearStatus(); //Clear I2C master status
  46:bme280.c      ****     
  47:bme280.c      ****     /* Read temperature from the sensor and store it in a buffer */
  48:bme280.c      **** 	I2C_1_I2CMasterReadBuf(I2CSlaveAddress, (uint8 *) I2CReadBufferT, sizeof(I2CReadBufferT), I2C_I2C_
  64              		.loc 1 48 0
  65 0028 0B4C     		ldr	r4, .L9+4
  66 002a 0023     		movs	r3, #0
ARM GAS  C:\Users\7709\AppData\Local\Temp\ccC6CyHV.s 			page 3


  67 002c 0222     		movs	r2, #2
  68 002e 2100     		movs	r1, r4
  69 0030 7620     		movs	r0, #118
  70 0032 FFF7FEFF 		bl	I2C_1_I2CMasterReadBuf
  71              	.LVL5:
  49:bme280.c      ****     while(!(I2C_1_I2CMasterStatus() & I2C_I2C_MSTAT_RD_CMPLT)); //Wait till the master completes re
  72              		.loc 1 49 0
  73 0036 0125     		movs	r5, #1
  74              	.L3:
  75              		.loc 1 49 0 is_stmt 0 discriminator 1
  76 0038 FFF7FEFF 		bl	I2C_1_I2CMasterStatus
  77              	.LVL6:
  78 003c 2842     		tst	r0, r5
  79 003e FBD0     		beq	.L3
  50:bme280.c      ****     I2C_1_I2CMasterClearStatus(); //Clear I2C master status
  80              		.loc 1 50 0 is_stmt 1
  81 0040 FFF7FEFF 		bl	I2C_1_I2CMasterClearStatus
  82              	.LVL7:
  51:bme280.c      ****     
  52:bme280.c      **** 	UT280 = (I2CReadBufferT[0x00] << 0x08) | I2CReadBufferT[0x01]; //Return uncompensated temperature 
  83              		.loc 1 52 0
  84 0044 2078     		ldrb	r0, [r4]
  85 0046 6378     		ldrb	r3, [r4, #1]
  86 0048 0002     		lsls	r0, r0, #8
  87 004a 1843     		orrs	r0, r3
  88 004c 034B     		ldr	r3, .L9+8
  53:bme280.c      **** 
  54:bme280.c      ****     return UT280;
  55:bme280.c      **** }
  89              		.loc 1 55 0
  90              		@ sp needed
  52:bme280.c      **** 
  91              		.loc 1 52 0
  92 004e 1860     		str	r0, [r3]
  93              		.loc 1 55 0
  94 0050 70BD     		pop	{r4, r5, r6, pc}
  95              	.L10:
  96 0052 C046     		.align	2
  97              	.L9:
  98 0054 00000000 		.word	.LANCHOR0
  99 0058 00000000 		.word	.LANCHOR1
 100 005c 00000000 		.word	UT280
 101              		.cfi_endproc
 102              	.LFE35:
 103              		.size	gettemp280, .-gettemp280
 104              		.section	.text.getpress280,"ax",%progbits
 105              		.align	1
 106              		.global	getpress280
 107              		.code	16
 108              		.thumb_func
 109              		.type	getpress280, %function
 110              	getpress280:
 111              	.LFB36:
  56:bme280.c      **** /**************************************************************************************************
  57:bme280.c      **** 
  58:bme280.c      **** /**************************************************************************************************
  59:bme280.c      **** * Function Name: ReadUncompensatedPressure
ARM GAS  C:\Users\7709\AppData\Local\Temp\ccC6CyHV.s 			page 4


  60:bme280.c      **** ***************************************************************************************************
  61:bme280.c      **** * Summary: This function writes the pressure conversion command to the sensor and
  62:bme280.c      **** * waits for conversion to complete, and then reads the converted data (uncompensated pressure) and 
  63:bme280.c      **** *
  64:bme280.c      **** * Parameters:
  65:bme280.c      **** *  void
  66:bme280.c      **** *
  67:bme280.c      **** * Return:
  68:bme280.c      **** *  void
  69:bme280.c      **** *
  70:bme280.c      **** ***************************************************************************************************
  71:bme280.c      **** int getpress280(void)
  72:bme280.c      **** {   I2C_1_scl_SetDriveMode(I2C_1_sda_DM_OD_LO);
 112              		.loc 1 72 0
 113              		.cfi_startproc
 114              		@ args = 0, pretend = 0, frame = 0
 115              		@ frame_needed = 0, uses_anonymous_args = 0
 116 0000 70B5     		push	{r4, r5, r6, lr}
 117              		.cfi_def_cfa_offset 16
 118              		.cfi_offset 4, -16
 119              		.cfi_offset 5, -12
 120              		.cfi_offset 6, -8
 121              		.cfi_offset 14, -4
 122              		.loc 1 72 0
 123 0002 0420     		movs	r0, #4
 124 0004 FFF7FEFF 		bl	I2C_1_scl_SetDriveMode
 125              	.LVL8:
  73:bme280.c      ****     I2C_1_sda_SetDriveMode(I2C_1_sda_DM_OD_LO);
 126              		.loc 1 73 0
 127 0008 0420     		movs	r0, #4
 128 000a FFF7FEFF 		bl	I2C_1_sda_SetDriveMode
 129              	.LVL9:
  74:bme280.c      ****     I2C_1_Start(); 
 130              		.loc 1 74 0
 131 000e FFF7FEFF 		bl	I2C_1_Start
 132              	.LVL10:
  75:bme280.c      ****     static uint8 I2CReadBufferP[0x03]; //The uncompensated pressure read from the sensor is stored 
  76:bme280.c      ****     static uint8 I2CWriteBufferP[0x01] = {0xF7}; //0x34 + (OSS << 0x06)}; //Command for pressure co
  77:bme280.c      ****     static uint8 SetReadAddressBufferP[0x01] = {0xF6}; //Register address from which the data is re
  78:bme280.c      ****     
  79:bme280.c      ****     /* Do a write operation with the memory address bytes to get pressure data */
  80:bme280.c      **** 	I2C_1_I2CMasterWriteBuf(I2CSlaveAddress, (uint8 *) I2CWriteBufferP, sizeof(I2CWriteBufferP), I2C_I
 133              		.loc 1 80 0
 134 0012 1B4C     		ldr	r4, .L21
 135 0014 0023     		movs	r3, #0
 136 0016 611C     		adds	r1, r4, #1
 137 0018 0122     		movs	r2, #1
 138 001a 7620     		movs	r0, #118
 139 001c FFF7FEFF 		bl	I2C_1_I2CMasterWriteBuf
 140              	.LVL11:
  81:bme280.c      ****     while(!(I2C_1_I2CMasterStatus() & I2C_I2C_MSTAT_WR_CMPLT)); //Wait till the master completes wr
 141              		.loc 1 81 0
 142 0020 0225     		movs	r5, #2
 143              	.L12:
 144              		.loc 1 81 0 is_stmt 0 discriminator 1
 145 0022 FFF7FEFF 		bl	I2C_1_I2CMasterStatus
 146              	.LVL12:
ARM GAS  C:\Users\7709\AppData\Local\Temp\ccC6CyHV.s 			page 5


 147 0026 2842     		tst	r0, r5
 148 0028 FBD0     		beq	.L12
  82:bme280.c      ****     I2C_1_I2CMasterClearStatus(); //Clear I2C master status
 149              		.loc 1 82 0 is_stmt 1
 150 002a FFF7FEFF 		bl	I2C_1_I2CMasterClearStatus
 151              	.LVL13:
  83:bme280.c      ****     
  84:bme280.c      ****     CyDelay(26); //Wait for 26ms pressure conversion
 152              		.loc 1 84 0
 153 002e 1A20     		movs	r0, #26
 154 0030 FFF7FEFF 		bl	CyDelay
 155              	.LVL14:
  85:bme280.c      ****     
  86:bme280.c      ****     /* In order to do a read from a specific address, do a write operation with the memory address 
  87:bme280.c      **** 	I2C_1_I2CMasterWriteBuf(I2CSlaveAddress, (uint8 *) SetReadAddressBufferP, sizeof(SetReadAddressBuf
 156              		.loc 1 87 0
 157 0034 A11C     		adds	r1, r4, #2
 158 0036 0023     		movs	r3, #0
 159 0038 0122     		movs	r2, #1
 160 003a 7620     		movs	r0, #118
 161 003c FFF7FEFF 		bl	I2C_1_I2CMasterWriteBuf
 162              	.LVL15:
  88:bme280.c      ****     while(!(I2C_1_I2CMasterStatus() & I2C_I2C_MSTAT_WR_CMPLT)); //Wait till the master completes wr
 163              		.loc 1 88 0
 164 0040 0224     		movs	r4, #2
 165              	.L13:
 166              		.loc 1 88 0 is_stmt 0 discriminator 1
 167 0042 FFF7FEFF 		bl	I2C_1_I2CMasterStatus
 168              	.LVL16:
 169 0046 2042     		tst	r0, r4
 170 0048 FBD0     		beq	.L13
  89:bme280.c      ****     I2C_1_I2CMasterClearStatus(); //Clear I2C master status
 171              		.loc 1 89 0 is_stmt 1
 172 004a FFF7FEFF 		bl	I2C_1_I2CMasterClearStatus
 173              	.LVL17:
  90:bme280.c      ****     
  91:bme280.c      ****     /* Read pressure from the sensor and store it in a buffer */
  92:bme280.c      **** 	I2C_1_I2CMasterReadBuf(I2CSlaveAddress, (uint8 *) I2CReadBufferP, sizeof(I2CReadBufferP), I2C_I2C_
 174              		.loc 1 92 0
 175 004e 0D4C     		ldr	r4, .L21+4
 176 0050 0023     		movs	r3, #0
 177 0052 A11C     		adds	r1, r4, #2
 178 0054 0322     		movs	r2, #3
 179 0056 7620     		movs	r0, #118
 180 0058 FFF7FEFF 		bl	I2C_1_I2CMasterReadBuf
 181              	.LVL18:
  93:bme280.c      ****     while(!(I2C_1_I2CMasterStatus() & I2C_I2C_MSTAT_RD_CMPLT)); //Wait till the master completes re
 182              		.loc 1 93 0
 183 005c 0125     		movs	r5, #1
 184              	.L14:
 185              		.loc 1 93 0 is_stmt 0 discriminator 1
 186 005e FFF7FEFF 		bl	I2C_1_I2CMasterStatus
 187              	.LVL19:
 188 0062 2842     		tst	r0, r5
 189 0064 FBD0     		beq	.L14
  94:bme280.c      ****     I2C_1_I2CMasterClearStatus(); //Clear I2C master status
 190              		.loc 1 94 0 is_stmt 1
ARM GAS  C:\Users\7709\AppData\Local\Temp\ccC6CyHV.s 			page 6


 191 0066 FFF7FEFF 		bl	I2C_1_I2CMasterClearStatus
 192              	.LVL20:
  95:bme280.c      ****     
  96:bme280.c      **** 	UP280 = ((I2CReadBufferP[0x00] << 0x10) | (I2CReadBufferP[0x01] << 0x08) | I2CReadBufferP[0x02]) >
 193              		.loc 1 96 0
 194 006a E378     		ldrb	r3, [r4, #3]
 195 006c A078     		ldrb	r0, [r4, #2]
 196 006e 1B02     		lsls	r3, r3, #8
 197 0070 0004     		lsls	r0, r0, #16
 198 0072 1843     		orrs	r0, r3
 199 0074 2379     		ldrb	r3, [r4, #4]
  97:bme280.c      ****     
  98:bme280.c      ****     return UP280;
  99:bme280.c      **** }
 200              		.loc 1 99 0
 201              		@ sp needed
  96:bme280.c      ****     
 202              		.loc 1 96 0
 203 0076 1843     		orrs	r0, r3
 204 0078 034B     		ldr	r3, .L21+8
 205 007a 4011     		asrs	r0, r0, #5
 206 007c 1860     		str	r0, [r3]
 207              		.loc 1 99 0
 208 007e 70BD     		pop	{r4, r5, r6, pc}
 209              	.L22:
 210              		.align	2
 211              	.L21:
 212 0080 00000000 		.word	.LANCHOR0
 213 0084 00000000 		.word	.LANCHOR1
 214 0088 00000000 		.word	UP280
 215              		.cfi_endproc
 216              	.LFE36:
 217              		.size	getpress280, .-getpress280
 218              		.section	.text.readPressure,"ax",%progbits
 219              		.align	1
 220              		.global	readPressure
 221              		.code	16
 222              		.thumb_func
 223              		.type	readPressure, %function
 224              	readPressure:
 225              	.LFB37:
 100:bme280.c      **** 
 101:bme280.c      **** int readPressure(){
 226              		.loc 1 101 0
 227              		.cfi_startproc
 228              		@ args = 0, pretend = 0, frame = 0
 229              		@ frame_needed = 0, uses_anonymous_args = 0
 230              		@ link register save eliminated.
 102:bme280.c      ****     
 103:bme280.c      ****     return Pressure;
 231              		.loc 1 103 0
 232 0000 014B     		ldr	r3, .L24
 104:bme280.c      **** }
 233              		.loc 1 104 0
 234              		@ sp needed
 103:bme280.c      **** }
 235              		.loc 1 103 0
ARM GAS  C:\Users\7709\AppData\Local\Temp\ccC6CyHV.s 			page 7


 236 0002 1868     		ldr	r0, [r3]
 237              		.loc 1 104 0
 238 0004 7047     		bx	lr
 239              	.L25:
 240 0006 C046     		.align	2
 241              	.L24:
 242 0008 00000000 		.word	Pressure
 243              		.cfi_endproc
 244              	.LFE37:
 245              		.size	readPressure, .-readPressure
 246              		.section	.text.readTemp,"ax",%progbits
 247              		.align	1
 248              		.global	readTemp
 249              		.code	16
 250              		.thumb_func
 251              		.type	readTemp, %function
 252              	readTemp:
 253              	.LFB38:
 105:bme280.c      **** int readTemp(){
 254              		.loc 1 105 0
 255              		.cfi_startproc
 256              		@ args = 0, pretend = 0, frame = 0
 257              		@ frame_needed = 0, uses_anonymous_args = 0
 258              		@ link register save eliminated.
 106:bme280.c      ****     
 107:bme280.c      ****     return Temperature;
 259              		.loc 1 107 0
 260 0000 014B     		ldr	r3, .L27
 108:bme280.c      **** }
 261              		.loc 1 108 0
 262              		@ sp needed
 107:bme280.c      **** }
 263              		.loc 1 107 0
 264 0002 1868     		ldr	r0, [r3]
 265              		.loc 1 108 0
 266 0004 7047     		bx	lr
 267              	.L28:
 268 0006 C046     		.align	2
 269              	.L27:
 270 0008 00000000 		.word	Temperature
 271              		.cfi_endproc
 272              	.LFE38:
 273              		.size	readTemp, .-readTemp
 274              		.section	.text.ReadSensorCalibrationData,"ax",%progbits
 275              		.align	1
 276              		.global	ReadSensorCalibrationData
 277              		.code	16
 278              		.thumb_func
 279              		.type	ReadSensorCalibrationData, %function
 280              	ReadSensorCalibrationData:
 281              	.LFB39:
 109:bme280.c      **** void ReadSensorCalibrationData(void)
 110:bme280.c      **** {
 282              		.loc 1 110 0
 283              		.cfi_startproc
 284              		@ args = 0, pretend = 0, frame = 0
 285              		@ frame_needed = 0, uses_anonymous_args = 0
ARM GAS  C:\Users\7709\AppData\Local\Temp\ccC6CyHV.s 			page 8


 111:bme280.c      ****     
 112:bme280.c      ****     static uint8 I2CWriteBuffer[0x01] = {0xAA}; //Location from which the calibration data is to be
 113:bme280.c      ****     //I2C_1_Start(); 
 114:bme280.c      ****     /* Do a write operation with the memory address bytes to get calibration data */
 115:bme280.c      **** 	I2C_1_I2CMasterWriteBuf(I2CSlaveAddress, (uint8 *) I2CWriteBuffer, sizeof(I2CWriteBuffer), I2C_I2C
 286              		.loc 1 115 0
 287 0000 2E49     		ldr	r1, .L36
 110:bme280.c      ****     
 288              		.loc 1 110 0
 289 0002 70B5     		push	{r4, r5, r6, lr}
 290              		.cfi_def_cfa_offset 16
 291              		.cfi_offset 4, -16
 292              		.cfi_offset 5, -12
 293              		.cfi_offset 6, -8
 294              		.cfi_offset 14, -4
 295              		.loc 1 115 0
 296 0004 0023     		movs	r3, #0
 297 0006 0122     		movs	r2, #1
 298 0008 0331     		adds	r1, r1, #3
 299 000a 7620     		movs	r0, #118
 300 000c FFF7FEFF 		bl	I2C_1_I2CMasterWriteBuf
 301              	.LVL21:
 116:bme280.c      ****     while(!(I2C_1_I2CMasterStatus() & I2C_I2C_MSTAT_WR_CMPLT)); //Wait till the master completes wr
 302              		.loc 1 116 0
 303 0010 0224     		movs	r4, #2
 304              	.L30:
 305              		.loc 1 116 0 is_stmt 0 discriminator 1
 306 0012 FFF7FEFF 		bl	I2C_1_I2CMasterStatus
 307              	.LVL22:
 308 0016 2042     		tst	r0, r4
 309 0018 FBD0     		beq	.L30
 117:bme280.c      ****     I2C_1_I2CMasterClearStatus(); //Clear I2C master status
 310              		.loc 1 117 0 is_stmt 1
 311 001a FFF7FEFF 		bl	I2C_1_I2CMasterClearStatus
 312              	.LVL23:
 118:bme280.c      ****     
 119:bme280.c      ****     /* Read calibration from the sensor EEPROM and store it in a buffer */
 120:bme280.c      **** 	I2C_1_I2CMasterReadBuf(I2CSlaveAddress, (uint8 *) SensorCalibrationData, sizeof(SensorCalibrationD
 313              		.loc 1 120 0
 314 001e 284C     		ldr	r4, .L36+4
 315 0020 0023     		movs	r3, #0
 316 0022 1622     		movs	r2, #22
 317 0024 2100     		movs	r1, r4
 318 0026 7620     		movs	r0, #118
 319 0028 FFF7FEFF 		bl	I2C_1_I2CMasterReadBuf
 320              	.LVL24:
 121:bme280.c      ****     while(!(I2C_1_I2CMasterStatus() & I2C_I2C_MSTAT_RD_CMPLT)); //Wait till the master completes re
 321              		.loc 1 121 0
 322 002c 0125     		movs	r5, #1
 323              	.L31:
 324              		.loc 1 121 0 is_stmt 0 discriminator 1
 325 002e FFF7FEFF 		bl	I2C_1_I2CMasterStatus
 326              	.LVL25:
 327 0032 2842     		tst	r0, r5
 328 0034 FBD0     		beq	.L31
 122:bme280.c      ****     I2C_1_I2CMasterClearStatus(); //Clear I2C master status
 329              		.loc 1 122 0 is_stmt 1
ARM GAS  C:\Users\7709\AppData\Local\Temp\ccC6CyHV.s 			page 9


 330 0036 FFF7FEFF 		bl	I2C_1_I2CMasterClearStatus
 331              	.LVL26:
 123:bme280.c      ****     
 124:bme280.c      ****     CalibrationDataAvailable = TRUE; //Set sensor calibration data available flag
 332              		.loc 1 124 0
 333 003a 0122     		movs	r2, #1
 334 003c 214B     		ldr	r3, .L36+8
 125:bme280.c      ****     
 126:bme280.c      ****     /* Assign calibration data to coefficient variables as described in sensor datasheet */
 127:bme280.c      ****     AC1 = (SensorCalibrationData[0x00] << 0x08) | SensorCalibrationData[0x01];
 128:bme280.c      ****     AC2 = (SensorCalibrationData[0x02] << 0x08) | SensorCalibrationData[0x03];
 129:bme280.c      ****     AC3 = (SensorCalibrationData[0x04] << 0x08) | SensorCalibrationData[0x05];
 130:bme280.c      ****     AC4 = (SensorCalibrationData[0x06] << 0x08) | SensorCalibrationData[0x07];
 131:bme280.c      ****     AC5 = (SensorCalibrationData[0x08] << 0x08) | SensorCalibrationData[0x09];
 132:bme280.c      ****     AC6 = (SensorCalibrationData[0x0A] << 0x08) | SensorCalibrationData[0x0B];
 133:bme280.c      ****     B1 = (SensorCalibrationData[0x0C] << 0x08) | SensorCalibrationData[0x0D];
 134:bme280.c      ****     B2 = (SensorCalibrationData[0x0E] << 0x08) | SensorCalibrationData[0x0F];
 135:bme280.c      ****     MC = (SensorCalibrationData[0x012] << 0x08) | SensorCalibrationData[0x013];
 136:bme280.c      ****     MD = (SensorCalibrationData[0x014] << 0x08) | SensorCalibrationData[0x015];
 137:bme280.c      ****   //  I2C_1_Stop();
 138:bme280.c      **** }
 335              		.loc 1 138 0
 336              		@ sp needed
 124:bme280.c      ****     
 337              		.loc 1 124 0
 338 003e 5A71     		strb	r2, [r3, #5]
 127:bme280.c      ****     AC2 = (SensorCalibrationData[0x02] << 0x08) | SensorCalibrationData[0x03];
 339              		.loc 1 127 0
 340 0040 2378     		ldrb	r3, [r4]
 341 0042 6278     		ldrb	r2, [r4, #1]
 342 0044 1B02     		lsls	r3, r3, #8
 343 0046 1343     		orrs	r3, r2
 344 0048 1F4A     		ldr	r2, .L36+12
 345 004a 1380     		strh	r3, [r2]
 128:bme280.c      ****     AC3 = (SensorCalibrationData[0x04] << 0x08) | SensorCalibrationData[0x05];
 346              		.loc 1 128 0
 347 004c A378     		ldrb	r3, [r4, #2]
 348 004e E278     		ldrb	r2, [r4, #3]
 349 0050 1B02     		lsls	r3, r3, #8
 350 0052 1343     		orrs	r3, r2
 351 0054 1D4A     		ldr	r2, .L36+16
 352 0056 1380     		strh	r3, [r2]
 129:bme280.c      ****     AC4 = (SensorCalibrationData[0x06] << 0x08) | SensorCalibrationData[0x07];
 353              		.loc 1 129 0
 354 0058 2379     		ldrb	r3, [r4, #4]
 355 005a 6279     		ldrb	r2, [r4, #5]
 356 005c 1B02     		lsls	r3, r3, #8
 357 005e 1343     		orrs	r3, r2
 358 0060 1B4A     		ldr	r2, .L36+20
 359 0062 1380     		strh	r3, [r2]
 130:bme280.c      ****     AC5 = (SensorCalibrationData[0x08] << 0x08) | SensorCalibrationData[0x09];
 360              		.loc 1 130 0
 361 0064 A379     		ldrb	r3, [r4, #6]
 362 0066 E279     		ldrb	r2, [r4, #7]
 363 0068 1B02     		lsls	r3, r3, #8
 364 006a 1343     		orrs	r3, r2
 365 006c 194A     		ldr	r2, .L36+24
ARM GAS  C:\Users\7709\AppData\Local\Temp\ccC6CyHV.s 			page 10


 366 006e 1380     		strh	r3, [r2]
 131:bme280.c      ****     AC6 = (SensorCalibrationData[0x0A] << 0x08) | SensorCalibrationData[0x0B];
 367              		.loc 1 131 0
 368 0070 237A     		ldrb	r3, [r4, #8]
 369 0072 627A     		ldrb	r2, [r4, #9]
 370 0074 1B02     		lsls	r3, r3, #8
 371 0076 1343     		orrs	r3, r2
 372 0078 174A     		ldr	r2, .L36+28
 373 007a 1380     		strh	r3, [r2]
 132:bme280.c      ****     B1 = (SensorCalibrationData[0x0C] << 0x08) | SensorCalibrationData[0x0D];
 374              		.loc 1 132 0
 375 007c A37A     		ldrb	r3, [r4, #10]
 376 007e E27A     		ldrb	r2, [r4, #11]
 377 0080 1B02     		lsls	r3, r3, #8
 378 0082 1343     		orrs	r3, r2
 379 0084 154A     		ldr	r2, .L36+32
 380 0086 1380     		strh	r3, [r2]
 133:bme280.c      ****     B2 = (SensorCalibrationData[0x0E] << 0x08) | SensorCalibrationData[0x0F];
 381              		.loc 1 133 0
 382 0088 237B     		ldrb	r3, [r4, #12]
 383 008a 627B     		ldrb	r2, [r4, #13]
 384 008c 1B02     		lsls	r3, r3, #8
 385 008e 1343     		orrs	r3, r2
 386 0090 134A     		ldr	r2, .L36+36
 387 0092 1380     		strh	r3, [r2]
 134:bme280.c      ****     MC = (SensorCalibrationData[0x012] << 0x08) | SensorCalibrationData[0x013];
 388              		.loc 1 134 0
 389 0094 A37B     		ldrb	r3, [r4, #14]
 390 0096 E27B     		ldrb	r2, [r4, #15]
 391 0098 1B02     		lsls	r3, r3, #8
 392 009a 1343     		orrs	r3, r2
 393 009c 114A     		ldr	r2, .L36+40
 394 009e 1380     		strh	r3, [r2]
 135:bme280.c      ****     MD = (SensorCalibrationData[0x014] << 0x08) | SensorCalibrationData[0x015];
 395              		.loc 1 135 0
 396 00a0 A37C     		ldrb	r3, [r4, #18]
 397 00a2 E27C     		ldrb	r2, [r4, #19]
 398 00a4 1B02     		lsls	r3, r3, #8
 399 00a6 1343     		orrs	r3, r2
 400 00a8 0F4A     		ldr	r2, .L36+44
 401 00aa 1380     		strh	r3, [r2]
 136:bme280.c      ****   //  I2C_1_Stop();
 402              		.loc 1 136 0
 403 00ac 237D     		ldrb	r3, [r4, #20]
 404 00ae 627D     		ldrb	r2, [r4, #21]
 405 00b0 1B02     		lsls	r3, r3, #8
 406 00b2 1343     		orrs	r3, r2
 407 00b4 0D4A     		ldr	r2, .L36+48
 408 00b6 1380     		strh	r3, [r2]
 409              		.loc 1 138 0
 410 00b8 70BD     		pop	{r4, r5, r6, pc}
 411              	.L37:
 412 00ba C046     		.align	2
 413              	.L36:
 414 00bc 00000000 		.word	.LANCHOR0
 415 00c0 00000000 		.word	SensorCalibrationData
 416 00c4 00000000 		.word	.LANCHOR1
ARM GAS  C:\Users\7709\AppData\Local\Temp\ccC6CyHV.s 			page 11


 417 00c8 00000000 		.word	AC1
 418 00cc 00000000 		.word	AC2
 419 00d0 00000000 		.word	AC3
 420 00d4 00000000 		.word	AC4
 421 00d8 00000000 		.word	AC5
 422 00dc 00000000 		.word	AC6
 423 00e0 00000000 		.word	B1
 424 00e4 00000000 		.word	B2
 425 00e8 00000000 		.word	MC
 426 00ec 00000000 		.word	MD
 427              		.cfi_endproc
 428              	.LFE39:
 429              		.size	ReadSensorCalibrationData, .-ReadSensorCalibrationData
 430              		.global	__aeabi_i2d
 431              		.global	__aeabi_dmul
 432              		.global	__aeabi_d2iz
 433              		.global	__aeabi_ddiv
 434              		.global	__aeabi_ui2d
 435              		.global	__aeabi_d2uiz
 436              		.global	__aeabi_uidiv
 437              		.section	.text.ReadAndCalculateSensorData,"ax",%progbits
 438              		.align	1
 439              		.global	ReadAndCalculateSensorData
 440              		.code	16
 441              		.thumb_func
 442              		.type	ReadAndCalculateSensorData, %function
 443              	ReadAndCalculateSensorData:
 444              	.LFB40:
 139:bme280.c      **** 
 140:bme280.c      **** void ReadAndCalculateSensorData(void)
 141:bme280.c      **** {
 445              		.loc 1 141 0
 446              		.cfi_startproc
 447              		@ args = 0, pretend = 0, frame = 8
 448              		@ frame_needed = 0, uses_anonymous_args = 0
 449 0000 F7B5     		push	{r0, r1, r2, r4, r5, r6, r7, lr}
 450              		.cfi_def_cfa_offset 32
 451              		.cfi_offset 0, -32
 452              		.cfi_offset 1, -28
 453              		.cfi_offset 2, -24
 454              		.cfi_offset 4, -20
 455              		.cfi_offset 5, -16
 456              		.cfi_offset 6, -12
 457              		.cfi_offset 7, -8
 458              		.cfi_offset 14, -4
 142:bme280.c      ****     
 143:bme280.c      **** //    /* Read the sensor calibration data if not already available */
 144:bme280.c      **** //	if(!CalibrationDataAvailable)
 145:bme280.c      **** //    {
 146:bme280.c      **** //        ReadSensorCalibrationData(); //Read sensor calibration data
 147:bme280.c      **** //        
 148:bme280.c      **** //    }
 149:bme280.c      ****     
 150:bme280.c      ****     gettemp280(); //Read the uncompensated temperature value
 459              		.loc 1 150 0
 460 0002 FFF7FEFF 		bl	gettemp280
 461              	.LVL27:
ARM GAS  C:\Users\7709\AppData\Local\Temp\ccC6CyHV.s 			page 12


 151:bme280.c      ****     getpress280(); //Read the uncompensated pressure value
 462              		.loc 1 151 0
 463 0006 FFF7FEFF 		bl	getpress280
 464              	.LVL28:
 152:bme280.c      ****     
 153:bme280.c      ****     /* Calculate the true temperature as described in sensor datasheet */
 154:bme280.c      ****     X1 = (UT280 - AC6) * AC5 / pow(2, 15);
 465              		.loc 1 154 0
 466 000a 7B4B     		ldr	r3, .L42
 467 000c 1888     		ldrh	r0, [r3]
 468 000e 7B4B     		ldr	r3, .L42+4
 469 0010 1B68     		ldr	r3, [r3]
 470 0012 181A     		subs	r0, r3, r0
 471 0014 7A4B     		ldr	r3, .L42+8
 472 0016 1B88     		ldrh	r3, [r3]
 473 0018 5843     		muls	r0, r3
 474 001a FFF7FEFF 		bl	__aeabi_i2d
 475              	.LVL29:
 476 001e FC23     		movs	r3, #252
 477 0020 0022     		movs	r2, #0
 478 0022 9B05     		lsls	r3, r3, #22
 479 0024 FFF7FEFF 		bl	__aeabi_dmul
 480              	.LVL30:
 481 0028 FFF7FEFF 		bl	__aeabi_d2iz
 482              	.LVL31:
 155:bme280.c      ****     X2 = MC * pow(2, 11) / (X1 + MD);
 483              		.loc 1 155 0
 484 002c 754B     		ldr	r3, .L42+12
 154:bme280.c      ****     X2 = MC * pow(2, 11) / (X1 + MD);
 485              		.loc 1 154 0
 486 002e 764D     		ldr	r5, .L42+16
 487 0030 0400     		movs	r4, r0
 488 0032 2860     		str	r0, [r5]
 489              		.loc 1 155 0
 490 0034 0020     		movs	r0, #0
 491 0036 185E     		ldrsh	r0, [r3, r0]
 492 0038 FFF7FEFF 		bl	__aeabi_i2d
 493              	.LVL32:
 494 003c 0022     		movs	r2, #0
 495 003e 734B     		ldr	r3, .L42+20
 496 0040 FFF7FEFF 		bl	__aeabi_dmul
 497              	.LVL33:
 498 0044 724B     		ldr	r3, .L42+24
 499 0046 0600     		movs	r6, r0
 500 0048 0020     		movs	r0, #0
 501 004a 185E     		ldrsh	r0, [r3, r0]
 502 004c 0F00     		movs	r7, r1
 503 004e 0019     		adds	r0, r0, r4
 504 0050 FFF7FEFF 		bl	__aeabi_i2d
 505              	.LVL34:
 506 0054 0200     		movs	r2, r0
 507 0056 0B00     		movs	r3, r1
 508 0058 3000     		movs	r0, r6
 509 005a 3900     		movs	r1, r7
 510 005c FFF7FEFF 		bl	__aeabi_ddiv
 511              	.LVL35:
 512 0060 FFF7FEFF 		bl	__aeabi_d2iz
ARM GAS  C:\Users\7709\AppData\Local\Temp\ccC6CyHV.s 			page 13


 513              	.LVL36:
 514 0064 6B4E     		ldr	r6, .L42+28
 156:bme280.c      ****     B5 = X1 + X2;
 515              		.loc 1 156 0
 516 0066 6C4F     		ldr	r7, .L42+32
 155:bme280.c      ****     X2 = MC * pow(2, 11) / (X1 + MD);
 517              		.loc 1 155 0
 518 0068 3060     		str	r0, [r6]
 519              		.loc 1 156 0
 520 006a 2018     		adds	r0, r4, r0
 521 006c 3860     		str	r0, [r7]
 157:bme280.c      ****   //  Temperature = (B5 + 8) / pow(2, 4);
 158:bme280.c      ****    
 159:bme280.c      ****     Temperature= gettemp280();
 522              		.loc 1 159 0
 523 006e FFF7FEFF 		bl	gettemp280
 524              	.LVL37:
 525 0072 6A4C     		ldr	r4, .L42+36
 526 0074 2060     		str	r0, [r4]
 160:bme280.c      ****     UART_UartPutString("\n\r TEMP \n\r ");
 527              		.loc 1 160 0
 528 0076 6A48     		ldr	r0, .L42+40
 529 0078 FFF7FEFF 		bl	UART_UartPutString
 530              	.LVL38:
 161:bme280.c      **** 
 162:bme280.c      ****     UART_UartPutString(ltoa(Temperature));
 531              		.loc 1 162 0
 532 007c 2068     		ldr	r0, [r4]
 533 007e FFF7FEFF 		bl	ltoa
 534              	.LVL39:
 535 0082 FFF7FEFF 		bl	UART_UartPutString
 536              	.LVL40:
 163:bme280.c      ****     
 164:bme280.c      ****     
 165:bme280.c      ****     /* Calculate the true barometric pressure as described in sensor datasheet */
 166:bme280.c      ****     B6 = B5 - 4000;
 537              		.loc 1 166 0
 538 0086 3F68     		ldr	r7, [r7]
 539 0088 664B     		ldr	r3, .L42+44
 540 008a FF18     		adds	r7, r7, r3
 167:bme280.c      ****     X1 = (B2 * (B6 * B6 / pow(2, 12))) / pow(2, 11);
 541              		.loc 1 167 0
 542 008c 3800     		movs	r0, r7
 166:bme280.c      ****     X1 = (B2 * (B6 * B6 / pow(2, 12))) / pow(2, 11);
 543              		.loc 1 166 0
 544 008e 664B     		ldr	r3, .L42+48
 545              		.loc 1 167 0
 546 0090 7843     		muls	r0, r7
 166:bme280.c      ****     X1 = (B2 * (B6 * B6 / pow(2, 12))) / pow(2, 11);
 547              		.loc 1 166 0
 548 0092 1F60     		str	r7, [r3]
 549              		.loc 1 167 0
 550 0094 FFF7FEFF 		bl	__aeabi_i2d
 551              	.LVL41:
 552 0098 0022     		movs	r2, #0
 553 009a 644B     		ldr	r3, .L42+52
 554 009c FFF7FEFF 		bl	__aeabi_dmul
ARM GAS  C:\Users\7709\AppData\Local\Temp\ccC6CyHV.s 			page 14


 555              	.LVL42:
 556 00a0 634B     		ldr	r3, .L42+56
 557 00a2 0090     		str	r0, [sp]
 558 00a4 0191     		str	r1, [sp, #4]
 168:bme280.c      ****     X2 = AC2 * B6 / pow(2, 11);
 169:bme280.c      ****     X3 = X1 + X2;
 170:bme280.c      ****     B3 = (((AC1 * 4 + X3) << OSS) + 2) / 4;
 559              		.loc 1 170 0
 560 00a6 0020     		movs	r0, #0
 561 00a8 185E     		ldrsh	r0, [r3, r0]
 562 00aa FFF7FEFF 		bl	__aeabi_i2d
 563              	.LVL43:
 564 00ae 009A     		ldr	r2, [sp]
 565 00b0 019B     		ldr	r3, [sp, #4]
 566 00b2 FFF7FEFF 		bl	__aeabi_dmul
 567              	.LVL44:
 568 00b6 FD23     		movs	r3, #253
 569 00b8 0022     		movs	r2, #0
 570 00ba 9B05     		lsls	r3, r3, #22
 571 00bc FFF7FEFF 		bl	__aeabi_dmul
 572              	.LVL45:
 573 00c0 FFF7FEFF 		bl	__aeabi_d2iz
 574              	.LVL46:
 168:bme280.c      ****     X2 = AC2 * B6 / pow(2, 11);
 575              		.loc 1 168 0
 576 00c4 5B4B     		ldr	r3, .L42+60
 577              		.loc 1 170 0
 578 00c6 0400     		movs	r4, r0
 579 00c8 0020     		movs	r0, #0
 580 00ca 185E     		ldrsh	r0, [r3, r0]
 581 00cc 7843     		muls	r0, r7
 582 00ce FFF7FEFF 		bl	__aeabi_i2d
 583              	.LVL47:
 584 00d2 FD23     		movs	r3, #253
 585 00d4 0022     		movs	r2, #0
 586 00d6 9B05     		lsls	r3, r3, #22
 587 00d8 FFF7FEFF 		bl	__aeabi_dmul
 588              	.LVL48:
 589 00dc FFF7FEFF 		bl	__aeabi_d2iz
 590              	.LVL49:
 591 00e0 554B     		ldr	r3, .L42+64
 592 00e2 2018     		adds	r0, r4, r0
 593 00e4 0022     		movs	r2, #0
 594 00e6 9B5E     		ldrsh	r3, [r3, r2]
 595 00e8 9B00     		lsls	r3, r3, #2
 596 00ea C018     		adds	r0, r0, r3
 597 00ec 0323     		movs	r3, #3
 598 00ee C000     		lsls	r0, r0, #3
 599 00f0 0230     		adds	r0, r0, #2
 600 00f2 C417     		asrs	r4, r0, #31
 601 00f4 1C40     		ands	r4, r3
 602 00f6 2418     		adds	r4, r4, r0
 603 00f8 504B     		ldr	r3, .L42+68
 604 00fa A410     		asrs	r4, r4, #2
 605 00fc 1C60     		str	r4, [r3]
 171:bme280.c      ****     X1 = AC3 * B6 / pow(2, 13);
 606              		.loc 1 171 0
ARM GAS  C:\Users\7709\AppData\Local\Temp\ccC6CyHV.s 			page 15


 607 00fe 504B     		ldr	r3, .L42+72
 608 0100 0020     		movs	r0, #0
 609 0102 185E     		ldrsh	r0, [r3, r0]
 610 0104 7843     		muls	r0, r7
 611 0106 FFF7FEFF 		bl	__aeabi_i2d
 612              	.LVL50:
 613 010a 0022     		movs	r2, #0
 614 010c 4D4B     		ldr	r3, .L42+76
 615 010e FFF7FEFF 		bl	__aeabi_dmul
 616              	.LVL51:
 617 0112 FFF7FEFF 		bl	__aeabi_d2iz
 618              	.LVL52:
 172:bme280.c      ****     X2 = (B1 * (B6 * B6 / pow(2, 12))) / pow(2, 16);
 619              		.loc 1 172 0
 620 0116 4C4B     		ldr	r3, .L42+80
 171:bme280.c      ****     X1 = AC3 * B6 / pow(2, 13);
 621              		.loc 1 171 0
 622 0118 0700     		movs	r7, r0
 623              		.loc 1 172 0
 624 011a 0020     		movs	r0, #0
 625 011c 185E     		ldrsh	r0, [r3, r0]
 626 011e FFF7FEFF 		bl	__aeabi_i2d
 627              	.LVL53:
 628 0122 009A     		ldr	r2, [sp]
 629 0124 019B     		ldr	r3, [sp, #4]
 630 0126 FFF7FEFF 		bl	__aeabi_dmul
 631              	.LVL54:
 632 012a 0022     		movs	r2, #0
 633 012c 474B     		ldr	r3, .L42+84
 634 012e FFF7FEFF 		bl	__aeabi_dmul
 635              	.LVL55:
 636 0132 FFF7FEFF 		bl	__aeabi_d2iz
 637              	.LVL56:
 173:bme280.c      ****     X3 = ((X1 + X2) + 2) / pow(2, 2);
 638              		.loc 1 173 0
 639 0136 3818     		adds	r0, r7, r0
 640 0138 0230     		adds	r0, r0, #2
 641 013a FFF7FEFF 		bl	__aeabi_i2d
 642              	.LVL57:
 643 013e 0022     		movs	r2, #0
 644 0140 434B     		ldr	r3, .L42+88
 645 0142 FFF7FEFF 		bl	__aeabi_dmul
 646              	.LVL58:
 647 0146 FFF7FEFF 		bl	__aeabi_d2iz
 648              	.LVL59:
 174:bme280.c      ****     B4 = (AC4 * (unsigned long)(X3 + 32768)) / pow(2, 15);
 649              		.loc 1 174 0
 650 014a 8022     		movs	r2, #128
 173:bme280.c      ****     X3 = ((X1 + X2) + 2) / pow(2, 2);
 651              		.loc 1 173 0
 652 014c 414B     		ldr	r3, .L42+92
 653              		.loc 1 174 0
 654 014e 1202     		lsls	r2, r2, #8
 173:bme280.c      ****     X3 = ((X1 + X2) + 2) / pow(2, 2);
 655              		.loc 1 173 0
 656 0150 1860     		str	r0, [r3]
 657              		.loc 1 174 0
ARM GAS  C:\Users\7709\AppData\Local\Temp\ccC6CyHV.s 			page 16


 658 0152 414B     		ldr	r3, .L42+96
 659 0154 8018     		adds	r0, r0, r2
 660 0156 1B88     		ldrh	r3, [r3]
 661 0158 5843     		muls	r0, r3
 662 015a FFF7FEFF 		bl	__aeabi_ui2d
 663              	.LVL60:
 664 015e FC23     		movs	r3, #252
 665 0160 0022     		movs	r2, #0
 666 0162 9B05     		lsls	r3, r3, #22
 667 0164 FFF7FEFF 		bl	__aeabi_dmul
 668              	.LVL61:
 669 0168 FFF7FEFF 		bl	__aeabi_d2uiz
 670              	.LVL62:
 671 016c 3B4B     		ldr	r3, .L42+100
 672 016e 0100     		movs	r1, r0
 673 0170 1860     		str	r0, [r3]
 175:bme280.c      ****     B7 = ((unsigned long)UP280 - B3) * (50000 >> OSS);
 674              		.loc 1 175 0
 675 0172 3B4B     		ldr	r3, .L42+104
 676 0174 3B4F     		ldr	r7, .L42+108
 677 0176 1868     		ldr	r0, [r3]
 678 0178 3B4B     		ldr	r3, .L42+112
 679 017a 001B     		subs	r0, r0, r4
 680 017c 5843     		muls	r0, r3
 681 017e 3B4B     		ldr	r3, .L42+116
 682 0180 1860     		str	r0, [r3]
 176:bme280.c      ****     if(B7 < 0x80000000)
 683              		.loc 1 176 0
 684 0182 0028     		cmp	r0, #0
 685 0184 03DB     		blt	.L39
 177:bme280.c      ****     {
 178:bme280.c      ****         Pressure = (B7 *2) / B4;
 686              		.loc 1 178 0
 687 0186 4000     		lsls	r0, r0, #1
 688 0188 FFF7FEFF 		bl	__aeabi_uidiv
 689              	.LVL63:
 690 018c 02E0     		b	.L41
 691              	.L39:
 179:bme280.c      ****     }
 180:bme280.c      ****     else 
 181:bme280.c      ****     {
 182:bme280.c      ****         Pressure = (B7 / B4) *2;
 692              		.loc 1 182 0
 693 018e FFF7FEFF 		bl	__aeabi_uidiv
 694              	.LVL64:
 695 0192 4000     		lsls	r0, r0, #1
 696              	.L41:
 697 0194 3860     		str	r0, [r7]
 183:bme280.c      ****     }
 184:bme280.c      ****     X1 = (Pressure / pow(2, 8)) * (Pressure / pow(2, 8));
 698              		.loc 1 184 0
 699 0196 3C68     		ldr	r4, [r7]
 185:bme280.c      ****     X1 = (X1 * 3038) / pow(2, 16);
 186:bme280.c      ****     X2 = (-7357 * Pressure) / pow(2, 16);
 187:bme280.c      ****     //Pressure = Pressure + (X1 + X2 + 3791) / pow(2, 4);
 188:bme280.c      ****     Pressure= getpress280(); 
 189:bme280.c      ****     
ARM GAS  C:\Users\7709\AppData\Local\Temp\ccC6CyHV.s 			page 17


 190:bme280.c      ****     UART_UartPutString("\n\r PRESS \n\r ");
 191:bme280.c      ****     UART_UartPutString(ltoa(Pressure));
 192:bme280.c      ****     /* Calculate the true altitude based on pressure at sea level as described in sensor datasheet 
 193:bme280.c      ****     //Altitude = 44330 * (1 - ( pow(Pressure/PressureAtSeaLevel, 1/5.255)));
 194:bme280.c      **** }
 700              		.loc 1 194 0
 701              		@ sp needed
 184:bme280.c      ****     X1 = (X1 * 3038) / pow(2, 16);
 702              		.loc 1 184 0
 703 0198 2000     		movs	r0, r4
 704 019a FFF7FEFF 		bl	__aeabi_i2d
 705              	.LVL65:
 706 019e 0022     		movs	r2, #0
 707 01a0 334B     		ldr	r3, .L42+120
 708 01a2 FFF7FEFF 		bl	__aeabi_dmul
 709              	.LVL66:
 185:bme280.c      ****     X1 = (X1 * 3038) / pow(2, 16);
 710              		.loc 1 185 0
 711 01a6 0200     		movs	r2, r0
 712 01a8 0B00     		movs	r3, r1
 713 01aa FFF7FEFF 		bl	__aeabi_dmul
 714              	.LVL67:
 715 01ae FFF7FEFF 		bl	__aeabi_d2iz
 716              	.LVL68:
 717 01b2 304B     		ldr	r3, .L42+124
 718 01b4 5843     		muls	r0, r3
 719 01b6 FFF7FEFF 		bl	__aeabi_i2d
 720              	.LVL69:
 721 01ba 0022     		movs	r2, #0
 722 01bc 234B     		ldr	r3, .L42+84
 723 01be FFF7FEFF 		bl	__aeabi_dmul
 724              	.LVL70:
 725 01c2 FFF7FEFF 		bl	__aeabi_d2iz
 726              	.LVL71:
 727 01c6 2860     		str	r0, [r5]
 186:bme280.c      ****     //Pressure = Pressure + (X1 + X2 + 3791) / pow(2, 4);
 728              		.loc 1 186 0
 729 01c8 2B48     		ldr	r0, .L42+128
 730 01ca 6043     		muls	r0, r4
 731 01cc FFF7FEFF 		bl	__aeabi_i2d
 732              	.LVL72:
 733 01d0 0022     		movs	r2, #0
 734 01d2 1E4B     		ldr	r3, .L42+84
 735 01d4 FFF7FEFF 		bl	__aeabi_dmul
 736              	.LVL73:
 737 01d8 FFF7FEFF 		bl	__aeabi_d2iz
 738              	.LVL74:
 739 01dc 3060     		str	r0, [r6]
 188:bme280.c      ****     
 740              		.loc 1 188 0
 741 01de FFF7FEFF 		bl	getpress280
 742              	.LVL75:
 743 01e2 3860     		str	r0, [r7]
 190:bme280.c      ****     UART_UartPutString(ltoa(Pressure));
 744              		.loc 1 190 0
 745 01e4 2548     		ldr	r0, .L42+132
 746 01e6 FFF7FEFF 		bl	UART_UartPutString
ARM GAS  C:\Users\7709\AppData\Local\Temp\ccC6CyHV.s 			page 18


 747              	.LVL76:
 191:bme280.c      ****     /* Calculate the true altitude based on pressure at sea level as described in sensor datasheet 
 748              		.loc 1 191 0
 749 01ea 3868     		ldr	r0, [r7]
 750 01ec FFF7FEFF 		bl	ltoa
 751              	.LVL77:
 752 01f0 FFF7FEFF 		bl	UART_UartPutString
 753              	.LVL78:
 754              		.loc 1 194 0
 755 01f4 F7BD     		pop	{r0, r1, r2, r4, r5, r6, r7, pc}
 756              	.L43:
 757 01f6 C046     		.align	2
 758              	.L42:
 759 01f8 00000000 		.word	AC6
 760 01fc 00000000 		.word	UT280
 761 0200 00000000 		.word	AC5
 762 0204 00000000 		.word	MC
 763 0208 00000000 		.word	X1
 764 020c 0000A040 		.word	1084227584
 765 0210 00000000 		.word	MD
 766 0214 00000000 		.word	X2
 767 0218 00000000 		.word	B5
 768 021c 00000000 		.word	Temperature
 769 0220 00000000 		.word	.LC53
 770 0224 60F0FFFF 		.word	-4000
 771 0228 00000000 		.word	B6
 772 022c 0000303F 		.word	1060110336
 773 0230 00000000 		.word	B2
 774 0234 00000000 		.word	AC2
 775 0238 00000000 		.word	AC1
 776 023c 00000000 		.word	B3
 777 0240 00000000 		.word	AC3
 778 0244 0000203F 		.word	1059061760
 779 0248 00000000 		.word	B1
 780 024c 0000F03E 		.word	1055916032
 781 0250 0000D03F 		.word	1070596096
 782 0254 00000000 		.word	X3
 783 0258 00000000 		.word	AC4
 784 025c 00000000 		.word	B4
 785 0260 00000000 		.word	UP280
 786 0264 00000000 		.word	Pressure
 787 0268 6A180000 		.word	6250
 788 026c 00000000 		.word	B7
 789 0270 0000703F 		.word	1064304640
 790 0274 DE0B0000 		.word	3038
 791 0278 43E3FFFF 		.word	-7357
 792 027c 0C000000 		.word	.LC68
 793              		.cfi_endproc
 794              	.LFE40:
 795              		.size	ReadAndCalculateSensorData, .-ReadAndCalculateSensorData
 796              		.global	CalibrationDataAvailable
 797              		.global	PressureAtSeaLevel
 798              		.comm	Altitude,4,4
 799              		.comm	Pressure,4,4
 800              		.comm	Temperature,4,4
 801              		.comm	AC6,2,2
 802              		.comm	AC5,2,2
ARM GAS  C:\Users\7709\AppData\Local\Temp\ccC6CyHV.s 			page 19


 803              		.comm	AC4,2,2
 804              		.comm	MD,2,2
 805              		.comm	MC,2,2
 806              		.comm	B2,2,2
 807              		.comm	B1,2,2
 808              		.comm	AC3,2,2
 809              		.comm	AC2,2,2
 810              		.comm	AC1,2,2
 811              		.comm	B7,4,4
 812              		.comm	B4,4,4
 813              		.comm	UP,4,4
 814              		.comm	UT,4,4
 815              		.comm	B6,4,4
 816              		.comm	B5,4,4
 817              		.comm	B3,4,4
 818              		.comm	X3,4,4
 819              		.comm	X2,4,4
 820              		.comm	X1,4,4
 821              		.comm	SensorCalibrationData,22,1
 822              		.comm	press280,4,4
 823              		.comm	hum280,4,4
 824              		.comm	temp280,4,4
 825              		.comm	UP280,4,4
 826              		.comm	UH280,4,4
 827              		.comm	UT280,4,4
 828              		.section	.rodata.str1.1,"aMS",%progbits,1
 829              	.LC53:
 830 0000 0A0D2054 		.ascii	"\012\015 TEMP \012\015 \000"
 830      454D5020 
 830      0A0D2000 
 831              	.LC68:
 832 000c 0A0D2050 		.ascii	"\012\015 PRESS \012\015 \000"
 832      52455353 
 832      200A0D20 
 832      00
 833              		.data
 834              		.align	3
 835              		.set	.LANCHOR0,. + 0
 836              		.type	I2CWriteBufferT.8021, %object
 837              		.size	I2CWriteBufferT.8021, 1
 838              	I2CWriteBufferT.8021:
 839 0000 F4       		.byte	-12
 840              		.type	I2CWriteBufferP.8033, %object
 841              		.size	I2CWriteBufferP.8033, 1
 842              	I2CWriteBufferP.8033:
 843 0001 F7       		.byte	-9
 844              		.type	SetReadAddressBufferP.8034, %object
 845              		.size	SetReadAddressBufferP.8034, 1
 846              	SetReadAddressBufferP.8034:
 847 0002 F6       		.byte	-10
 848              		.type	I2CWriteBuffer.8051, %object
 849              		.size	I2CWriteBuffer.8051, 1
 850              	I2CWriteBuffer.8051:
 851 0003 AA       		.byte	-86
 852 0004 00000000 		.space	4
 853              		.type	PressureAtSeaLevel, %object
 854              		.size	PressureAtSeaLevel, 8
ARM GAS  C:\Users\7709\AppData\Local\Temp\ccC6CyHV.s 			page 20


 855              	PressureAtSeaLevel:
 856 0008 00000000 		.word	0
 857 000c D0BCF840 		.word	1090043088
 858              		.bss
 859              		.set	.LANCHOR1,. + 0
 860              		.type	I2CReadBufferT.8020, %object
 861              		.size	I2CReadBufferT.8020, 2
 862              	I2CReadBufferT.8020:
 863 0000 0000     		.space	2
 864              		.type	I2CReadBufferP.8032, %object
 865              		.size	I2CReadBufferP.8032, 3
 866              	I2CReadBufferP.8032:
 867 0002 000000   		.space	3
 868              		.type	CalibrationDataAvailable, %object
 869              		.size	CalibrationDataAvailable, 1
 870              	CalibrationDataAvailable:
 871 0005 00       		.space	1
 872              		.text
 873              	.Letext0:
 874              		.file 2 "Generated_Source\\PSoC4/cytypes.h"
 875              		.file 3 "bme280.h"
 876              		.file 4 "Generated_Source\\PSoC4/I2C_1_scl.h"
 877              		.file 5 "Generated_Source\\PSoC4/I2C_1_sda.h"
 878              		.file 6 "Generated_Source\\PSoC4/I2C_1_I2C.h"
 879              		.file 7 "Generated_Source\\PSoC4/I2C_1.h"
 880              		.file 8 "Generated_Source\\PSoC4/CyLib.h"
 881              		.file 9 "Generated_Source\\PSoC4/UART_SPI_UART.h"
 882              		.file 10 "teste.h"
 883              		.file 11 "Generated_Source\\PSoC4/BLE_Stack.h"