ARM GAS  C:\Users\7709\AppData\Local\Temp\ccC8n8LB.s 			page 1


   1              		.syntax unified
   2              		.cpu cortex-m0
   3              		.fpu softvfp
   4              		.eabi_attribute 20, 1
   5              		.eabi_attribute 21, 1
   6              		.eabi_attribute 23, 3
   7              		.eabi_attribute 24, 1
   8              		.eabi_attribute 25, 1
   9              		.eabi_attribute 26, 1
  10              		.eabi_attribute 30, 4
  11              		.eabi_attribute 34, 0
  12              		.eabi_attribute 18, 4
  13              		.thumb
  14              		.syntax unified
  15              		.file	"HTU21D.c"
  16              		.text
  17              	.Ltext0:
  18              		.cfi_sections	.debug_frame
  19              		.global	__aeabi_i2f
  20              		.global	__aeabi_f2d
  21              		.global	__aeabi_dmul
  22              		.global	__aeabi_d2f
  23              		.global	__aeabi_fmul
  24              		.global	__aeabi_dsub
  25              		.global	__aeabi_f2uiz
  26              		.section	.text.getTemp,"ax",%progbits
  27              		.align	1
  28              		.global	getTemp
  29              		.code	16
  30              		.thumb_func
  31              		.type	getTemp, %function
  32              	getTemp:
  33              	.LFB2:
  34              		.file 1 "HTU21D.c"
   1:HTU21D.c      **** /* ========================================
   2:HTU21D.c      ****  *
   3:HTU21D.c      ****  * HTU21D Sensor 
   4:HTU21D.c      ****  *  I2C interface communication
   5:HTU21D.c      **** 
   6:HTU21D.c      ****  * ========================================
   7:HTU21D.c      **** */
   8:HTU21D.c      **** 
   9:HTU21D.c      **** #include "htu21d.h"
  10:HTU21D.c      **** #include "I2C_1.h"
  11:HTU21D.c      **** 
  12:HTU21D.c      **** 
  13:HTU21D.c      **** int getTemp(){
  35              		.loc 1 13 0
  36              		.cfi_startproc
  37              		@ args = 0, pretend = 0, frame = 0
  38              		@ frame_needed = 0, uses_anonymous_args = 0
  39 0000 70B5     		push	{r4, r5, r6, lr}
  40              		.cfi_def_cfa_offset 16
  41              		.cfi_offset 4, -16
  42              		.cfi_offset 5, -12
  43              		.cfi_offset 6, -8
  44              		.cfi_offset 14, -4
ARM GAS  C:\Users\7709\AppData\Local\Temp\ccC8n8LB.s 			page 2


  14:HTU21D.c      ****     I2C_1_Start(); 
  45              		.loc 1 14 0
  46 0002 FFF7FEFF 		bl	I2C_1_Start
  47              	.LVL0:
  15:HTU21D.c      ****     static uint8 softreset[0x01]={0xfe}; // Soft reset code
  16:HTU21D.c      ****     static uint8 I2CReadBuffer[0x04]; //The uncompensated temperature read from the sensor is store
  17:HTU21D.c      ****     static uint8 I2CWriteBuffer[0x01] = {0xE3}; //Command for temperature conversion - Register add
  18:HTU21D.c      ****     static uint8 SetReadAddressBuffer[0x01] = {0x40}; //Register address from which the data is rea
  19:HTU21D.c      ****     //CyDelay(15);
  20:HTU21D.c      ****     /* Do a write operation with the memory address bytes to get temperature data */
  21:HTU21D.c      **** 	I2C_1_I2CMasterWriteBuf(DEVICEADDRESS, (uint8 *) I2CWriteBuffer, sizeof(I2CWriteBuffer), I2C_I2C_M
  48              		.loc 1 21 0
  49 0006 0023     		movs	r3, #0
  50 0008 0122     		movs	r2, #1
  51 000a 1F49     		ldr	r1, .L9
  52 000c 4020     		movs	r0, #64
  53 000e FFF7FEFF 		bl	I2C_1_I2CMasterWriteBuf
  54              	.LVL1:
  22:HTU21D.c      ****     while(!(I2C_1_I2CMasterStatus() & I2C_I2C_MSTAT_WR_CMPLT)); //Wait till the master completes wr
  55              		.loc 1 22 0
  56 0012 0224     		movs	r4, #2
  57              	.L2:
  58              		.loc 1 22 0 is_stmt 0 discriminator 1
  59 0014 FFF7FEFF 		bl	I2C_1_I2CMasterStatus
  60              	.LVL2:
  61 0018 2042     		tst	r0, r4
  62 001a FBD0     		beq	.L2
  23:HTU21D.c      ****     I2C_1_I2CMasterClearStatus(); //Clear I2C master status
  63              		.loc 1 23 0 is_stmt 1
  64 001c FFF7FEFF 		bl	I2C_1_I2CMasterClearStatus
  65              	.LVL3:
  24:HTU21D.c      ****     
  25:HTU21D.c      ****     CyDelay(5); //Wait for 5ms temperature conversion
  66              		.loc 1 25 0
  67 0020 0520     		movs	r0, #5
  68 0022 FFF7FEFF 		bl	CyDelay
  69              	.LVL4:
  26:HTU21D.c      ****  
  27:HTU21D.c      ****     /* Read temperature from the sensor and store it in a buffer */
  28:HTU21D.c      **** 	I2C_1_I2CMasterReadBuf(DEVICEADDRESS, (uint8 *) I2CReadBuffer, sizeof(I2CReadBuffer), I2C_I2C_MODE
  70              		.loc 1 28 0
  71 0026 194C     		ldr	r4, .L9+4
  72 0028 0023     		movs	r3, #0
  73 002a 0422     		movs	r2, #4
  74 002c 2100     		movs	r1, r4
  75 002e 4020     		movs	r0, #64
  76 0030 FFF7FEFF 		bl	I2C_1_I2CMasterReadBuf
  77              	.LVL5:
  29:HTU21D.c      ****     while(!(I2C_1_I2CMasterStatus() & I2C_I2C_MSTAT_RD_CMPLT)); //Wait till the master completes re
  78              		.loc 1 29 0
  79 0034 0125     		movs	r5, #1
  80              	.L3:
  81              		.loc 1 29 0 is_stmt 0 discriminator 1
  82 0036 FFF7FEFF 		bl	I2C_1_I2CMasterStatus
  83              	.LVL6:
  84 003a 2842     		tst	r0, r5
  85 003c FBD0     		beq	.L3
ARM GAS  C:\Users\7709\AppData\Local\Temp\ccC8n8LB.s 			page 3


  30:HTU21D.c      ****     I2C_1_I2CMasterClearStatus(); //Clear I2C master status
  86              		.loc 1 30 0 is_stmt 1
  87 003e FFF7FEFF 		bl	I2C_1_I2CMasterClearStatus
  88              	.LVL7:
  31:HTU21D.c      ****     
  32:HTU21D.c      **** 	UT = (I2CReadBuffer[0x00] << 0x08) | I2CReadBuffer[0x01]; //Return uncompensated temperature value
  89              		.loc 1 32 0
  90 0042 2078     		ldrb	r0, [r4]
  91 0044 6378     		ldrb	r3, [r4, #1]
  92 0046 0002     		lsls	r0, r0, #8
  93 0048 1843     		orrs	r0, r3
  94 004a 114B     		ldr	r3, .L9+8
  33:HTU21D.c      ****     
  34:HTU21D.c      ****                             // Conversion //
  35:HTU21D.c      ****     temp=UT;
  36:HTU21D.c      ****     temp *= 175.72;
  37:HTU21D.c      ****     temp /= 65536;
  38:HTU21D.c      ****     temp -= 46.85;
  39:HTU21D.c      ****     return (uint8)temp;
  40:HTU21D.c      **** }
  95              		.loc 1 40 0
  96              		@ sp needed
  32:HTU21D.c      ****     
  97              		.loc 1 32 0
  98 004c 1860     		str	r0, [r3]
  38:HTU21D.c      ****     return (uint8)temp;
  99              		.loc 1 38 0
 100 004e FFF7FEFF 		bl	__aeabi_i2f
 101              	.LVL8:
 102 0052 FFF7FEFF 		bl	__aeabi_f2d
 103              	.LVL9:
 104 0056 0F4A     		ldr	r2, .L9+12
 105 0058 0F4B     		ldr	r3, .L9+16
 106 005a FFF7FEFF 		bl	__aeabi_dmul
 107              	.LVL10:
 108 005e FFF7FEFF 		bl	__aeabi_d2f
 109              	.LVL11:
 110 0062 DE21     		movs	r1, #222
 111 0064 8905     		lsls	r1, r1, #22
 112 0066 FFF7FEFF 		bl	__aeabi_fmul
 113              	.LVL12:
 114 006a FFF7FEFF 		bl	__aeabi_f2d
 115              	.LVL13:
 116 006e 0B4A     		ldr	r2, .L9+20
 117 0070 0B4B     		ldr	r3, .L9+24
 118 0072 FFF7FEFF 		bl	__aeabi_dsub
 119              	.LVL14:
 120 0076 FFF7FEFF 		bl	__aeabi_d2f
 121              	.LVL15:
 122 007a 0A4B     		ldr	r3, .L9+28
 123 007c 1860     		str	r0, [r3]
  39:HTU21D.c      **** }
 124              		.loc 1 39 0
 125 007e FFF7FEFF 		bl	__aeabi_f2uiz
 126              	.LVL16:
 127 0082 C0B2     		uxtb	r0, r0
 128              		.loc 1 40 0
ARM GAS  C:\Users\7709\AppData\Local\Temp\ccC8n8LB.s 			page 4


 129 0084 70BD     		pop	{r4, r5, r6, pc}
 130              	.L10:
 131 0086 C046     		.align	2
 132              	.L9:
 133 0088 00000000 		.word	.LANCHOR0
 134 008c 00000000 		.word	.LANCHOR1
 135 0090 00000000 		.word	UT
 136 0094 D7A3703D 		.word	1030792151
 137 0098 0AF76540 		.word	1080424202
 138 009c CDCCCCCC 		.word	-858993459
 139 00a0 CC6C4740 		.word	1078422732
 140 00a4 00000000 		.word	temp
 141              		.cfi_endproc
 142              	.LFE2:
 143              		.size	getTemp, .-getTemp
 144              		.global	__aeabi_fsub
 145              		.section	.text.getHum,"ax",%progbits
 146              		.align	1
 147              		.global	getHum
 148              		.code	16
 149              		.thumb_func
 150              		.type	getHum, %function
 151              	getHum:
 152              	.LFB3:
  41:HTU21D.c      **** 
  42:HTU21D.c      **** int getHum(){
 153              		.loc 1 42 0
 154              		.cfi_startproc
 155              		@ args = 0, pretend = 0, frame = 0
 156              		@ frame_needed = 0, uses_anonymous_args = 0
 157 0000 70B5     		push	{r4, r5, r6, lr}
 158              		.cfi_def_cfa_offset 16
 159              		.cfi_offset 4, -16
 160              		.cfi_offset 5, -12
 161              		.cfi_offset 6, -8
 162              		.cfi_offset 14, -4
  43:HTU21D.c      ****     I2C_1_Start(); 
 163              		.loc 1 43 0
 164 0002 FFF7FEFF 		bl	I2C_1_Start
 165              	.LVL17:
  44:HTU21D.c      ****     static uint8 I2CReadBuffer[0x04]; //The uncompensated humidity read from the sensor is stored h
  45:HTU21D.c      ****     static uint8 I2CWriteBuffer[0x01] = {0xE5}; //Command for hui conversion - Register address and
  46:HTU21D.c      ****     static uint8 SetReadAddressBuffer[0x01] = {0x40}; //Register address from which the data is rea
  47:HTU21D.c      ****     
  48:HTU21D.c      ****     /* Do a write operation with the memory address bytes to get humidity data */
  49:HTU21D.c      **** 	I2C_1_I2CMasterWriteBuf(DEVICEADDRESS, (uint8 *) I2CWriteBuffer, sizeof(I2CWriteBuffer), I2C_I2C_M
 166              		.loc 1 49 0
 167 0006 0122     		movs	r2, #1
 168 0008 1A49     		ldr	r1, .L18
 169 000a 0023     		movs	r3, #0
 170 000c 8918     		adds	r1, r1, r2
 171 000e 4020     		movs	r0, #64
 172 0010 FFF7FEFF 		bl	I2C_1_I2CMasterWriteBuf
 173              	.LVL18:
  50:HTU21D.c      ****     while(!(I2C_1_I2CMasterStatus() & I2C_I2C_MSTAT_WR_CMPLT)); //Wait till the master completes wr
 174              		.loc 1 50 0
 175 0014 0224     		movs	r4, #2
ARM GAS  C:\Users\7709\AppData\Local\Temp\ccC8n8LB.s 			page 5


 176              	.L12:
 177              		.loc 1 50 0 is_stmt 0 discriminator 1
 178 0016 FFF7FEFF 		bl	I2C_1_I2CMasterStatus
 179              	.LVL19:
 180 001a 2042     		tst	r0, r4
 181 001c FBD0     		beq	.L12
  51:HTU21D.c      ****     I2C_1_I2CMasterClearStatus(); //Clear I2C master status
 182              		.loc 1 51 0 is_stmt 1
 183 001e FFF7FEFF 		bl	I2C_1_I2CMasterClearStatus
 184              	.LVL20:
  52:HTU21D.c      ****     
  53:HTU21D.c      ****     CyDelay(5); //Wait for 5ms huidity conversion
 185              		.loc 1 53 0
 186 0022 0520     		movs	r0, #5
 187 0024 FFF7FEFF 		bl	CyDelay
 188              	.LVL21:
  54:HTU21D.c      ****     
  55:HTU21D.c      ****     /* Read pressure from the sensor and store it in a buffer */
  56:HTU21D.c      **** 	I2C_1_I2CMasterReadBuf(DEVICEADDRESS, (uint8 *) I2CReadBuffer, sizeof(I2CReadBuffer), I2C_I2C_MODE
 189              		.loc 1 56 0
 190 0028 134C     		ldr	r4, .L18+4
 191 002a 0023     		movs	r3, #0
 192 002c 211D     		adds	r1, r4, #4
 193 002e 0422     		movs	r2, #4
 194 0030 4020     		movs	r0, #64
 195 0032 FFF7FEFF 		bl	I2C_1_I2CMasterReadBuf
 196              	.LVL22:
  57:HTU21D.c      ****     while(!(I2C_1_I2CMasterStatus() & I2C_I2C_MSTAT_RD_CMPLT)); //Wait till the master completes re
 197              		.loc 1 57 0
 198 0036 0125     		movs	r5, #1
 199              	.L13:
 200              		.loc 1 57 0 is_stmt 0 discriminator 1
 201 0038 FFF7FEFF 		bl	I2C_1_I2CMasterStatus
 202              	.LVL23:
 203 003c 2842     		tst	r0, r5
 204 003e FBD0     		beq	.L13
  58:HTU21D.c      ****     I2C_1_I2CMasterClearStatus(); //Clear I2C master status
 205              		.loc 1 58 0 is_stmt 1
 206 0040 FFF7FEFF 		bl	I2C_1_I2CMasterClearStatus
 207              	.LVL24:
  59:HTU21D.c      **** 	UH =  (I2CReadBuffer[0x00] << 0x08) | I2CReadBuffer[0x01]; //Return uncompensated HUM value
 208              		.loc 1 59 0
 209 0044 2079     		ldrb	r0, [r4, #4]
 210 0046 6379     		ldrb	r3, [r4, #5]
 211 0048 0002     		lsls	r0, r0, #8
 212 004a 1843     		orrs	r0, r3
 213 004c 0B4B     		ldr	r3, .L18+8
  60:HTU21D.c      ****     
  61:HTU21D.c      ****                         // Conversion //
  62:HTU21D.c      ****     hum = UH;
  63:HTU21D.c      ****     hum *= 125;
  64:HTU21D.c      ****     hum /= 65536;
  65:HTU21D.c      ****     hum -= 6;
  66:HTU21D.c      ****     
  67:HTU21D.c      ****     return (uint8)hum;
  68:HTU21D.c      **** }
 214              		.loc 1 68 0
ARM GAS  C:\Users\7709\AppData\Local\Temp\ccC8n8LB.s 			page 6


 215              		@ sp needed
  59:HTU21D.c      **** 	UH =  (I2CReadBuffer[0x00] << 0x08) | I2CReadBuffer[0x01]; //Return uncompensated HUM value
 216              		.loc 1 59 0
 217 004e 1860     		str	r0, [r3]
  65:HTU21D.c      ****     
 218              		.loc 1 65 0
 219 0050 FFF7FEFF 		bl	__aeabi_i2f
 220              	.LVL25:
 221 0054 0A49     		ldr	r1, .L18+12
 222 0056 FFF7FEFF 		bl	__aeabi_fmul
 223              	.LVL26:
 224 005a DE21     		movs	r1, #222
 225 005c 8905     		lsls	r1, r1, #22
 226 005e FFF7FEFF 		bl	__aeabi_fmul
 227              	.LVL27:
 228 0062 0849     		ldr	r1, .L18+16
 229 0064 FFF7FEFF 		bl	__aeabi_fsub
 230              	.LVL28:
 231 0068 074B     		ldr	r3, .L18+20
 232 006a 1860     		str	r0, [r3]
  67:HTU21D.c      **** }
 233              		.loc 1 67 0
 234 006c FFF7FEFF 		bl	__aeabi_f2uiz
 235              	.LVL29:
 236 0070 C0B2     		uxtb	r0, r0
 237              		.loc 1 68 0
 238 0072 70BD     		pop	{r4, r5, r6, pc}
 239              	.L19:
 240              		.align	2
 241              	.L18:
 242 0074 00000000 		.word	.LANCHOR0
 243 0078 00000000 		.word	.LANCHOR1
 244 007c 00000000 		.word	UH
 245 0080 0000FA42 		.word	1123680256
 246 0084 0000C040 		.word	1086324736
 247 0088 00000000 		.word	hum
 248              		.cfi_endproc
 249              	.LFE3:
 250              		.size	getHum, .-getHum
 251              		.comm	temp,4,4
 252              		.comm	hum,4,4
 253              		.comm	htuhum,4,4
 254              		.comm	htutemp,4,4
 255              		.comm	UH,4,4
 256              		.comm	UT,4,4
 257              		.data
 258              		.set	.LANCHOR0,. + 0
 259              		.type	I2CWriteBuffer.5570, %object
 260              		.size	I2CWriteBuffer.5570, 1
 261              	I2CWriteBuffer.5570:
 262 0000 E3       		.byte	-29
 263              		.type	I2CWriteBuffer.5581, %object
 264              		.size	I2CWriteBuffer.5581, 1
 265              	I2CWriteBuffer.5581:
 266 0001 E5       		.byte	-27
 267              		.bss
 268              		.set	.LANCHOR1,. + 0
ARM GAS  C:\Users\7709\AppData\Local\Temp\ccC8n8LB.s 			page 7


 269              		.type	I2CReadBuffer.5569, %object
 270              		.size	I2CReadBuffer.5569, 4
 271              	I2CReadBuffer.5569:
 272 0000 00000000 		.space	4
 273              		.type	I2CReadBuffer.5580, %object
 274              		.size	I2CReadBuffer.5580, 4
 275              	I2CReadBuffer.5580:
 276 0004 00000000 		.space	4
 277              		.text
 278              	.Letext0:
 279              		.file 2 "Generated_Source\\PSoC4/cytypes.h"
 280              		.file 3 "htu21d.h"
 281              		.file 4 "Generated_Source\\PSoC4/I2C_1.h"
 282              		.file 5 "Generated_Source\\PSoC4/I2C_1_I2C.h"
 283              		.file 6 "Generated_Source\\PSoC4/CyLib.h"