ARM GAS  C:\Users\7709\AppData\Local\Temp\ccgx6Eau.s 			page 1


   1              		.syntax unified
   2              		.cpu cortex-m0
   3              		.fpu softvfp
   4              		.eabi_attribute 20, 1
   5              		.eabi_attribute 21, 1
   6              		.eabi_attribute 23, 3
   7              		.eabi_attribute 24, 1
   8              		.eabi_attribute 25, 1
   9              		.eabi_attribute 26, 1
  10              		.eabi_attribute 30, 4
  11              		.eabi_attribute 34, 0
  12              		.eabi_attribute 18, 4
  13              		.thumb
  14              		.syntax unified
  15              		.file	"teste.c"
  16              		.text
  17              	.Ltext0:
  18              		.cfi_sections	.debug_frame
  19              		.global	__aeabi_uidivmod
  20              		.global	__aeabi_uidiv
  21              		.section	.text.ultoa,"ax",%progbits
  22              		.align	1
  23              		.global	ultoa
  24              		.code	16
  25              		.thumb_func
  26              		.type	ultoa, %function
  27              	ultoa:
  28              	.LFB0:
  29              		.file 1 "teste.c"
   1:teste.c       **** /* ========================================
   2:teste.c       ****  *
   3:teste.c       ****  * Copyright YOUR COMPANY, THE YEAR
   4:teste.c       ****  * All Rights Reserved
   5:teste.c       ****  * UNPUBLISHED, LICENSED SOFTWARE.
   6:teste.c       ****  *
   7:teste.c       ****  * CONFIDENTIAL AND PROPRIETARY INFORMATION
   8:teste.c       ****  * WHICH IS THE PROPERTY OF your company.
   9:teste.c       ****  *
  10:teste.c       ****  * ========================================
  11:teste.c       **** */
  12:teste.c       **** #include "cytypes.h"
  13:teste.c       **** #include "teste.h"
  14:teste.c       **** /* [] END OF FILE */
  15:teste.c       **** static char _buf[30];
  16:teste.c       ****  
  17:teste.c       **** char* ultoa( uint32 val) {
  30              		.loc 1 17 0
  31              		.cfi_startproc
  32              		@ args = 0, pretend = 0, frame = 0
  33              		@ frame_needed = 0, uses_anonymous_args = 0
  34              	.LVL0:
  18:teste.c       ****   char* p;
  19:teste.c       ****  
  20:teste.c       ****   p = _buf + sizeof(_buf);
  21:teste.c       ****   *--p = '\0';
  35              		.loc 1 21 0
  36 0000 0023     		movs	r3, #0
ARM GAS  C:\Users\7709\AppData\Local\Temp\ccgx6Eau.s 			page 2


  17:teste.c       ****   char* p;
  37              		.loc 1 17 0
  38 0002 70B5     		push	{r4, r5, r6, lr}
  39              		.cfi_def_cfa_offset 16
  40              		.cfi_offset 4, -16
  41              		.cfi_offset 5, -12
  42              		.cfi_offset 6, -8
  43              		.cfi_offset 14, -4
  17:teste.c       ****   char* p;
  44              		.loc 1 17 0
  45 0004 0500     		movs	r5, r0
  46              		.loc 1 21 0
  47 0006 094C     		ldr	r4, .L5
  48 0008 6377     		strb	r3, [r4, #29]
  49 000a 1D34     		adds	r4, r4, #29
  50              	.LVL1:
  51              	.L2:
  22:teste.c       ****   do {
  23:teste.c       ****       *--p = '0' + val%10;
  52              		.loc 1 23 0 discriminator 1
  53 000c 2800     		movs	r0, r5
  54 000e 0A21     		movs	r1, #10
  55 0010 FFF7FEFF 		bl	__aeabi_uidivmod
  56              	.LVL2:
  57 0014 013C     		subs	r4, r4, #1
  58              	.LVL3:
  59 0016 3031     		adds	r1, r1, #48
  60 0018 2170     		strb	r1, [r4]
  24:teste.c       ****       val /= 10;
  61              		.loc 1 24 0 discriminator 1
  62 001a 2800     		movs	r0, r5
  63 001c 0A21     		movs	r1, #10
  64 001e FFF7FEFF 		bl	__aeabi_uidiv
  65              	.LVL4:
  66 0022 051E     		subs	r5, r0, #0
  67              	.LVL5:
  25:teste.c       ****   } while (val);
  68              		.loc 1 25 0 discriminator 1
  69 0024 F2D1     		bne	.L2
  26:teste.c       ****   return p;
  27:teste.c       **** }
  70              		.loc 1 27 0
  71 0026 2000     		movs	r0, r4
  72              	.LVL6:
  73              		@ sp needed
  74              	.LVL7:
  75              	.LVL8:
  76 0028 70BD     		pop	{r4, r5, r6, pc}
  77              	.L6:
  78 002a C046     		.align	2
  79              	.L5:
  80 002c 00000000 		.word	.LANCHOR0
  81              		.cfi_endproc
  82              	.LFE0:
  83              		.size	ultoa, .-ultoa
  84              		.section	.text.ltoa,"ax",%progbits
  85              		.align	1
ARM GAS  C:\Users\7709\AppData\Local\Temp\ccgx6Eau.s 			page 3


  86              		.global	ltoa
  87              		.code	16
  88              		.thumb_func
  89              		.type	ltoa, %function
  90              	ltoa:
  91              	.LFB1:
  28:teste.c       ****  
  29:teste.c       **** char* ltoa(int32 val) {
  92              		.loc 1 29 0
  93              		.cfi_startproc
  94              		@ args = 0, pretend = 0, frame = 0
  95              		@ frame_needed = 0, uses_anonymous_args = 0
  96              	.LVL9:
  97 0000 10B5     		push	{r4, lr}
  98              		.cfi_def_cfa_offset 8
  99              		.cfi_offset 4, -8
 100              		.cfi_offset 14, -4
  30:teste.c       ****   char* p;
  31:teste.c       ****   uint16 flg = 0;
 101              		.loc 1 31 0
 102 0002 0024     		movs	r4, #0
  32:teste.c       ****  
  33:teste.c       ****   if (val < 0){
 103              		.loc 1 33 0
 104 0004 A042     		cmp	r0, r4
 105 0006 01DA     		bge	.L8
 106              	.LVL10:
  34:teste.c       ****       flg++;
  35:teste.c       ****       val = -val;
 107              		.loc 1 35 0
 108 0008 4042     		rsbs	r0, r0, #0
 109              	.LVL11:
  34:teste.c       ****       flg++;
 110              		.loc 1 34 0
 111 000a 0134     		adds	r4, r4, #1
 112              	.LVL12:
 113              	.L8:
  36:teste.c       ****   }
  37:teste.c       ****   p = ultoa(val);
 114              		.loc 1 37 0
 115 000c FFF7FEFF 		bl	ultoa
 116              	.LVL13:
  38:teste.c       ****   if (flg) *--p = '-';
 117              		.loc 1 38 0
 118 0010 002C     		cmp	r4, #0
 119 0012 02D0     		beq	.L9
 120              		.loc 1 38 0 is_stmt 0 discriminator 1
 121 0014 2D23     		movs	r3, #45
 122 0016 0138     		subs	r0, r0, #1
 123              	.LVL14:
 124 0018 0370     		strb	r3, [r0]
 125              	.L9:
  39:teste.c       ****   return p;
  40:teste.c       **** }...
 126              		.loc 1 40 0 is_stmt 1
 127              		@ sp needed
 128 001a 10BD     		pop	{r4, pc}
ARM GAS  C:\Users\7709\AppData\Local\Temp\ccgx6Eau.s 			page 4


 129              		.cfi_endproc
 130              	.LFE1:
 131              		.size	ltoa, .-ltoa
 132              		.bss
 133              		.set	.LANCHOR0,. + 0
 134              		.type	_buf, %object
 135              		.size	_buf, 30
 136              	_buf:
 137 0000 00000000 		.space	30
 137      00000000 
 137      00000000 
 137      00000000 
 137      00000000 
 138              		.text
 139              	.Letext0:
 140              		.file 2 "Generated_Source\\PSoC4/cytypes.h"