ARM GAS  C:\Users\7709\AppData\Local\Temp\ccouWW3Q.s 			page 1


   1              		.syntax unified
   2              		.cpu cortex-m0
   3              		.fpu softvfp
   4              		.eabi_attribute 20, 1
   5              		.eabi_attribute 21, 1
   6              		.eabi_attribute 23, 3
   7              		.eabi_attribute 24, 1
   8              		.eabi_attribute 25, 1
   9              		.eabi_attribute 26, 1
  10              		.eabi_attribute 30, 4
  11              		.eabi_attribute 34, 0
  12              		.eabi_attribute 18, 4
  13              		.thumb
  14              		.syntax unified
  15              		.file	"UART_UART.c"
  16              		.text
  17              	.Ltext0:
  18              		.cfi_sections	.debug_frame
  19              		.section	.text.UART_UartInit,"ax",%progbits
  20              		.align	1
  21              		.global	UART_UartInit
  22              		.code	16
  23              		.thumb_func
  24              		.type	UART_UartInit, %function
  25              	UART_UartInit:
  26              	.LFB2:
  27              		.file 1 "Generated_Source\\PSoC4\\UART_UART.c"
   1:Generated_Source\PSoC4/UART_UART.c **** /***************************************************************************//**
   2:Generated_Source\PSoC4/UART_UART.c **** * \file UART_UART.c
   3:Generated_Source\PSoC4/UART_UART.c **** * \version 4.0
   4:Generated_Source\PSoC4/UART_UART.c **** *
   5:Generated_Source\PSoC4/UART_UART.c **** * \brief
   6:Generated_Source\PSoC4/UART_UART.c **** *  This file provides the source code to the API for the SCB Component in
   7:Generated_Source\PSoC4/UART_UART.c **** *  UART mode.
   8:Generated_Source\PSoC4/UART_UART.c **** *
   9:Generated_Source\PSoC4/UART_UART.c **** * Note:
  10:Generated_Source\PSoC4/UART_UART.c **** *
  11:Generated_Source\PSoC4/UART_UART.c **** *******************************************************************************
  12:Generated_Source\PSoC4/UART_UART.c **** * \copyright
  13:Generated_Source\PSoC4/UART_UART.c **** * Copyright 2013-2017, Cypress Semiconductor Corporation.  All rights reserved.
  14:Generated_Source\PSoC4/UART_UART.c **** * You may use this file only in accordance with the license, terms, conditions,
  15:Generated_Source\PSoC4/UART_UART.c **** * disclaimers, and limitations in the end user license agreement accompanying
  16:Generated_Source\PSoC4/UART_UART.c **** * the software package with which this file was provided.
  17:Generated_Source\PSoC4/UART_UART.c **** *******************************************************************************/
  18:Generated_Source\PSoC4/UART_UART.c **** 
  19:Generated_Source\PSoC4/UART_UART.c **** #include "UART_PVT.h"
  20:Generated_Source\PSoC4/UART_UART.c **** #include "UART_SPI_UART_PVT.h"
  21:Generated_Source\PSoC4/UART_UART.c **** #include "cyapicallbacks.h"
  22:Generated_Source\PSoC4/UART_UART.c **** 
  23:Generated_Source\PSoC4/UART_UART.c **** #if (UART_UART_WAKE_ENABLE_CONST && UART_UART_RX_WAKEUP_IRQ)
  24:Generated_Source\PSoC4/UART_UART.c ****     /**
  25:Generated_Source\PSoC4/UART_UART.c ****     * \addtogroup group_globals
  26:Generated_Source\PSoC4/UART_UART.c ****     * \{
  27:Generated_Source\PSoC4/UART_UART.c ****     */
  28:Generated_Source\PSoC4/UART_UART.c ****     /** This global variable determines whether to enable Skip Start
  29:Generated_Source\PSoC4/UART_UART.c ****     * functionality when UART_Sleep() function is called:
  30:Generated_Source\PSoC4/UART_UART.c ****     * 0 – disable, other values – enable. Default value is 1.
ARM GAS  C:\Users\7709\AppData\Local\Temp\ccouWW3Q.s 			page 2


  31:Generated_Source\PSoC4/UART_UART.c ****     * It is only available when Enable wakeup from Deep Sleep Mode is enabled.
  32:Generated_Source\PSoC4/UART_UART.c ****     */
  33:Generated_Source\PSoC4/UART_UART.c ****     uint8 UART_skipStart = 1u;
  34:Generated_Source\PSoC4/UART_UART.c ****     /** \} globals */
  35:Generated_Source\PSoC4/UART_UART.c **** #endif /* (UART_UART_WAKE_ENABLE_CONST && UART_UART_RX_WAKEUP_IRQ) */
  36:Generated_Source\PSoC4/UART_UART.c **** 
  37:Generated_Source\PSoC4/UART_UART.c **** #if(UART_SCB_MODE_UNCONFIG_CONST_CFG)
  38:Generated_Source\PSoC4/UART_UART.c **** 
  39:Generated_Source\PSoC4/UART_UART.c ****     /***************************************
  40:Generated_Source\PSoC4/UART_UART.c ****     *  Configuration Structure Initialization
  41:Generated_Source\PSoC4/UART_UART.c ****     ***************************************/
  42:Generated_Source\PSoC4/UART_UART.c **** 
  43:Generated_Source\PSoC4/UART_UART.c ****     const UART_UART_INIT_STRUCT UART_configUart =
  44:Generated_Source\PSoC4/UART_UART.c ****     {
  45:Generated_Source\PSoC4/UART_UART.c ****         UART_UART_SUB_MODE,
  46:Generated_Source\PSoC4/UART_UART.c ****         UART_UART_DIRECTION,
  47:Generated_Source\PSoC4/UART_UART.c ****         UART_UART_DATA_BITS_NUM,
  48:Generated_Source\PSoC4/UART_UART.c ****         UART_UART_PARITY_TYPE,
  49:Generated_Source\PSoC4/UART_UART.c ****         UART_UART_STOP_BITS_NUM,
  50:Generated_Source\PSoC4/UART_UART.c ****         UART_UART_OVS_FACTOR,
  51:Generated_Source\PSoC4/UART_UART.c ****         UART_UART_IRDA_LOW_POWER,
  52:Generated_Source\PSoC4/UART_UART.c ****         UART_UART_MEDIAN_FILTER_ENABLE,
  53:Generated_Source\PSoC4/UART_UART.c ****         UART_UART_RETRY_ON_NACK,
  54:Generated_Source\PSoC4/UART_UART.c ****         UART_UART_IRDA_POLARITY,
  55:Generated_Source\PSoC4/UART_UART.c ****         UART_UART_DROP_ON_PARITY_ERR,
  56:Generated_Source\PSoC4/UART_UART.c ****         UART_UART_DROP_ON_FRAME_ERR,
  57:Generated_Source\PSoC4/UART_UART.c ****         UART_UART_WAKE_ENABLE,
  58:Generated_Source\PSoC4/UART_UART.c ****         0u,
  59:Generated_Source\PSoC4/UART_UART.c ****         NULL,
  60:Generated_Source\PSoC4/UART_UART.c ****         0u,
  61:Generated_Source\PSoC4/UART_UART.c ****         NULL,
  62:Generated_Source\PSoC4/UART_UART.c ****         UART_UART_MP_MODE_ENABLE,
  63:Generated_Source\PSoC4/UART_UART.c ****         UART_UART_MP_ACCEPT_ADDRESS,
  64:Generated_Source\PSoC4/UART_UART.c ****         UART_UART_MP_RX_ADDRESS,
  65:Generated_Source\PSoC4/UART_UART.c ****         UART_UART_MP_RX_ADDRESS_MASK,
  66:Generated_Source\PSoC4/UART_UART.c ****         (uint32) UART_SCB_IRQ_INTERNAL,
  67:Generated_Source\PSoC4/UART_UART.c ****         UART_UART_INTR_RX_MASK,
  68:Generated_Source\PSoC4/UART_UART.c ****         UART_UART_RX_TRIGGER_LEVEL,
  69:Generated_Source\PSoC4/UART_UART.c ****         UART_UART_INTR_TX_MASK,
  70:Generated_Source\PSoC4/UART_UART.c ****         UART_UART_TX_TRIGGER_LEVEL,
  71:Generated_Source\PSoC4/UART_UART.c ****         (uint8) UART_UART_BYTE_MODE_ENABLE,
  72:Generated_Source\PSoC4/UART_UART.c ****         (uint8) UART_UART_CTS_ENABLE,
  73:Generated_Source\PSoC4/UART_UART.c ****         (uint8) UART_UART_CTS_POLARITY,
  74:Generated_Source\PSoC4/UART_UART.c ****         (uint8) UART_UART_RTS_POLARITY,
  75:Generated_Source\PSoC4/UART_UART.c ****         (uint8) UART_UART_RTS_FIFO_LEVEL,
  76:Generated_Source\PSoC4/UART_UART.c ****         (uint8) UART_UART_RX_BREAK_WIDTH
  77:Generated_Source\PSoC4/UART_UART.c ****     };
  78:Generated_Source\PSoC4/UART_UART.c **** 
  79:Generated_Source\PSoC4/UART_UART.c **** 
  80:Generated_Source\PSoC4/UART_UART.c ****     /*******************************************************************************
  81:Generated_Source\PSoC4/UART_UART.c ****     * Function Name: UART_UartInit
  82:Generated_Source\PSoC4/UART_UART.c ****     ****************************************************************************//**
  83:Generated_Source\PSoC4/UART_UART.c ****     *
  84:Generated_Source\PSoC4/UART_UART.c ****     *  Configures the UART for UART operation.
  85:Generated_Source\PSoC4/UART_UART.c ****     *
  86:Generated_Source\PSoC4/UART_UART.c ****     *  This function is intended specifically to be used when the UART
  87:Generated_Source\PSoC4/UART_UART.c ****     *  configuration is set to “Unconfigured UART” in the customizer.
ARM GAS  C:\Users\7709\AppData\Local\Temp\ccouWW3Q.s 			page 3


  88:Generated_Source\PSoC4/UART_UART.c ****     *  After initializing the UART in UART mode using this function,
  89:Generated_Source\PSoC4/UART_UART.c ****     *  the component can be enabled using the UART_Start() or
  90:Generated_Source\PSoC4/UART_UART.c ****     * UART_Enable() function.
  91:Generated_Source\PSoC4/UART_UART.c ****     *  This function uses a pointer to a structure that provides the configuration
  92:Generated_Source\PSoC4/UART_UART.c ****     *  settings. This structure contains the same information that would otherwise
  93:Generated_Source\PSoC4/UART_UART.c ****     *  be provided by the customizer settings.
  94:Generated_Source\PSoC4/UART_UART.c ****     *
  95:Generated_Source\PSoC4/UART_UART.c ****     *  \param config: pointer to a structure that contains the following list of
  96:Generated_Source\PSoC4/UART_UART.c ****     *   fields. These fields match the selections available in the customizer.
  97:Generated_Source\PSoC4/UART_UART.c ****     *   Refer to the customizer for further description of the settings.
  98:Generated_Source\PSoC4/UART_UART.c ****     *
  99:Generated_Source\PSoC4/UART_UART.c ****     *******************************************************************************/
 100:Generated_Source\PSoC4/UART_UART.c ****     void UART_UartInit(const UART_UART_INIT_STRUCT *config)
 101:Generated_Source\PSoC4/UART_UART.c ****     {
 102:Generated_Source\PSoC4/UART_UART.c ****         uint32 pinsConfig;
 103:Generated_Source\PSoC4/UART_UART.c **** 
 104:Generated_Source\PSoC4/UART_UART.c ****         if (NULL == config)
 105:Generated_Source\PSoC4/UART_UART.c ****         {
 106:Generated_Source\PSoC4/UART_UART.c ****             CYASSERT(0u != 0u); /* Halt execution due to bad function parameter */
 107:Generated_Source\PSoC4/UART_UART.c ****         }
 108:Generated_Source\PSoC4/UART_UART.c ****         else
 109:Generated_Source\PSoC4/UART_UART.c ****         {
 110:Generated_Source\PSoC4/UART_UART.c ****             /* Get direction to configure UART pins: TX, RX or TX+RX */
 111:Generated_Source\PSoC4/UART_UART.c ****             pinsConfig  = config->direction;
 112:Generated_Source\PSoC4/UART_UART.c **** 
 113:Generated_Source\PSoC4/UART_UART.c ****         #if !(UART_CY_SCBIP_V0 || UART_CY_SCBIP_V1)
 114:Generated_Source\PSoC4/UART_UART.c ****             /* Add RTS and CTS pins to configure */
 115:Generated_Source\PSoC4/UART_UART.c ****             pinsConfig |= (0u != config->rtsRxFifoLevel) ? (UART_UART_RTS_PIN_ENABLE) : (0u);
 116:Generated_Source\PSoC4/UART_UART.c ****             pinsConfig |= (0u != config->enableCts)      ? (UART_UART_CTS_PIN_ENABLE) : (0u);
 117:Generated_Source\PSoC4/UART_UART.c ****         #endif /* !(UART_CY_SCBIP_V0 || UART_CY_SCBIP_V1) */
 118:Generated_Source\PSoC4/UART_UART.c **** 
 119:Generated_Source\PSoC4/UART_UART.c ****             /* Configure pins */
 120:Generated_Source\PSoC4/UART_UART.c ****             UART_SetPins(UART_SCB_MODE_UART, config->mode, pinsConfig);
 121:Generated_Source\PSoC4/UART_UART.c **** 
 122:Generated_Source\PSoC4/UART_UART.c ****             /* Store internal configuration */
 123:Generated_Source\PSoC4/UART_UART.c ****             UART_scbMode       = (uint8) UART_SCB_MODE_UART;
 124:Generated_Source\PSoC4/UART_UART.c ****             UART_scbEnableWake = (uint8) config->enableWake;
 125:Generated_Source\PSoC4/UART_UART.c ****             UART_scbEnableIntr = (uint8) config->enableInterrupt;
 126:Generated_Source\PSoC4/UART_UART.c **** 
 127:Generated_Source\PSoC4/UART_UART.c ****             /* Set RX direction internal variables */
 128:Generated_Source\PSoC4/UART_UART.c ****             UART_rxBuffer      =         config->rxBuffer;
 129:Generated_Source\PSoC4/UART_UART.c ****             UART_rxDataBits    = (uint8) config->dataBits;
 130:Generated_Source\PSoC4/UART_UART.c ****             UART_rxBufferSize  =         config->rxBufferSize;
 131:Generated_Source\PSoC4/UART_UART.c **** 
 132:Generated_Source\PSoC4/UART_UART.c ****             /* Set TX direction internal variables */
 133:Generated_Source\PSoC4/UART_UART.c ****             UART_txBuffer      =         config->txBuffer;
 134:Generated_Source\PSoC4/UART_UART.c ****             UART_txDataBits    = (uint8) config->dataBits;
 135:Generated_Source\PSoC4/UART_UART.c ****             UART_txBufferSize  =         config->txBufferSize;
 136:Generated_Source\PSoC4/UART_UART.c **** 
 137:Generated_Source\PSoC4/UART_UART.c ****             /* Configure UART interface */
 138:Generated_Source\PSoC4/UART_UART.c ****             if(UART_UART_MODE_IRDA == config->mode)
 139:Generated_Source\PSoC4/UART_UART.c ****             {
 140:Generated_Source\PSoC4/UART_UART.c ****                 /* OVS settings: IrDA */
 141:Generated_Source\PSoC4/UART_UART.c ****                 UART_CTRL_REG  = ((0u != config->enableIrdaLowPower) ?
 142:Generated_Source\PSoC4/UART_UART.c ****                                                 (UART_UART_GET_CTRL_OVS_IRDA_LP(config->oversample)
 143:Generated_Source\PSoC4/UART_UART.c ****                                                 (UART_CTRL_OVS_IRDA_OVS16));
 144:Generated_Source\PSoC4/UART_UART.c ****             }
ARM GAS  C:\Users\7709\AppData\Local\Temp\ccouWW3Q.s 			page 4


 145:Generated_Source\PSoC4/UART_UART.c ****             else
 146:Generated_Source\PSoC4/UART_UART.c ****             {
 147:Generated_Source\PSoC4/UART_UART.c ****                 /* OVS settings: UART and SmartCard */
 148:Generated_Source\PSoC4/UART_UART.c ****                 UART_CTRL_REG  = UART_GET_CTRL_OVS(config->oversample);
 149:Generated_Source\PSoC4/UART_UART.c ****             }
 150:Generated_Source\PSoC4/UART_UART.c **** 
 151:Generated_Source\PSoC4/UART_UART.c ****             UART_CTRL_REG     |= UART_GET_CTRL_BYTE_MODE  (config->enableByteMode)      |
 152:Generated_Source\PSoC4/UART_UART.c ****                                              UART_GET_CTRL_ADDR_ACCEPT(config->multiprocAcceptAddr)
 153:Generated_Source\PSoC4/UART_UART.c ****                                              UART_CTRL_UART;
 154:Generated_Source\PSoC4/UART_UART.c **** 
 155:Generated_Source\PSoC4/UART_UART.c ****             /* Configure sub-mode: UART, SmartCard or IrDA */
 156:Generated_Source\PSoC4/UART_UART.c ****             UART_UART_CTRL_REG = UART_GET_UART_CTRL_MODE(config->mode);
 157:Generated_Source\PSoC4/UART_UART.c **** 
 158:Generated_Source\PSoC4/UART_UART.c ****             /* Configure RX direction */
 159:Generated_Source\PSoC4/UART_UART.c ****             UART_UART_RX_CTRL_REG = UART_GET_UART_RX_CTRL_MODE(config->stopBits)              |
 160:Generated_Source\PSoC4/UART_UART.c ****                                         UART_GET_UART_RX_CTRL_POLARITY(config->enableInvertedRx)   
 161:Generated_Source\PSoC4/UART_UART.c ****                                         UART_GET_UART_RX_CTRL_MP_MODE(config->enableMultiproc)     
 162:Generated_Source\PSoC4/UART_UART.c ****                                         UART_GET_UART_RX_CTRL_DROP_ON_PARITY_ERR(config->dropOnPari
 163:Generated_Source\PSoC4/UART_UART.c ****                                         UART_GET_UART_RX_CTRL_DROP_ON_FRAME_ERR(config->dropOnFrame
 164:Generated_Source\PSoC4/UART_UART.c ****                                         UART_GET_UART_RX_CTRL_BREAK_WIDTH(config->breakWidth);
 165:Generated_Source\PSoC4/UART_UART.c **** 
 166:Generated_Source\PSoC4/UART_UART.c ****             if(UART_UART_PARITY_NONE != config->parity)
 167:Generated_Source\PSoC4/UART_UART.c ****             {
 168:Generated_Source\PSoC4/UART_UART.c ****                UART_UART_RX_CTRL_REG |= UART_GET_UART_RX_CTRL_PARITY(config->parity) |
 169:Generated_Source\PSoC4/UART_UART.c ****                                                     UART_UART_RX_CTRL_PARITY_ENABLED;
 170:Generated_Source\PSoC4/UART_UART.c ****             }
 171:Generated_Source\PSoC4/UART_UART.c **** 
 172:Generated_Source\PSoC4/UART_UART.c ****             UART_RX_CTRL_REG      = UART_GET_RX_CTRL_DATA_WIDTH(config->dataBits)       |
 173:Generated_Source\PSoC4/UART_UART.c ****                                                 UART_GET_RX_CTRL_MEDIAN(config->enableMedianFilter)
 174:Generated_Source\PSoC4/UART_UART.c ****                                                 UART_GET_UART_RX_CTRL_ENABLED(config->direction);
 175:Generated_Source\PSoC4/UART_UART.c **** 
 176:Generated_Source\PSoC4/UART_UART.c ****             UART_RX_FIFO_CTRL_REG = UART_GET_RX_FIFO_CTRL_TRIGGER_LEVEL(config->rxTriggerLevel);
 177:Generated_Source\PSoC4/UART_UART.c **** 
 178:Generated_Source\PSoC4/UART_UART.c ****             /* Configure MP address */
 179:Generated_Source\PSoC4/UART_UART.c ****             UART_RX_MATCH_REG     = UART_GET_RX_MATCH_ADDR(config->multiprocAddr) |
 180:Generated_Source\PSoC4/UART_UART.c ****                                                 UART_GET_RX_MATCH_MASK(config->multiprocAddrMask);
 181:Generated_Source\PSoC4/UART_UART.c **** 
 182:Generated_Source\PSoC4/UART_UART.c ****             /* Configure RX direction */
 183:Generated_Source\PSoC4/UART_UART.c ****             UART_UART_TX_CTRL_REG = UART_GET_UART_TX_CTRL_MODE(config->stopBits) |
 184:Generated_Source\PSoC4/UART_UART.c ****                                                 UART_GET_UART_TX_CTRL_RETRY_NACK(config->enableRetr
 185:Generated_Source\PSoC4/UART_UART.c **** 
 186:Generated_Source\PSoC4/UART_UART.c ****             if(UART_UART_PARITY_NONE != config->parity)
 187:Generated_Source\PSoC4/UART_UART.c ****             {
 188:Generated_Source\PSoC4/UART_UART.c ****                UART_UART_TX_CTRL_REG |= UART_GET_UART_TX_CTRL_PARITY(config->parity) |
 189:Generated_Source\PSoC4/UART_UART.c ****                                                     UART_UART_TX_CTRL_PARITY_ENABLED;
 190:Generated_Source\PSoC4/UART_UART.c ****             }
 191:Generated_Source\PSoC4/UART_UART.c **** 
 192:Generated_Source\PSoC4/UART_UART.c ****             UART_TX_CTRL_REG      = UART_GET_TX_CTRL_DATA_WIDTH(config->dataBits)    |
 193:Generated_Source\PSoC4/UART_UART.c ****                                                 UART_GET_UART_TX_CTRL_ENABLED(config->direction);
 194:Generated_Source\PSoC4/UART_UART.c **** 
 195:Generated_Source\PSoC4/UART_UART.c ****             UART_TX_FIFO_CTRL_REG = UART_GET_TX_FIFO_CTRL_TRIGGER_LEVEL(config->txTriggerLevel);
 196:Generated_Source\PSoC4/UART_UART.c **** 
 197:Generated_Source\PSoC4/UART_UART.c ****         #if !(UART_CY_SCBIP_V0 || UART_CY_SCBIP_V1)
 198:Generated_Source\PSoC4/UART_UART.c ****             UART_UART_FLOW_CTRL_REG = UART_GET_UART_FLOW_CTRL_CTS_ENABLE(config->enableCts) | \
 199:Generated_Source\PSoC4/UART_UART.c ****                                             UART_GET_UART_FLOW_CTRL_CTS_POLARITY (config->ctsPolari
 200:Generated_Source\PSoC4/UART_UART.c ****                                             UART_GET_UART_FLOW_CTRL_RTS_POLARITY (config->rtsPolari
 201:Generated_Source\PSoC4/UART_UART.c ****                                             UART_GET_UART_FLOW_CTRL_TRIGGER_LEVEL(config->rtsRxFifo
ARM GAS  C:\Users\7709\AppData\Local\Temp\ccouWW3Q.s 			page 5


 202:Generated_Source\PSoC4/UART_UART.c ****         #endif /* !(UART_CY_SCBIP_V0 || UART_CY_SCBIP_V1) */
 203:Generated_Source\PSoC4/UART_UART.c **** 
 204:Generated_Source\PSoC4/UART_UART.c ****             /* Configure interrupt with UART handler but do not enable it */
 205:Generated_Source\PSoC4/UART_UART.c ****             CyIntDisable    (UART_ISR_NUMBER);
 206:Generated_Source\PSoC4/UART_UART.c ****             CyIntSetPriority(UART_ISR_NUMBER, UART_ISR_PRIORITY);
 207:Generated_Source\PSoC4/UART_UART.c ****             (void) CyIntSetVector(UART_ISR_NUMBER, &UART_SPI_UART_ISR);
 208:Generated_Source\PSoC4/UART_UART.c **** 
 209:Generated_Source\PSoC4/UART_UART.c ****             /* Configure WAKE interrupt */
 210:Generated_Source\PSoC4/UART_UART.c ****         #if(UART_UART_RX_WAKEUP_IRQ)
 211:Generated_Source\PSoC4/UART_UART.c ****             CyIntDisable    (UART_RX_WAKE_ISR_NUMBER);
 212:Generated_Source\PSoC4/UART_UART.c ****             CyIntSetPriority(UART_RX_WAKE_ISR_NUMBER, UART_RX_WAKE_ISR_PRIORITY);
 213:Generated_Source\PSoC4/UART_UART.c ****             (void) CyIntSetVector(UART_RX_WAKE_ISR_NUMBER, &UART_UART_WAKEUP_ISR);
 214:Generated_Source\PSoC4/UART_UART.c ****         #endif /* (UART_UART_RX_WAKEUP_IRQ) */
 215:Generated_Source\PSoC4/UART_UART.c **** 
 216:Generated_Source\PSoC4/UART_UART.c ****             /* Configure interrupt sources */
 217:Generated_Source\PSoC4/UART_UART.c ****             UART_INTR_I2C_EC_MASK_REG = UART_NO_INTR_SOURCES;
 218:Generated_Source\PSoC4/UART_UART.c ****             UART_INTR_SPI_EC_MASK_REG = UART_NO_INTR_SOURCES;
 219:Generated_Source\PSoC4/UART_UART.c ****             UART_INTR_SLAVE_MASK_REG  = UART_NO_INTR_SOURCES;
 220:Generated_Source\PSoC4/UART_UART.c ****             UART_INTR_MASTER_MASK_REG = UART_NO_INTR_SOURCES;
 221:Generated_Source\PSoC4/UART_UART.c ****             UART_INTR_RX_MASK_REG     = config->rxInterruptMask;
 222:Generated_Source\PSoC4/UART_UART.c ****             UART_INTR_TX_MASK_REG     = config->txInterruptMask;
 223:Generated_Source\PSoC4/UART_UART.c **** 
 224:Generated_Source\PSoC4/UART_UART.c ****             /* Configure TX interrupt sources to restore. */
 225:Generated_Source\PSoC4/UART_UART.c ****             UART_IntrTxMask = LO16(UART_INTR_TX_MASK_REG);
 226:Generated_Source\PSoC4/UART_UART.c **** 
 227:Generated_Source\PSoC4/UART_UART.c ****             /* Clear RX buffer indexes */
 228:Generated_Source\PSoC4/UART_UART.c ****             UART_rxBufferHead     = 0u;
 229:Generated_Source\PSoC4/UART_UART.c ****             UART_rxBufferTail     = 0u;
 230:Generated_Source\PSoC4/UART_UART.c ****             UART_rxBufferOverflow = 0u;
 231:Generated_Source\PSoC4/UART_UART.c **** 
 232:Generated_Source\PSoC4/UART_UART.c ****             /* Clear TX buffer indexes */
 233:Generated_Source\PSoC4/UART_UART.c ****             UART_txBufferHead = 0u;
 234:Generated_Source\PSoC4/UART_UART.c ****             UART_txBufferTail = 0u;
 235:Generated_Source\PSoC4/UART_UART.c ****         }
 236:Generated_Source\PSoC4/UART_UART.c ****     }
 237:Generated_Source\PSoC4/UART_UART.c **** 
 238:Generated_Source\PSoC4/UART_UART.c **** #else
 239:Generated_Source\PSoC4/UART_UART.c **** 
 240:Generated_Source\PSoC4/UART_UART.c ****     /*******************************************************************************
 241:Generated_Source\PSoC4/UART_UART.c ****     * Function Name: UART_UartInit
 242:Generated_Source\PSoC4/UART_UART.c ****     ****************************************************************************//**
 243:Generated_Source\PSoC4/UART_UART.c ****     *
 244:Generated_Source\PSoC4/UART_UART.c ****     *  Configures the SCB for the UART operation.
 245:Generated_Source\PSoC4/UART_UART.c ****     *
 246:Generated_Source\PSoC4/UART_UART.c ****     *******************************************************************************/
 247:Generated_Source\PSoC4/UART_UART.c ****     void UART_UartInit(void)
 248:Generated_Source\PSoC4/UART_UART.c ****     {
  28              		.loc 1 248 0
  29              		.cfi_startproc
  30              		@ args = 0, pretend = 0, frame = 0
  31              		@ frame_needed = 0, uses_anonymous_args = 0
  32 0000 70B5     		push	{r4, r5, r6, lr}
  33              		.cfi_def_cfa_offset 16
  34              		.cfi_offset 4, -16
  35              		.cfi_offset 5, -12
  36              		.cfi_offset 6, -8
  37              		.cfi_offset 14, -4
ARM GAS  C:\Users\7709\AppData\Local\Temp\ccouWW3Q.s 			page 6


 249:Generated_Source\PSoC4/UART_UART.c ****         /* Configure UART interface */
 250:Generated_Source\PSoC4/UART_UART.c ****         UART_CTRL_REG = UART_UART_DEFAULT_CTRL;
 251:Generated_Source\PSoC4/UART_UART.c **** 
 252:Generated_Source\PSoC4/UART_UART.c ****         /* Configure sub-mode: UART, SmartCard or IrDA */
 253:Generated_Source\PSoC4/UART_UART.c ****         UART_UART_CTRL_REG = UART_UART_DEFAULT_UART_CTRL;
  38              		.loc 1 253 0
  39 0002 0024     		movs	r4, #0
 254:Generated_Source\PSoC4/UART_UART.c **** 
 255:Generated_Source\PSoC4/UART_UART.c ****         /* Configure RX direction */
 256:Generated_Source\PSoC4/UART_UART.c ****         UART_UART_RX_CTRL_REG = UART_UART_DEFAULT_UART_RX_CTRL;
 257:Generated_Source\PSoC4/UART_UART.c ****         UART_RX_CTRL_REG      = UART_UART_DEFAULT_RX_CTRL;
 258:Generated_Source\PSoC4/UART_UART.c ****         UART_RX_FIFO_CTRL_REG = UART_UART_DEFAULT_RX_FIFO_CTRL;
  40              		.loc 1 258 0
  41 0004 0721     		movs	r1, #7
 259:Generated_Source\PSoC4/UART_UART.c ****         UART_RX_MATCH_REG     = UART_UART_DEFAULT_RX_MATCH_REG;
 260:Generated_Source\PSoC4/UART_UART.c **** 
 261:Generated_Source\PSoC4/UART_UART.c ****         /* Configure TX direction */
 262:Generated_Source\PSoC4/UART_UART.c ****         UART_UART_TX_CTRL_REG = UART_UART_DEFAULT_UART_TX_CTRL;
 263:Generated_Source\PSoC4/UART_UART.c ****         UART_TX_CTRL_REG      = UART_UART_DEFAULT_TX_CTRL;
 264:Generated_Source\PSoC4/UART_UART.c ****         UART_TX_FIFO_CTRL_REG = UART_UART_DEFAULT_TX_FIFO_CTRL;
 265:Generated_Source\PSoC4/UART_UART.c **** 
 266:Generated_Source\PSoC4/UART_UART.c ****     #if !(UART_CY_SCBIP_V0 || UART_CY_SCBIP_V1)
 267:Generated_Source\PSoC4/UART_UART.c ****         UART_UART_FLOW_CTRL_REG = UART_UART_DEFAULT_FLOW_CTRL;
  42              		.loc 1 267 0
  43 0006 0425     		movs	r5, #4
 250:Generated_Source\PSoC4/UART_UART.c **** 
  44              		.loc 1 250 0
  45 0008 1E4A     		ldr	r2, .L2
  46 000a 1F4B     		ldr	r3, .L2+4
 268:Generated_Source\PSoC4/UART_UART.c ****     #endif /* !(UART_CY_SCBIP_V0 || UART_CY_SCBIP_V1) */
 269:Generated_Source\PSoC4/UART_UART.c **** 
 270:Generated_Source\PSoC4/UART_UART.c ****         /* Configure interrupt with UART handler but do not enable it */
 271:Generated_Source\PSoC4/UART_UART.c ****     #if(UART_SCB_IRQ_INTERNAL)
 272:Generated_Source\PSoC4/UART_UART.c ****         CyIntDisable    (UART_ISR_NUMBER);
  47              		.loc 1 272 0
  48 000c 0920     		movs	r0, #9
 250:Generated_Source\PSoC4/UART_UART.c **** 
  49              		.loc 1 250 0
  50 000e 1A60     		str	r2, [r3]
 253:Generated_Source\PSoC4/UART_UART.c **** 
  51              		.loc 1 253 0
  52 0010 1E4B     		ldr	r3, .L2+8
 256:Generated_Source\PSoC4/UART_UART.c ****         UART_RX_CTRL_REG      = UART_UART_DEFAULT_RX_CTRL;
  53              		.loc 1 256 0
  54 0012 1F4A     		ldr	r2, .L2+12
 253:Generated_Source\PSoC4/UART_UART.c **** 
  55              		.loc 1 253 0
  56 0014 1C60     		str	r4, [r3]
 256:Generated_Source\PSoC4/UART_UART.c ****         UART_RX_CTRL_REG      = UART_UART_DEFAULT_RX_CTRL;
  57              		.loc 1 256 0
  58 0016 1F4B     		ldr	r3, .L2+16
 273:Generated_Source\PSoC4/UART_UART.c ****         CyIntSetPriority(UART_ISR_NUMBER, UART_ISR_PRIORITY);
 274:Generated_Source\PSoC4/UART_UART.c ****         (void) CyIntSetVector(UART_ISR_NUMBER, &UART_SPI_UART_ISR);
 275:Generated_Source\PSoC4/UART_UART.c ****     #endif /* (UART_SCB_IRQ_INTERNAL) */
 276:Generated_Source\PSoC4/UART_UART.c **** 
 277:Generated_Source\PSoC4/UART_UART.c ****         /* Configure WAKE interrupt */
 278:Generated_Source\PSoC4/UART_UART.c ****     #if(UART_UART_RX_WAKEUP_IRQ)
ARM GAS  C:\Users\7709\AppData\Local\Temp\ccouWW3Q.s 			page 7


 279:Generated_Source\PSoC4/UART_UART.c ****         CyIntDisable    (UART_RX_WAKE_ISR_NUMBER);
 280:Generated_Source\PSoC4/UART_UART.c ****         CyIntSetPriority(UART_RX_WAKE_ISR_NUMBER, UART_RX_WAKE_ISR_PRIORITY);
 281:Generated_Source\PSoC4/UART_UART.c ****         (void) CyIntSetVector(UART_RX_WAKE_ISR_NUMBER, &UART_UART_WAKEUP_ISR);
 282:Generated_Source\PSoC4/UART_UART.c ****     #endif /* (UART_UART_RX_WAKEUP_IRQ) */
 283:Generated_Source\PSoC4/UART_UART.c **** 
 284:Generated_Source\PSoC4/UART_UART.c ****         /* Configure interrupt sources */
 285:Generated_Source\PSoC4/UART_UART.c ****         UART_INTR_I2C_EC_MASK_REG = UART_UART_DEFAULT_INTR_I2C_EC_MASK;
 286:Generated_Source\PSoC4/UART_UART.c ****         UART_INTR_SPI_EC_MASK_REG = UART_UART_DEFAULT_INTR_SPI_EC_MASK;
 287:Generated_Source\PSoC4/UART_UART.c ****         UART_INTR_SLAVE_MASK_REG  = UART_UART_DEFAULT_INTR_SLAVE_MASK;
 288:Generated_Source\PSoC4/UART_UART.c ****         UART_INTR_MASTER_MASK_REG = UART_UART_DEFAULT_INTR_MASTER_MASK;
 289:Generated_Source\PSoC4/UART_UART.c ****         UART_INTR_RX_MASK_REG     = UART_UART_DEFAULT_INTR_RX_MASK;
 290:Generated_Source\PSoC4/UART_UART.c ****         UART_INTR_TX_MASK_REG     = UART_UART_DEFAULT_INTR_TX_MASK;
 291:Generated_Source\PSoC4/UART_UART.c **** 
 292:Generated_Source\PSoC4/UART_UART.c ****         /* Configure TX interrupt sources to restore. */
 293:Generated_Source\PSoC4/UART_UART.c ****         UART_IntrTxMask = LO16(UART_INTR_TX_MASK_REG);
 294:Generated_Source\PSoC4/UART_UART.c **** 
 295:Generated_Source\PSoC4/UART_UART.c ****     #if(UART_INTERNAL_RX_SW_BUFFER_CONST)
 296:Generated_Source\PSoC4/UART_UART.c ****         UART_rxBufferHead     = 0u;
 297:Generated_Source\PSoC4/UART_UART.c ****         UART_rxBufferTail     = 0u;
 298:Generated_Source\PSoC4/UART_UART.c ****         UART_rxBufferOverflow = 0u;
 299:Generated_Source\PSoC4/UART_UART.c ****     #endif /* (UART_INTERNAL_RX_SW_BUFFER_CONST) */
 300:Generated_Source\PSoC4/UART_UART.c **** 
 301:Generated_Source\PSoC4/UART_UART.c ****     #if(UART_INTERNAL_TX_SW_BUFFER_CONST)
 302:Generated_Source\PSoC4/UART_UART.c ****         UART_txBufferHead = 0u;
 303:Generated_Source\PSoC4/UART_UART.c ****         UART_txBufferTail = 0u;
 304:Generated_Source\PSoC4/UART_UART.c ****     #endif /* (UART_INTERNAL_TX_SW_BUFFER_CONST) */
 305:Generated_Source\PSoC4/UART_UART.c ****     }
  59              		.loc 1 305 0
  60              		@ sp needed
 256:Generated_Source\PSoC4/UART_UART.c ****         UART_RX_CTRL_REG      = UART_UART_DEFAULT_RX_CTRL;
  61              		.loc 1 256 0
  62 0018 1A60     		str	r2, [r3]
 257:Generated_Source\PSoC4/UART_UART.c ****         UART_RX_FIFO_CTRL_REG = UART_UART_DEFAULT_RX_FIFO_CTRL;
  63              		.loc 1 257 0
  64 001a 1F4B     		ldr	r3, .L2+20
  65 001c 1F4A     		ldr	r2, .L2+24
  66 001e 1360     		str	r3, [r2]
 258:Generated_Source\PSoC4/UART_UART.c ****         UART_RX_MATCH_REG     = UART_UART_DEFAULT_RX_MATCH_REG;
  67              		.loc 1 258 0
  68 0020 1F4A     		ldr	r2, .L2+28
  69 0022 1160     		str	r1, [r2]
 259:Generated_Source\PSoC4/UART_UART.c **** 
  70              		.loc 1 259 0
  71 0024 1F4A     		ldr	r2, .L2+32
 262:Generated_Source\PSoC4/UART_UART.c ****         UART_TX_CTRL_REG      = UART_UART_DEFAULT_TX_CTRL;
  72              		.loc 1 262 0
  73 0026 0639     		subs	r1, r1, #6
 259:Generated_Source\PSoC4/UART_UART.c **** 
  74              		.loc 1 259 0
  75 0028 1460     		str	r4, [r2]
 262:Generated_Source\PSoC4/UART_UART.c ****         UART_TX_CTRL_REG      = UART_UART_DEFAULT_TX_CTRL;
  76              		.loc 1 262 0
  77 002a 1F4A     		ldr	r2, .L2+36
  78 002c 1160     		str	r1, [r2]
 263:Generated_Source\PSoC4/UART_UART.c ****         UART_TX_FIFO_CTRL_REG = UART_UART_DEFAULT_TX_FIFO_CTRL;
  79              		.loc 1 263 0
  80 002e 1F4A     		ldr	r2, .L2+40
ARM GAS  C:\Users\7709\AppData\Local\Temp\ccouWW3Q.s 			page 8


  81 0030 1360     		str	r3, [r2]
 264:Generated_Source\PSoC4/UART_UART.c **** 
  82              		.loc 1 264 0
  83 0032 1F4B     		ldr	r3, .L2+44
  84 0034 1C60     		str	r4, [r3]
 267:Generated_Source\PSoC4/UART_UART.c ****     #endif /* !(UART_CY_SCBIP_V0 || UART_CY_SCBIP_V1) */
  85              		.loc 1 267 0
  86 0036 1F4B     		ldr	r3, .L2+48
  87 0038 1D60     		str	r5, [r3]
 272:Generated_Source\PSoC4/UART_UART.c ****         CyIntSetPriority(UART_ISR_NUMBER, UART_ISR_PRIORITY);
  88              		.loc 1 272 0
  89 003a FFF7FEFF 		bl	CyIntDisable
  90              	.LVL0:
 273:Generated_Source\PSoC4/UART_UART.c ****         (void) CyIntSetVector(UART_ISR_NUMBER, &UART_SPI_UART_ISR);
  91              		.loc 1 273 0
  92 003e 0321     		movs	r1, #3
  93 0040 0920     		movs	r0, #9
  94 0042 FFF7FEFF 		bl	CyIntSetPriority
  95              	.LVL1:
 274:Generated_Source\PSoC4/UART_UART.c ****     #endif /* (UART_SCB_IRQ_INTERNAL) */
  96              		.loc 1 274 0
  97 0046 1C49     		ldr	r1, .L2+52
  98 0048 0920     		movs	r0, #9
  99 004a FFF7FEFF 		bl	CyIntSetVector
 100              	.LVL2:
 285:Generated_Source\PSoC4/UART_UART.c ****         UART_INTR_SPI_EC_MASK_REG = UART_UART_DEFAULT_INTR_SPI_EC_MASK;
 101              		.loc 1 285 0
 102 004e 1B4B     		ldr	r3, .L2+56
 103 0050 1C60     		str	r4, [r3]
 286:Generated_Source\PSoC4/UART_UART.c ****         UART_INTR_SLAVE_MASK_REG  = UART_UART_DEFAULT_INTR_SLAVE_MASK;
 104              		.loc 1 286 0
 105 0052 1B4B     		ldr	r3, .L2+60
 106 0054 1C60     		str	r4, [r3]
 287:Generated_Source\PSoC4/UART_UART.c ****         UART_INTR_MASTER_MASK_REG = UART_UART_DEFAULT_INTR_MASTER_MASK;
 107              		.loc 1 287 0
 108 0056 1B4B     		ldr	r3, .L2+64
 109 0058 1C60     		str	r4, [r3]
 288:Generated_Source\PSoC4/UART_UART.c ****         UART_INTR_RX_MASK_REG     = UART_UART_DEFAULT_INTR_RX_MASK;
 110              		.loc 1 288 0
 111 005a 1B4B     		ldr	r3, .L2+68
 112 005c 1C60     		str	r4, [r3]
 289:Generated_Source\PSoC4/UART_UART.c ****         UART_INTR_TX_MASK_REG     = UART_UART_DEFAULT_INTR_TX_MASK;
 113              		.loc 1 289 0
 114 005e 1B4B     		ldr	r3, .L2+72
 115 0060 1D60     		str	r5, [r3]
 290:Generated_Source\PSoC4/UART_UART.c **** 
 116              		.loc 1 290 0
 117 0062 1B4B     		ldr	r3, .L2+76
 118 0064 1C60     		str	r4, [r3]
 293:Generated_Source\PSoC4/UART_UART.c **** 
 119              		.loc 1 293 0
 120 0066 1A68     		ldr	r2, [r3]
 121 0068 1A4B     		ldr	r3, .L2+80
 122 006a 1A80     		strh	r2, [r3]
 296:Generated_Source\PSoC4/UART_UART.c ****         UART_rxBufferTail     = 0u;
 123              		.loc 1 296 0
 124 006c 1A4B     		ldr	r3, .L2+84
ARM GAS  C:\Users\7709\AppData\Local\Temp\ccouWW3Q.s 			page 9


 125 006e 1C60     		str	r4, [r3]
 297:Generated_Source\PSoC4/UART_UART.c ****         UART_rxBufferOverflow = 0u;
 126              		.loc 1 297 0
 127 0070 1A4B     		ldr	r3, .L2+88
 128 0072 1C60     		str	r4, [r3]
 298:Generated_Source\PSoC4/UART_UART.c ****     #endif /* (UART_INTERNAL_RX_SW_BUFFER_CONST) */
 129              		.loc 1 298 0
 130 0074 1A4B     		ldr	r3, .L2+92
 131 0076 1C70     		strb	r4, [r3]
 302:Generated_Source\PSoC4/UART_UART.c ****         UART_txBufferTail = 0u;
 132              		.loc 1 302 0
 133 0078 1A4B     		ldr	r3, .L2+96
 134 007a 1C60     		str	r4, [r3]
 303:Generated_Source\PSoC4/UART_UART.c ****     #endif /* (UART_INTERNAL_TX_SW_BUFFER_CONST) */
 135              		.loc 1 303 0
 136 007c 1A4B     		ldr	r3, .L2+100
 137 007e 1C60     		str	r4, [r3]
 138              		.loc 1 305 0
 139 0080 70BD     		pop	{r4, r5, r6, pc}
 140              	.L3:
 141 0082 C046     		.align	2
 142              	.L2:
 143 0084 0F000002 		.word	33554447
 144 0088 00002440 		.word	1076101120
 145 008c 40002440 		.word	1076101184
 146 0090 01000A00 		.word	655361
 147 0094 48002440 		.word	1076101192
 148 0098 07000080 		.word	-2147483641
 149 009c 00032440 		.word	1076101888
 150 00a0 04032440 		.word	1076101892
 151 00a4 10032440 		.word	1076101904
 152 00a8 44002440 		.word	1076101188
 153 00ac 00022440 		.word	1076101632
 154 00b0 04022440 		.word	1076101636
 155 00b4 50002440 		.word	1076101200
 156 00b8 00000000 		.word	UART_SPI_UART_ISR
 157 00bc 880E2440 		.word	1076104840
 158 00c0 C80E2440 		.word	1076104904
 159 00c4 480F2440 		.word	1076105032
 160 00c8 080F2440 		.word	1076104968
 161 00cc C80F2440 		.word	1076105160
 162 00d0 880F2440 		.word	1076105096
 163 00d4 00000000 		.word	UART_IntrTxMask
 164 00d8 00000000 		.word	UART_rxBufferHead
 165 00dc 00000000 		.word	UART_rxBufferTail
 166 00e0 00000000 		.word	UART_rxBufferOverflow
 167 00e4 00000000 		.word	UART_txBufferHead
 168 00e8 00000000 		.word	UART_txBufferTail
 169              		.cfi_endproc
 170              	.LFE2:
 171              		.size	UART_UartInit, .-UART_UartInit
 172              		.section	.text.UART_UartPostEnable,"ax",%progbits
 173              		.align	1
 174              		.global	UART_UartPostEnable
 175              		.code	16
 176              		.thumb_func
 177              		.type	UART_UartPostEnable, %function
ARM GAS  C:\Users\7709\AppData\Local\Temp\ccouWW3Q.s 			page 10


 178              	UART_UartPostEnable:
 179              	.LFB3:
 306:Generated_Source\PSoC4/UART_UART.c **** #endif /* (UART_SCB_MODE_UNCONFIG_CONST_CFG) */
 307:Generated_Source\PSoC4/UART_UART.c **** 
 308:Generated_Source\PSoC4/UART_UART.c **** 
 309:Generated_Source\PSoC4/UART_UART.c **** /*******************************************************************************
 310:Generated_Source\PSoC4/UART_UART.c **** * Function Name: UART_UartPostEnable
 311:Generated_Source\PSoC4/UART_UART.c **** ****************************************************************************//**
 312:Generated_Source\PSoC4/UART_UART.c **** *
 313:Generated_Source\PSoC4/UART_UART.c **** *  Restores HSIOM settings for the UART output pins (TX and/or RTS) to be
 314:Generated_Source\PSoC4/UART_UART.c **** *  controlled by the SCB UART.
 315:Generated_Source\PSoC4/UART_UART.c **** *
 316:Generated_Source\PSoC4/UART_UART.c **** *******************************************************************************/
 317:Generated_Source\PSoC4/UART_UART.c **** void UART_UartPostEnable(void)
 318:Generated_Source\PSoC4/UART_UART.c **** {
 180              		.loc 1 318 0
 181              		.cfi_startproc
 182              		@ args = 0, pretend = 0, frame = 0
 183              		@ frame_needed = 0, uses_anonymous_args = 0
 184              		@ link register save eliminated.
 319:Generated_Source\PSoC4/UART_UART.c **** #if (UART_SCB_MODE_UNCONFIG_CONST_CFG)
 320:Generated_Source\PSoC4/UART_UART.c ****     #if (UART_TX_SCL_MISO_PIN)
 321:Generated_Source\PSoC4/UART_UART.c ****         if (UART_CHECK_TX_SCL_MISO_PIN_USED)
 322:Generated_Source\PSoC4/UART_UART.c ****         {
 323:Generated_Source\PSoC4/UART_UART.c ****             /* Set SCB UART to drive the output pin */
 324:Generated_Source\PSoC4/UART_UART.c ****             UART_SET_HSIOM_SEL(UART_TX_SCL_MISO_HSIOM_REG, UART_TX_SCL_MISO_HSIOM_MASK,
 325:Generated_Source\PSoC4/UART_UART.c ****                                            UART_TX_SCL_MISO_HSIOM_POS, UART_TX_SCL_MISO_HSIOM_SEL_U
 326:Generated_Source\PSoC4/UART_UART.c ****         }
 327:Generated_Source\PSoC4/UART_UART.c ****     #endif /* (UART_TX_SCL_MISO_PIN_PIN) */
 328:Generated_Source\PSoC4/UART_UART.c **** 
 329:Generated_Source\PSoC4/UART_UART.c ****     #if !(UART_CY_SCBIP_V0 || UART_CY_SCBIP_V1)
 330:Generated_Source\PSoC4/UART_UART.c ****         #if (UART_RTS_SS0_PIN)
 331:Generated_Source\PSoC4/UART_UART.c ****             if (UART_CHECK_RTS_SS0_PIN_USED)
 332:Generated_Source\PSoC4/UART_UART.c ****             {
 333:Generated_Source\PSoC4/UART_UART.c ****                 /* Set SCB UART to drive the output pin */
 334:Generated_Source\PSoC4/UART_UART.c ****                 UART_SET_HSIOM_SEL(UART_RTS_SS0_HSIOM_REG, UART_RTS_SS0_HSIOM_MASK,
 335:Generated_Source\PSoC4/UART_UART.c ****                                                UART_RTS_SS0_HSIOM_POS, UART_RTS_SS0_HSIOM_SEL_UART)
 336:Generated_Source\PSoC4/UART_UART.c ****             }
 337:Generated_Source\PSoC4/UART_UART.c ****         #endif /* (UART_RTS_SS0_PIN) */
 338:Generated_Source\PSoC4/UART_UART.c ****     #endif /* !(UART_CY_SCBIP_V0 || UART_CY_SCBIP_V1) */
 339:Generated_Source\PSoC4/UART_UART.c **** 
 340:Generated_Source\PSoC4/UART_UART.c **** #else
 341:Generated_Source\PSoC4/UART_UART.c ****     #if (UART_UART_TX_PIN)
 342:Generated_Source\PSoC4/UART_UART.c ****          /* Set SCB UART to drive the output pin */
 343:Generated_Source\PSoC4/UART_UART.c ****         UART_SET_HSIOM_SEL(UART_TX_HSIOM_REG, UART_TX_HSIOM_MASK,
 185              		.loc 1 343 0
 186 0000 064A     		ldr	r2, .L5
 187 0002 074B     		ldr	r3, .L5+4
 188 0004 1168     		ldr	r1, [r2]
 344:Generated_Source\PSoC4/UART_UART.c ****                                        UART_TX_HSIOM_POS, UART_TX_HSIOM_SEL_UART);
 345:Generated_Source\PSoC4/UART_UART.c ****     #endif /* (UART_UART_TX_PIN) */
 346:Generated_Source\PSoC4/UART_UART.c **** 
 347:Generated_Source\PSoC4/UART_UART.c ****     #if (UART_UART_RTS_PIN)
 348:Generated_Source\PSoC4/UART_UART.c ****         /* Set SCB UART to drive the output pin */
 349:Generated_Source\PSoC4/UART_UART.c ****         UART_SET_HSIOM_SEL(UART_RTS_HSIOM_REG, UART_RTS_HSIOM_MASK,
 350:Generated_Source\PSoC4/UART_UART.c ****                                        UART_RTS_HSIOM_POS, UART_RTS_HSIOM_SEL_UART);
 351:Generated_Source\PSoC4/UART_UART.c ****     #endif /* (UART_UART_RTS_PIN) */
ARM GAS  C:\Users\7709\AppData\Local\Temp\ccouWW3Q.s 			page 11


 352:Generated_Source\PSoC4/UART_UART.c **** #endif /* (UART_SCB_MODE_UNCONFIG_CONST_CFG) */
 353:Generated_Source\PSoC4/UART_UART.c **** 
 354:Generated_Source\PSoC4/UART_UART.c ****     /* Restore TX interrupt sources. */
 355:Generated_Source\PSoC4/UART_UART.c ****     UART_SetTxInterruptMode(UART_IntrTxMask);
 356:Generated_Source\PSoC4/UART_UART.c **** }
 189              		.loc 1 356 0
 190              		@ sp needed
 343:Generated_Source\PSoC4/UART_UART.c ****                                        UART_TX_HSIOM_POS, UART_TX_HSIOM_SEL_UART);
 191              		.loc 1 343 0
 192 0006 0B40     		ands	r3, r1
 193 0008 9021     		movs	r1, #144
 194 000a 0904     		lsls	r1, r1, #16
 195 000c 0B43     		orrs	r3, r1
 196 000e 1360     		str	r3, [r2]
 355:Generated_Source\PSoC4/UART_UART.c **** }
 197              		.loc 1 355 0
 198 0010 044B     		ldr	r3, .L5+8
 199 0012 1A88     		ldrh	r2, [r3]
 200 0014 044B     		ldr	r3, .L5+12
 201 0016 1A60     		str	r2, [r3]
 202              		.loc 1 356 0
 203 0018 7047     		bx	lr
 204              	.L6:
 205 001a C046     		.align	2
 206              	.L5:
 207 001c 00010240 		.word	1073873152
 208 0020 FFFF0FFF 		.word	-15728641
 209 0024 00000000 		.word	UART_IntrTxMask
 210 0028 880F2440 		.word	1076105096
 211              		.cfi_endproc
 212              	.LFE3:
 213              		.size	UART_UartPostEnable, .-UART_UartPostEnable
 214              		.section	.text.UART_UartStop,"ax",%progbits
 215              		.align	1
 216              		.global	UART_UartStop
 217              		.code	16
 218              		.thumb_func
 219              		.type	UART_UartStop, %function
 220              	UART_UartStop:
 221              	.LFB4:
 357:Generated_Source\PSoC4/UART_UART.c **** 
 358:Generated_Source\PSoC4/UART_UART.c **** 
 359:Generated_Source\PSoC4/UART_UART.c **** /*******************************************************************************
 360:Generated_Source\PSoC4/UART_UART.c **** * Function Name: UART_UartStop
 361:Generated_Source\PSoC4/UART_UART.c **** ****************************************************************************//**
 362:Generated_Source\PSoC4/UART_UART.c **** *
 363:Generated_Source\PSoC4/UART_UART.c **** *  Changes the HSIOM settings for the UART output pins (TX and/or RTS) to keep
 364:Generated_Source\PSoC4/UART_UART.c **** *  them inactive after the block is disabled. The output pins are controlled by
 365:Generated_Source\PSoC4/UART_UART.c **** *  the GPIO data register. Also, the function disables the skip start feature
 366:Generated_Source\PSoC4/UART_UART.c **** *  to not cause it to trigger after the component is enabled.
 367:Generated_Source\PSoC4/UART_UART.c **** *
 368:Generated_Source\PSoC4/UART_UART.c **** *******************************************************************************/
 369:Generated_Source\PSoC4/UART_UART.c **** void UART_UartStop(void)
 370:Generated_Source\PSoC4/UART_UART.c **** {
 222              		.loc 1 370 0
 223              		.cfi_startproc
 224              		@ args = 0, pretend = 0, frame = 0
ARM GAS  C:\Users\7709\AppData\Local\Temp\ccouWW3Q.s 			page 12


 225              		@ frame_needed = 0, uses_anonymous_args = 0
 226              		@ link register save eliminated.
 371:Generated_Source\PSoC4/UART_UART.c **** #if(UART_SCB_MODE_UNCONFIG_CONST_CFG)
 372:Generated_Source\PSoC4/UART_UART.c ****     #if (UART_TX_SCL_MISO_PIN)
 373:Generated_Source\PSoC4/UART_UART.c ****         if (UART_CHECK_TX_SCL_MISO_PIN_USED)
 374:Generated_Source\PSoC4/UART_UART.c ****         {
 375:Generated_Source\PSoC4/UART_UART.c ****             /* Set GPIO to drive output pin */
 376:Generated_Source\PSoC4/UART_UART.c ****             UART_SET_HSIOM_SEL(UART_TX_SCL_MISO_HSIOM_REG, UART_TX_SCL_MISO_HSIOM_MASK,
 377:Generated_Source\PSoC4/UART_UART.c ****                                            UART_TX_SCL_MISO_HSIOM_POS, UART_TX_SCL_MISO_HSIOM_SEL_G
 378:Generated_Source\PSoC4/UART_UART.c ****         }
 379:Generated_Source\PSoC4/UART_UART.c ****     #endif /* (UART_TX_SCL_MISO_PIN_PIN) */
 380:Generated_Source\PSoC4/UART_UART.c **** 
 381:Generated_Source\PSoC4/UART_UART.c ****     #if !(UART_CY_SCBIP_V0 || UART_CY_SCBIP_V1)
 382:Generated_Source\PSoC4/UART_UART.c ****         #if (UART_RTS_SS0_PIN)
 383:Generated_Source\PSoC4/UART_UART.c ****             if (UART_CHECK_RTS_SS0_PIN_USED)
 384:Generated_Source\PSoC4/UART_UART.c ****             {
 385:Generated_Source\PSoC4/UART_UART.c ****                 /* Set output pin state after block is disabled */
 386:Generated_Source\PSoC4/UART_UART.c ****                 UART_uart_rts_spi_ss0_Write(UART_GET_UART_RTS_INACTIVE);
 387:Generated_Source\PSoC4/UART_UART.c **** 
 388:Generated_Source\PSoC4/UART_UART.c ****                 /* Set GPIO to drive output pin */
 389:Generated_Source\PSoC4/UART_UART.c ****                 UART_SET_HSIOM_SEL(UART_RTS_SS0_HSIOM_REG, UART_RTS_SS0_HSIOM_MASK,
 390:Generated_Source\PSoC4/UART_UART.c ****                                                UART_RTS_SS0_HSIOM_POS, UART_RTS_SS0_HSIOM_SEL_GPIO)
 391:Generated_Source\PSoC4/UART_UART.c ****             }
 392:Generated_Source\PSoC4/UART_UART.c ****         #endif /* (UART_RTS_SS0_PIN) */
 393:Generated_Source\PSoC4/UART_UART.c ****     #endif /* !(UART_CY_SCBIP_V0 || UART_CY_SCBIP_V1) */
 394:Generated_Source\PSoC4/UART_UART.c **** 
 395:Generated_Source\PSoC4/UART_UART.c **** #else
 396:Generated_Source\PSoC4/UART_UART.c ****     #if (UART_UART_TX_PIN)
 397:Generated_Source\PSoC4/UART_UART.c ****         /* Set GPIO to drive output pin */
 398:Generated_Source\PSoC4/UART_UART.c ****         UART_SET_HSIOM_SEL(UART_TX_HSIOM_REG, UART_TX_HSIOM_MASK,
 227              		.loc 1 398 0
 228 0000 064A     		ldr	r2, .L8
 229 0002 074B     		ldr	r3, .L8+4
 230 0004 1168     		ldr	r1, [r2]
 399:Generated_Source\PSoC4/UART_UART.c ****                                        UART_TX_HSIOM_POS, UART_TX_HSIOM_SEL_GPIO);
 400:Generated_Source\PSoC4/UART_UART.c ****     #endif /* (UART_UART_TX_PIN) */
 401:Generated_Source\PSoC4/UART_UART.c **** 
 402:Generated_Source\PSoC4/UART_UART.c ****     #if (UART_UART_RTS_PIN)
 403:Generated_Source\PSoC4/UART_UART.c ****         /* Set output pin state after block is disabled */
 404:Generated_Source\PSoC4/UART_UART.c ****         UART_rts_Write(UART_GET_UART_RTS_INACTIVE);
 405:Generated_Source\PSoC4/UART_UART.c **** 
 406:Generated_Source\PSoC4/UART_UART.c ****         /* Set GPIO to drive output pin */
 407:Generated_Source\PSoC4/UART_UART.c ****         UART_SET_HSIOM_SEL(UART_RTS_HSIOM_REG, UART_RTS_HSIOM_MASK,
 408:Generated_Source\PSoC4/UART_UART.c ****                                        UART_RTS_HSIOM_POS, UART_RTS_HSIOM_SEL_GPIO);
 409:Generated_Source\PSoC4/UART_UART.c ****     #endif /* (UART_UART_RTS_PIN) */
 410:Generated_Source\PSoC4/UART_UART.c **** 
 411:Generated_Source\PSoC4/UART_UART.c **** #endif /* (UART_SCB_MODE_UNCONFIG_CONST_CFG) */
 412:Generated_Source\PSoC4/UART_UART.c **** 
 413:Generated_Source\PSoC4/UART_UART.c **** #if (UART_UART_WAKE_ENABLE_CONST)
 414:Generated_Source\PSoC4/UART_UART.c ****     /* Disable skip start feature used for wakeup */
 415:Generated_Source\PSoC4/UART_UART.c ****     UART_UART_RX_CTRL_REG &= (uint32) ~UART_UART_RX_CTRL_SKIP_START;
 416:Generated_Source\PSoC4/UART_UART.c **** #endif /* (UART_UART_WAKE_ENABLE_CONST) */
 417:Generated_Source\PSoC4/UART_UART.c **** 
 418:Generated_Source\PSoC4/UART_UART.c ****     /* Store TX interrupt sources (exclude level triggered). */
 419:Generated_Source\PSoC4/UART_UART.c ****     UART_IntrTxMask = LO16(UART_GetTxInterruptMode() & UART_INTR_UART_TX_RESTORE);
 420:Generated_Source\PSoC4/UART_UART.c **** }
 231              		.loc 1 420 0
ARM GAS  C:\Users\7709\AppData\Local\Temp\ccouWW3Q.s 			page 13


 232              		@ sp needed
 398:Generated_Source\PSoC4/UART_UART.c ****                                        UART_TX_HSIOM_POS, UART_TX_HSIOM_SEL_GPIO);
 233              		.loc 1 398 0
 234 0006 0B40     		ands	r3, r1
 235 0008 1360     		str	r3, [r2]
 419:Generated_Source\PSoC4/UART_UART.c **** }
 236              		.loc 1 419 0
 237 000a 064B     		ldr	r3, .L8+8
 238 000c 1A68     		ldr	r2, [r3]
 239 000e E423     		movs	r3, #228
 240 0010 DB00     		lsls	r3, r3, #3
 241 0012 1340     		ands	r3, r2
 242 0014 044A     		ldr	r2, .L8+12
 243 0016 1380     		strh	r3, [r2]
 244              		.loc 1 420 0
 245 0018 7047     		bx	lr
 246              	.L9:
 247 001a C046     		.align	2
 248              	.L8:
 249 001c 00010240 		.word	1073873152
 250 0020 FFFF0FFF 		.word	-15728641
 251 0024 880F2440 		.word	1076105096
 252 0028 00000000 		.word	UART_IntrTxMask
 253              		.cfi_endproc
 254              	.LFE4:
 255              		.size	UART_UartStop, .-UART_UartStop
 256              		.section	.text.UART_UartSetRxAddress,"ax",%progbits
 257              		.align	1
 258              		.global	UART_UartSetRxAddress
 259              		.code	16
 260              		.thumb_func
 261              		.type	UART_UartSetRxAddress, %function
 262              	UART_UartSetRxAddress:
 263              	.LFB5:
 421:Generated_Source\PSoC4/UART_UART.c **** 
 422:Generated_Source\PSoC4/UART_UART.c **** 
 423:Generated_Source\PSoC4/UART_UART.c **** /*******************************************************************************
 424:Generated_Source\PSoC4/UART_UART.c **** * Function Name: UART_UartSetRxAddress
 425:Generated_Source\PSoC4/UART_UART.c **** ****************************************************************************//**
 426:Generated_Source\PSoC4/UART_UART.c **** *
 427:Generated_Source\PSoC4/UART_UART.c **** *  Sets the hardware detectable receiver address for the UART in the
 428:Generated_Source\PSoC4/UART_UART.c **** *  Multiprocessor mode.
 429:Generated_Source\PSoC4/UART_UART.c **** *
 430:Generated_Source\PSoC4/UART_UART.c **** *  \param address: Address for hardware address detection.
 431:Generated_Source\PSoC4/UART_UART.c **** *
 432:Generated_Source\PSoC4/UART_UART.c **** *******************************************************************************/
 433:Generated_Source\PSoC4/UART_UART.c **** void UART_UartSetRxAddress(uint32 address)
 434:Generated_Source\PSoC4/UART_UART.c **** {
 264              		.loc 1 434 0
 265              		.cfi_startproc
 266              		@ args = 0, pretend = 0, frame = 0
 267              		@ frame_needed = 0, uses_anonymous_args = 0
 268              		@ link register save eliminated.
 269              	.LVL3:
 435:Generated_Source\PSoC4/UART_UART.c ****      uint32 matchReg;
 436:Generated_Source\PSoC4/UART_UART.c **** 
 437:Generated_Source\PSoC4/UART_UART.c ****     matchReg = UART_RX_MATCH_REG;
ARM GAS  C:\Users\7709\AppData\Local\Temp\ccouWW3Q.s 			page 14


 438:Generated_Source\PSoC4/UART_UART.c **** 
 439:Generated_Source\PSoC4/UART_UART.c ****     matchReg &= ((uint32) ~UART_RX_MATCH_ADDR_MASK); /* Clear address bits */
 270              		.loc 1 439 0
 271 0000 FF22     		movs	r2, #255
 437:Generated_Source\PSoC4/UART_UART.c **** 
 272              		.loc 1 437 0
 273 0002 0349     		ldr	r1, .L11
 440:Generated_Source\PSoC4/UART_UART.c ****     matchReg |= ((uint32)  (address & UART_RX_MATCH_ADDR_MASK)); /* Set address  */
 274              		.loc 1 440 0
 275 0004 1040     		ands	r0, r2
 276              	.LVL4:
 437:Generated_Source\PSoC4/UART_UART.c **** 
 277              		.loc 1 437 0
 278 0006 0B68     		ldr	r3, [r1]
 279              	.LVL5:
 441:Generated_Source\PSoC4/UART_UART.c **** 
 442:Generated_Source\PSoC4/UART_UART.c ****     UART_RX_MATCH_REG = matchReg;
 443:Generated_Source\PSoC4/UART_UART.c **** }
 280              		.loc 1 443 0
 281              		@ sp needed
 439:Generated_Source\PSoC4/UART_UART.c ****     matchReg |= ((uint32)  (address & UART_RX_MATCH_ADDR_MASK)); /* Set address  */
 282              		.loc 1 439 0
 283 0008 9343     		bics	r3, r2
 284              	.LVL6:
 440:Generated_Source\PSoC4/UART_UART.c ****     matchReg |= ((uint32)  (address & UART_RX_MATCH_ADDR_MASK)); /* Set address  */
 285              		.loc 1 440 0
 286 000a 1843     		orrs	r0, r3
 287              	.LVL7:
 442:Generated_Source\PSoC4/UART_UART.c **** }
 288              		.loc 1 442 0
 289 000c 0860     		str	r0, [r1]
 290              		.loc 1 443 0
 291 000e 7047     		bx	lr
 292              	.L12:
 293              		.align	2
 294              	.L11:
 295 0010 10032440 		.word	1076101904
 296              		.cfi_endproc
 297              	.LFE5:
 298              		.size	UART_UartSetRxAddress, .-UART_UartSetRxAddress
 299              		.section	.text.UART_UartSetRxAddressMask,"ax",%progbits
 300              		.align	1
 301              		.global	UART_UartSetRxAddressMask
 302              		.code	16
 303              		.thumb_func
 304              		.type	UART_UartSetRxAddressMask, %function
 305              	UART_UartSetRxAddressMask:
 306              	.LFB6:
 444:Generated_Source\PSoC4/UART_UART.c **** 
 445:Generated_Source\PSoC4/UART_UART.c **** 
 446:Generated_Source\PSoC4/UART_UART.c **** /*******************************************************************************
 447:Generated_Source\PSoC4/UART_UART.c **** * Function Name: UART_UartSetRxAddressMask
 448:Generated_Source\PSoC4/UART_UART.c **** ****************************************************************************//**
 449:Generated_Source\PSoC4/UART_UART.c **** *
 450:Generated_Source\PSoC4/UART_UART.c **** *  Sets the hardware address mask for the UART in the Multiprocessor mode.
 451:Generated_Source\PSoC4/UART_UART.c **** *
 452:Generated_Source\PSoC4/UART_UART.c **** *  \param addressMask: Address mask.
ARM GAS  C:\Users\7709\AppData\Local\Temp\ccouWW3Q.s 			page 15


 453:Generated_Source\PSoC4/UART_UART.c **** *   - Bit value 0 – excludes bit from address comparison.
 454:Generated_Source\PSoC4/UART_UART.c **** *   - Bit value 1 – the bit needs to match with the corresponding bit
 455:Generated_Source\PSoC4/UART_UART.c **** *     of the address.
 456:Generated_Source\PSoC4/UART_UART.c **** *
 457:Generated_Source\PSoC4/UART_UART.c **** *******************************************************************************/
 458:Generated_Source\PSoC4/UART_UART.c **** void UART_UartSetRxAddressMask(uint32 addressMask)
 459:Generated_Source\PSoC4/UART_UART.c **** {
 307              		.loc 1 459 0
 308              		.cfi_startproc
 309              		@ args = 0, pretend = 0, frame = 0
 310              		@ frame_needed = 0, uses_anonymous_args = 0
 311              		@ link register save eliminated.
 312              	.LVL8:
 460:Generated_Source\PSoC4/UART_UART.c ****     uint32 matchReg;
 461:Generated_Source\PSoC4/UART_UART.c **** 
 462:Generated_Source\PSoC4/UART_UART.c ****     matchReg = UART_RX_MATCH_REG;
 313              		.loc 1 462 0
 314 0000 034A     		ldr	r2, .L14
 463:Generated_Source\PSoC4/UART_UART.c **** 
 464:Generated_Source\PSoC4/UART_UART.c ****     matchReg &= ((uint32) ~UART_RX_MATCH_MASK_MASK); /* Clear address mask bits */
 315              		.loc 1 464 0
 316 0002 044B     		ldr	r3, .L14+4
 462:Generated_Source\PSoC4/UART_UART.c **** 
 317              		.loc 1 462 0
 318 0004 1168     		ldr	r1, [r2]
 319              	.LVL9:
 465:Generated_Source\PSoC4/UART_UART.c ****     matchReg |= ((uint32) (addressMask << UART_RX_MATCH_MASK_POS));
 320              		.loc 1 465 0
 321 0006 0004     		lsls	r0, r0, #16
 322              	.LVL10:
 464:Generated_Source\PSoC4/UART_UART.c ****     matchReg |= ((uint32) (addressMask << UART_RX_MATCH_MASK_POS));
 323              		.loc 1 464 0
 324 0008 0B40     		ands	r3, r1
 325              	.LVL11:
 326              		.loc 1 465 0
 327 000a 1843     		orrs	r0, r3
 328              	.LVL12:
 466:Generated_Source\PSoC4/UART_UART.c **** 
 467:Generated_Source\PSoC4/UART_UART.c ****     UART_RX_MATCH_REG = matchReg;
 329              		.loc 1 467 0
 330 000c 1060     		str	r0, [r2]
 468:Generated_Source\PSoC4/UART_UART.c **** }
 331              		.loc 1 468 0
 332              		@ sp needed
 333 000e 7047     		bx	lr
 334              	.L15:
 335              		.align	2
 336              	.L14:
 337 0010 10032440 		.word	1076101904
 338 0014 FFFF00FF 		.word	-16711681
 339              		.cfi_endproc
 340              	.LFE6:
 341              		.size	UART_UartSetRxAddressMask, .-UART_UartSetRxAddressMask
 342              		.section	.text.UART_UartGetChar,"ax",%progbits
 343              		.align	1
 344              		.global	UART_UartGetChar
 345              		.code	16
ARM GAS  C:\Users\7709\AppData\Local\Temp\ccouWW3Q.s 			page 16


 346              		.thumb_func
 347              		.type	UART_UartGetChar, %function
 348              	UART_UartGetChar:
 349              	.LFB7:
 469:Generated_Source\PSoC4/UART_UART.c **** 
 470:Generated_Source\PSoC4/UART_UART.c **** 
 471:Generated_Source\PSoC4/UART_UART.c **** #if(UART_UART_RX_DIRECTION)
 472:Generated_Source\PSoC4/UART_UART.c ****     /*******************************************************************************
 473:Generated_Source\PSoC4/UART_UART.c ****     * Function Name: UART_UartGetChar
 474:Generated_Source\PSoC4/UART_UART.c ****     ****************************************************************************//**
 475:Generated_Source\PSoC4/UART_UART.c ****     *
 476:Generated_Source\PSoC4/UART_UART.c ****     *  Retrieves next data element from receive buffer.
 477:Generated_Source\PSoC4/UART_UART.c ****     *  This function is designed for ASCII characters and returns a char where
 478:Generated_Source\PSoC4/UART_UART.c ****     *  1 to 255 are valid characters and 0 indicates an error occurred or no data
 479:Generated_Source\PSoC4/UART_UART.c ****     *  is present.
 480:Generated_Source\PSoC4/UART_UART.c ****     *  - RX software buffer is disabled: Returns data element retrieved from RX
 481:Generated_Source\PSoC4/UART_UART.c ****     *    FIFO.
 482:Generated_Source\PSoC4/UART_UART.c ****     *  - RX software buffer is enabled: Returns data element from the software
 483:Generated_Source\PSoC4/UART_UART.c ****     *    receive buffer.
 484:Generated_Source\PSoC4/UART_UART.c ****     *
 485:Generated_Source\PSoC4/UART_UART.c ****     *  \return
 486:Generated_Source\PSoC4/UART_UART.c ****     *   Next data element from the receive buffer. ASCII character values from
 487:Generated_Source\PSoC4/UART_UART.c ****     *   1 to 255 are valid. A returned zero signifies an error condition or no
 488:Generated_Source\PSoC4/UART_UART.c ****     *   data available.
 489:Generated_Source\PSoC4/UART_UART.c ****     *
 490:Generated_Source\PSoC4/UART_UART.c ****     *  \sideeffect
 491:Generated_Source\PSoC4/UART_UART.c ****     *   The errors bits may not correspond with reading characters due to
 492:Generated_Source\PSoC4/UART_UART.c ****     *   RX FIFO and software buffer usage.
 493:Generated_Source\PSoC4/UART_UART.c ****     *   RX software buffer is enabled: The internal software buffer overflow
 494:Generated_Source\PSoC4/UART_UART.c ****     *   is not treated as an error condition.
 495:Generated_Source\PSoC4/UART_UART.c ****     *   Check UART_rxBufferOverflow to capture that error condition.
 496:Generated_Source\PSoC4/UART_UART.c ****     *
 497:Generated_Source\PSoC4/UART_UART.c ****     *******************************************************************************/
 498:Generated_Source\PSoC4/UART_UART.c ****     uint32 UART_UartGetChar(void)
 499:Generated_Source\PSoC4/UART_UART.c ****     {
 350              		.loc 1 499 0
 351              		.cfi_startproc
 352              		@ args = 0, pretend = 0, frame = 0
 353              		@ frame_needed = 0, uses_anonymous_args = 0
 354              	.LVL13:
 355 0000 10B5     		push	{r4, lr}
 356              		.cfi_def_cfa_offset 8
 357              		.cfi_offset 4, -8
 358              		.cfi_offset 14, -4
 500:Generated_Source\PSoC4/UART_UART.c ****         uint32 rxData = 0u;
 501:Generated_Source\PSoC4/UART_UART.c **** 
 502:Generated_Source\PSoC4/UART_UART.c ****         /* Reads data only if there is data to read */
 503:Generated_Source\PSoC4/UART_UART.c ****         if (0u != UART_SpiUartGetRxBufferSize())
 359              		.loc 1 503 0
 360 0002 FFF7FEFF 		bl	UART_SpiUartGetRxBufferSize
 361              	.LVL14:
 362 0006 0300     		movs	r3, r0
 500:Generated_Source\PSoC4/UART_UART.c ****         uint32 rxData = 0u;
 363              		.loc 1 500 0
 364 0008 0020     		movs	r0, #0
 365              		.loc 1 503 0
 366 000a 8342     		cmp	r3, r0
ARM GAS  C:\Users\7709\AppData\Local\Temp\ccouWW3Q.s 			page 17


 367 000c 01D0     		beq	.L17
 504:Generated_Source\PSoC4/UART_UART.c ****         {
 505:Generated_Source\PSoC4/UART_UART.c ****             rxData = UART_SpiUartReadRxData();
 368              		.loc 1 505 0
 369 000e FFF7FEFF 		bl	UART_SpiUartReadRxData
 370              	.LVL15:
 371              	.L17:
 506:Generated_Source\PSoC4/UART_UART.c ****         }
 507:Generated_Source\PSoC4/UART_UART.c **** 
 508:Generated_Source\PSoC4/UART_UART.c ****         if (UART_CHECK_INTR_RX(UART_INTR_RX_ERR))
 372              		.loc 1 508 0
 373 0012 D822     		movs	r2, #216
 374 0014 034B     		ldr	r3, .L25
 375 0016 9200     		lsls	r2, r2, #2
 376 0018 1968     		ldr	r1, [r3]
 377 001a 1142     		tst	r1, r2
 378 001c 01D0     		beq	.L18
 379              	.LVL16:
 509:Generated_Source\PSoC4/UART_UART.c ****         {
 510:Generated_Source\PSoC4/UART_UART.c ****             rxData = 0u; /* Error occurred: returns zero */
 380              		.loc 1 510 0
 381 001e 0020     		movs	r0, #0
 511:Generated_Source\PSoC4/UART_UART.c ****             UART_ClearRxInterruptSource(UART_INTR_RX_ERR);
 382              		.loc 1 511 0
 383 0020 1A60     		str	r2, [r3]
 384              	.LVL17:
 385              	.L18:
 512:Generated_Source\PSoC4/UART_UART.c ****         }
 513:Generated_Source\PSoC4/UART_UART.c **** 
 514:Generated_Source\PSoC4/UART_UART.c ****         return (rxData);
 515:Generated_Source\PSoC4/UART_UART.c ****     }
 386              		.loc 1 515 0
 387              		@ sp needed
 388 0022 10BD     		pop	{r4, pc}
 389              	.L26:
 390              		.align	2
 391              	.L25:
 392 0024 C00F2440 		.word	1076105152
 393              		.cfi_endproc
 394              	.LFE7:
 395              		.size	UART_UartGetChar, .-UART_UartGetChar
 396              		.section	.text.UART_UartGetByte,"ax",%progbits
 397              		.align	1
 398              		.global	UART_UartGetByte
 399              		.code	16
 400              		.thumb_func
 401              		.type	UART_UartGetByte, %function
 402              	UART_UartGetByte:
 403              	.LFB8:
 516:Generated_Source\PSoC4/UART_UART.c **** 
 517:Generated_Source\PSoC4/UART_UART.c **** 
 518:Generated_Source\PSoC4/UART_UART.c ****     /*******************************************************************************
 519:Generated_Source\PSoC4/UART_UART.c ****     * Function Name: UART_UartGetByte
 520:Generated_Source\PSoC4/UART_UART.c ****     ****************************************************************************//**
 521:Generated_Source\PSoC4/UART_UART.c ****     *
 522:Generated_Source\PSoC4/UART_UART.c ****     *  Retrieves the next data element from the receive buffer, returns the
 523:Generated_Source\PSoC4/UART_UART.c ****     *  received byte and error condition.
ARM GAS  C:\Users\7709\AppData\Local\Temp\ccouWW3Q.s 			page 18


 524:Generated_Source\PSoC4/UART_UART.c ****     *   - The RX software buffer is disabled: returns the data element retrieved
 525:Generated_Source\PSoC4/UART_UART.c ****     *     from the RX FIFO. Undefined data will be returned if the RX FIFO is
 526:Generated_Source\PSoC4/UART_UART.c ****     *     empty.
 527:Generated_Source\PSoC4/UART_UART.c ****     *   - The RX software buffer is enabled: returns data element from the
 528:Generated_Source\PSoC4/UART_UART.c ****     *     software receive buffer.
 529:Generated_Source\PSoC4/UART_UART.c ****     *
 530:Generated_Source\PSoC4/UART_UART.c ****     *  \return
 531:Generated_Source\PSoC4/UART_UART.c ****     *   Bits 7-0 contain the next data element from the receive buffer and
 532:Generated_Source\PSoC4/UART_UART.c ****     *   other bits contain the error condition.
 533:Generated_Source\PSoC4/UART_UART.c ****     *   - UART_UART_RX_OVERFLOW - Attempt to write to a full
 534:Generated_Source\PSoC4/UART_UART.c ****     *     receiver FIFO.
 535:Generated_Source\PSoC4/UART_UART.c ****     *   - UART_UART_RX_UNDERFLOW    Attempt to read from an empty
 536:Generated_Source\PSoC4/UART_UART.c ****     *     receiver FIFO.
 537:Generated_Source\PSoC4/UART_UART.c ****     *   - UART_UART_RX_FRAME_ERROR - UART framing error detected.
 538:Generated_Source\PSoC4/UART_UART.c ****     *   - UART_UART_RX_PARITY_ERROR - UART parity error detected.
 539:Generated_Source\PSoC4/UART_UART.c ****     *
 540:Generated_Source\PSoC4/UART_UART.c ****     *  \sideeffect
 541:Generated_Source\PSoC4/UART_UART.c ****     *   The errors bits may not correspond with reading characters due to
 542:Generated_Source\PSoC4/UART_UART.c ****     *   RX FIFO and software buffer usage.
 543:Generated_Source\PSoC4/UART_UART.c ****     *   RX software buffer is enabled: The internal software buffer overflow
 544:Generated_Source\PSoC4/UART_UART.c ****     *   is not treated as an error condition.
 545:Generated_Source\PSoC4/UART_UART.c ****     *   Check UART_rxBufferOverflow to capture that error condition.
 546:Generated_Source\PSoC4/UART_UART.c ****     *
 547:Generated_Source\PSoC4/UART_UART.c ****     *******************************************************************************/
 548:Generated_Source\PSoC4/UART_UART.c ****     uint32 UART_UartGetByte(void)
 549:Generated_Source\PSoC4/UART_UART.c ****     {
 404              		.loc 1 549 0
 405              		.cfi_startproc
 406              		@ args = 0, pretend = 0, frame = 0
 407              		@ frame_needed = 0, uses_anonymous_args = 0
 408 0000 70B5     		push	{r4, r5, r6, lr}
 409              		.cfi_def_cfa_offset 16
 410              		.cfi_offset 4, -16
 411              		.cfi_offset 5, -12
 412              		.cfi_offset 6, -8
 413              		.cfi_offset 14, -4
 550:Generated_Source\PSoC4/UART_UART.c ****         uint32 rxData;
 551:Generated_Source\PSoC4/UART_UART.c ****         uint32 tmpStatus;
 552:Generated_Source\PSoC4/UART_UART.c **** 
 553:Generated_Source\PSoC4/UART_UART.c ****         #if (UART_CHECK_RX_SW_BUFFER)
 554:Generated_Source\PSoC4/UART_UART.c ****         {
 555:Generated_Source\PSoC4/UART_UART.c ****             UART_DisableInt();
 414              		.loc 1 555 0
 415 0002 0920     		movs	r0, #9
 416 0004 FFF7FEFF 		bl	CyIntDisable
 417              	.LVL18:
 556:Generated_Source\PSoC4/UART_UART.c ****         }
 557:Generated_Source\PSoC4/UART_UART.c ****         #endif
 558:Generated_Source\PSoC4/UART_UART.c **** 
 559:Generated_Source\PSoC4/UART_UART.c ****         if (0u != UART_SpiUartGetRxBufferSize())
 418              		.loc 1 559 0
 419 0008 FFF7FEFF 		bl	UART_SpiUartGetRxBufferSize
 420              	.LVL19:
 421 000c 0D4D     		ldr	r5, .L30
 422 000e 0028     		cmp	r0, #0
 423 0010 06D0     		beq	.L28
 560:Generated_Source\PSoC4/UART_UART.c ****         {
ARM GAS  C:\Users\7709\AppData\Local\Temp\ccouWW3Q.s 			page 19


 561:Generated_Source\PSoC4/UART_UART.c ****             /* Enables interrupt to receive more bytes: at least one byte is in
 562:Generated_Source\PSoC4/UART_UART.c ****             * buffer.
 563:Generated_Source\PSoC4/UART_UART.c ****             */
 564:Generated_Source\PSoC4/UART_UART.c ****             #if (UART_CHECK_RX_SW_BUFFER)
 565:Generated_Source\PSoC4/UART_UART.c ****             {
 566:Generated_Source\PSoC4/UART_UART.c ****                 UART_EnableInt();
 424              		.loc 1 566 0
 425 0012 0920     		movs	r0, #9
 426 0014 FFF7FEFF 		bl	CyIntEnable
 427              	.LVL20:
 567:Generated_Source\PSoC4/UART_UART.c ****             }
 568:Generated_Source\PSoC4/UART_UART.c ****             #endif
 569:Generated_Source\PSoC4/UART_UART.c **** 
 570:Generated_Source\PSoC4/UART_UART.c ****             /* Get received byte */
 571:Generated_Source\PSoC4/UART_UART.c ****             rxData = UART_SpiUartReadRxData();
 428              		.loc 1 571 0
 429 0018 FFF7FEFF 		bl	UART_SpiUartReadRxData
 430              	.LVL21:
 431 001c 0400     		movs	r4, r0
 432              	.LVL22:
 433 001e 06E0     		b	.L29
 434              	.LVL23:
 435              	.L28:
 572:Generated_Source\PSoC4/UART_UART.c ****         }
 573:Generated_Source\PSoC4/UART_UART.c ****         else
 574:Generated_Source\PSoC4/UART_UART.c ****         {
 575:Generated_Source\PSoC4/UART_UART.c ****             /* Reads a byte directly from RX FIFO: underflow is raised in the
 576:Generated_Source\PSoC4/UART_UART.c ****             * case of empty. Otherwise the first received byte will be read.
 577:Generated_Source\PSoC4/UART_UART.c ****             */
 578:Generated_Source\PSoC4/UART_UART.c ****             rxData = UART_RX_FIFO_RD_REG;
 436              		.loc 1 578 0
 437 0020 094B     		ldr	r3, .L30+4
 579:Generated_Source\PSoC4/UART_UART.c **** 
 580:Generated_Source\PSoC4/UART_UART.c **** 
 581:Generated_Source\PSoC4/UART_UART.c ****             /* Enables interrupt to receive more bytes. */
 582:Generated_Source\PSoC4/UART_UART.c ****             #if (UART_CHECK_RX_SW_BUFFER)
 583:Generated_Source\PSoC4/UART_UART.c ****             {
 584:Generated_Source\PSoC4/UART_UART.c **** 
 585:Generated_Source\PSoC4/UART_UART.c ****                 /* The byte has been read from RX FIFO. Clear RX interrupt to
 586:Generated_Source\PSoC4/UART_UART.c ****                 * not involve interrupt handler when RX FIFO is empty.
 587:Generated_Source\PSoC4/UART_UART.c ****                 */
 588:Generated_Source\PSoC4/UART_UART.c ****                 UART_ClearRxInterruptSource(UART_INTR_RX_NOT_EMPTY);
 589:Generated_Source\PSoC4/UART_UART.c **** 
 590:Generated_Source\PSoC4/UART_UART.c ****                 UART_EnableInt();
 438              		.loc 1 590 0
 439 0022 0920     		movs	r0, #9
 578:Generated_Source\PSoC4/UART_UART.c **** 
 440              		.loc 1 578 0
 441 0024 1C68     		ldr	r4, [r3]
 442              	.LVL24:
 588:Generated_Source\PSoC4/UART_UART.c **** 
 443              		.loc 1 588 0
 444 0026 0423     		movs	r3, #4
 445 0028 2B60     		str	r3, [r5]
 446              		.loc 1 590 0
 447 002a FFF7FEFF 		bl	CyIntEnable
 448              	.LVL25:
ARM GAS  C:\Users\7709\AppData\Local\Temp\ccouWW3Q.s 			page 20


 449              	.L29:
 591:Generated_Source\PSoC4/UART_UART.c ****             }
 592:Generated_Source\PSoC4/UART_UART.c ****             #endif
 593:Generated_Source\PSoC4/UART_UART.c ****         }
 594:Generated_Source\PSoC4/UART_UART.c **** 
 595:Generated_Source\PSoC4/UART_UART.c ****         /* Get and clear RX error mask */
 596:Generated_Source\PSoC4/UART_UART.c ****         tmpStatus = (UART_GetRxInterruptSource() & UART_INTR_RX_ERR);
 597:Generated_Source\PSoC4/UART_UART.c ****         UART_ClearRxInterruptSource(UART_INTR_RX_ERR);
 450              		.loc 1 597 0
 451 002e D823     		movs	r3, #216
 452 0030 9B00     		lsls	r3, r3, #2
 596:Generated_Source\PSoC4/UART_UART.c ****         UART_ClearRxInterruptSource(UART_INTR_RX_ERR);
 453              		.loc 1 596 0
 454 0032 2868     		ldr	r0, [r5]
 455              	.LVL26:
 456              		.loc 1 597 0
 457 0034 2B60     		str	r3, [r5]
 458              	.LVL27:
 598:Generated_Source\PSoC4/UART_UART.c **** 
 599:Generated_Source\PSoC4/UART_UART.c ****         /* Puts together data and error status:
 600:Generated_Source\PSoC4/UART_UART.c ****         * MP mode and accept address: 9th bit is set to notify mark.
 601:Generated_Source\PSoC4/UART_UART.c ****         */
 602:Generated_Source\PSoC4/UART_UART.c ****         rxData |= ((uint32) (tmpStatus << 8u));
 603:Generated_Source\PSoC4/UART_UART.c **** 
 604:Generated_Source\PSoC4/UART_UART.c ****         return (rxData);
 459              		.loc 1 604 0
 460 0036 D823     		movs	r3, #216
 461 0038 0002     		lsls	r0, r0, #8
 462              	.LVL28:
 463 003a 9B02     		lsls	r3, r3, #10
 464 003c 1840     		ands	r0, r3
 465 003e 2043     		orrs	r0, r4
 605:Generated_Source\PSoC4/UART_UART.c ****     }
 466              		.loc 1 605 0
 467              		@ sp needed
 468 0040 70BD     		pop	{r4, r5, r6, pc}
 469              	.L31:
 470 0042 C046     		.align	2
 471              	.L30:
 472 0044 C00F2440 		.word	1076105152
 473 0048 40032440 		.word	1076101952
 474              		.cfi_endproc
 475              	.LFE8:
 476              		.size	UART_UartGetByte, .-UART_UartGetByte
 477              		.section	.text.UART_UartSetRtsPolarity,"ax",%progbits
 478              		.align	1
 479              		.global	UART_UartSetRtsPolarity
 480              		.code	16
 481              		.thumb_func
 482              		.type	UART_UartSetRtsPolarity, %function
 483              	UART_UartSetRtsPolarity:
 484              	.LFB9:
 606:Generated_Source\PSoC4/UART_UART.c **** 
 607:Generated_Source\PSoC4/UART_UART.c **** 
 608:Generated_Source\PSoC4/UART_UART.c ****     #if !(UART_CY_SCBIP_V0 || UART_CY_SCBIP_V1)
 609:Generated_Source\PSoC4/UART_UART.c ****         /*******************************************************************************
 610:Generated_Source\PSoC4/UART_UART.c ****         * Function Name: UART_UartSetRtsPolarity
ARM GAS  C:\Users\7709\AppData\Local\Temp\ccouWW3Q.s 			page 21


 611:Generated_Source\PSoC4/UART_UART.c ****         ****************************************************************************//**
 612:Generated_Source\PSoC4/UART_UART.c ****         *
 613:Generated_Source\PSoC4/UART_UART.c ****         *  Sets active polarity of RTS output signal.
 614:Generated_Source\PSoC4/UART_UART.c ****         *  Only available for PSoC 4100 BLE / PSoC 4200 BLE / PSoC 4100M / PSoC 4200M /
 615:Generated_Source\PSoC4/UART_UART.c ****         *  PSoC 4200L / PSoC 4000S / PSoC 4100S / PSoC Analog Coprocessor devices.
 616:Generated_Source\PSoC4/UART_UART.c ****         *
 617:Generated_Source\PSoC4/UART_UART.c ****         *  \param polarity: Active polarity of RTS output signal.
 618:Generated_Source\PSoC4/UART_UART.c ****         *   - UART_UART_RTS_ACTIVE_LOW  - RTS signal is active low.
 619:Generated_Source\PSoC4/UART_UART.c ****         *   - UART_UART_RTS_ACTIVE_HIGH - RTS signal is active high.
 620:Generated_Source\PSoC4/UART_UART.c ****         *
 621:Generated_Source\PSoC4/UART_UART.c ****         *******************************************************************************/
 622:Generated_Source\PSoC4/UART_UART.c ****         void UART_UartSetRtsPolarity(uint32 polarity)
 623:Generated_Source\PSoC4/UART_UART.c ****         {
 485              		.loc 1 623 0
 486              		.cfi_startproc
 487              		@ args = 0, pretend = 0, frame = 0
 488              		@ frame_needed = 0, uses_anonymous_args = 0
 489              		@ link register save eliminated.
 490              	.LVL29:
 491 0000 064B     		ldr	r3, .L36
 624:Generated_Source\PSoC4/UART_UART.c ****             if(0u != polarity)
 492              		.loc 1 624 0
 493 0002 0028     		cmp	r0, #0
 494 0004 04D0     		beq	.L33
 625:Generated_Source\PSoC4/UART_UART.c ****             {
 626:Generated_Source\PSoC4/UART_UART.c ****                 UART_UART_FLOW_CTRL_REG |= (uint32)  UART_UART_FLOW_CTRL_RTS_POLARITY;
 495              		.loc 1 626 0
 496 0006 8021     		movs	r1, #128
 497 0008 1A68     		ldr	r2, [r3]
 498 000a 4902     		lsls	r1, r1, #9
 499 000c 0A43     		orrs	r2, r1
 500 000e 02E0     		b	.L35
 501              	.L33:
 627:Generated_Source\PSoC4/UART_UART.c ****             }
 628:Generated_Source\PSoC4/UART_UART.c ****             else
 629:Generated_Source\PSoC4/UART_UART.c ****             {
 630:Generated_Source\PSoC4/UART_UART.c ****                 UART_UART_FLOW_CTRL_REG &= (uint32) ~UART_UART_FLOW_CTRL_RTS_POLARITY;
 502              		.loc 1 630 0
 503 0010 1968     		ldr	r1, [r3]
 504 0012 034A     		ldr	r2, .L36+4
 505 0014 0A40     		ands	r2, r1
 506              	.L35:
 507 0016 1A60     		str	r2, [r3]
 631:Generated_Source\PSoC4/UART_UART.c ****             }
 632:Generated_Source\PSoC4/UART_UART.c ****         }
 508              		.loc 1 632 0
 509              		@ sp needed
 510 0018 7047     		bx	lr
 511              	.L37:
 512 001a C046     		.align	2
 513              	.L36:
 514 001c 50002440 		.word	1076101200
 515 0020 FFFFFEFF 		.word	-65537
 516              		.cfi_endproc
 517              	.LFE9:
 518              		.size	UART_UartSetRtsPolarity, .-UART_UartSetRtsPolarity
 519              		.section	.text.UART_UartSetRtsFifoLevel,"ax",%progbits
ARM GAS  C:\Users\7709\AppData\Local\Temp\ccouWW3Q.s 			page 22


 520              		.align	1
 521              		.global	UART_UartSetRtsFifoLevel
 522              		.code	16
 523              		.thumb_func
 524              		.type	UART_UartSetRtsFifoLevel, %function
 525              	UART_UartSetRtsFifoLevel:
 526              	.LFB10:
 633:Generated_Source\PSoC4/UART_UART.c **** 
 634:Generated_Source\PSoC4/UART_UART.c **** 
 635:Generated_Source\PSoC4/UART_UART.c ****         /*******************************************************************************
 636:Generated_Source\PSoC4/UART_UART.c ****         * Function Name: UART_UartSetRtsFifoLevel
 637:Generated_Source\PSoC4/UART_UART.c ****         ****************************************************************************//**
 638:Generated_Source\PSoC4/UART_UART.c ****         *
 639:Generated_Source\PSoC4/UART_UART.c ****         *  Sets level in the RX FIFO for RTS signal activation.
 640:Generated_Source\PSoC4/UART_UART.c ****         *  While the RX FIFO has fewer entries than the RX FIFO level the RTS signal
 641:Generated_Source\PSoC4/UART_UART.c ****         *  remains active, otherwise the RTS signal becomes inactive.
 642:Generated_Source\PSoC4/UART_UART.c ****         *  Only available for PSoC 4100 BLE / PSoC 4200 BLE / PSoC 4100M / PSoC 4200M /
 643:Generated_Source\PSoC4/UART_UART.c ****         *  PSoC 4200L / PSoC 4000S / PSoC 4100S / PSoC Analog Coprocessor devices.
 644:Generated_Source\PSoC4/UART_UART.c ****         *
 645:Generated_Source\PSoC4/UART_UART.c ****         *  \param level: Level in the RX FIFO for RTS signal activation.
 646:Generated_Source\PSoC4/UART_UART.c ****         *   The range of valid level values is between 0 and RX FIFO depth - 1.
 647:Generated_Source\PSoC4/UART_UART.c ****         *   Setting level value to 0 disables RTS signal activation.
 648:Generated_Source\PSoC4/UART_UART.c ****         *
 649:Generated_Source\PSoC4/UART_UART.c ****         *******************************************************************************/
 650:Generated_Source\PSoC4/UART_UART.c ****         void UART_UartSetRtsFifoLevel(uint32 level)
 651:Generated_Source\PSoC4/UART_UART.c ****         {
 527              		.loc 1 651 0
 528              		.cfi_startproc
 529              		@ args = 0, pretend = 0, frame = 0
 530              		@ frame_needed = 0, uses_anonymous_args = 0
 531              		@ link register save eliminated.
 532              	.LVL30:
 652:Generated_Source\PSoC4/UART_UART.c ****             uint32 uartFlowCtrl;
 653:Generated_Source\PSoC4/UART_UART.c **** 
 654:Generated_Source\PSoC4/UART_UART.c ****             uartFlowCtrl = UART_UART_FLOW_CTRL_REG;
 655:Generated_Source\PSoC4/UART_UART.c **** 
 656:Generated_Source\PSoC4/UART_UART.c ****             uartFlowCtrl &= ((uint32) ~UART_UART_FLOW_CTRL_TRIGGER_LEVEL_MASK); /* Clear level mask
 533              		.loc 1 656 0
 534 0000 0F22     		movs	r2, #15
 654:Generated_Source\PSoC4/UART_UART.c **** 
 535              		.loc 1 654 0
 536 0002 0349     		ldr	r1, .L39
 657:Generated_Source\PSoC4/UART_UART.c ****             uartFlowCtrl |= ((uint32) (UART_UART_FLOW_CTRL_TRIGGER_LEVEL_MASK & level));
 537              		.loc 1 657 0
 538 0004 1040     		ands	r0, r2
 539              	.LVL31:
 654:Generated_Source\PSoC4/UART_UART.c **** 
 540              		.loc 1 654 0
 541 0006 0B68     		ldr	r3, [r1]
 542              	.LVL32:
 658:Generated_Source\PSoC4/UART_UART.c **** 
 659:Generated_Source\PSoC4/UART_UART.c ****             UART_UART_FLOW_CTRL_REG = uartFlowCtrl;
 660:Generated_Source\PSoC4/UART_UART.c ****         }
 543              		.loc 1 660 0
 544              		@ sp needed
 656:Generated_Source\PSoC4/UART_UART.c ****             uartFlowCtrl |= ((uint32) (UART_UART_FLOW_CTRL_TRIGGER_LEVEL_MASK & level));
 545              		.loc 1 656 0
ARM GAS  C:\Users\7709\AppData\Local\Temp\ccouWW3Q.s 			page 23


 546 0008 9343     		bics	r3, r2
 547              	.LVL33:
 657:Generated_Source\PSoC4/UART_UART.c ****             uartFlowCtrl |= ((uint32) (UART_UART_FLOW_CTRL_TRIGGER_LEVEL_MASK & level));
 548              		.loc 1 657 0
 549 000a 1843     		orrs	r0, r3
 550              	.LVL34:
 659:Generated_Source\PSoC4/UART_UART.c ****         }
 551              		.loc 1 659 0
 552 000c 0860     		str	r0, [r1]
 553              		.loc 1 660 0
 554 000e 7047     		bx	lr
 555              	.L40:
 556              		.align	2
 557              	.L39:
 558 0010 50002440 		.word	1076101200
 559              		.cfi_endproc
 560              	.LFE10:
 561              		.size	UART_UartSetRtsFifoLevel, .-UART_UartSetRtsFifoLevel
 562              		.section	.text.UART_UartPutString,"ax",%progbits
 563              		.align	1
 564              		.global	UART_UartPutString
 565              		.code	16
 566              		.thumb_func
 567              		.type	UART_UartPutString, %function
 568              	UART_UartPutString:
 569              	.LFB11:
 661:Generated_Source\PSoC4/UART_UART.c ****     #endif /* !(UART_CY_SCBIP_V0 || UART_CY_SCBIP_V1) */
 662:Generated_Source\PSoC4/UART_UART.c **** 
 663:Generated_Source\PSoC4/UART_UART.c **** #endif /* (UART_UART_RX_DIRECTION) */
 664:Generated_Source\PSoC4/UART_UART.c **** 
 665:Generated_Source\PSoC4/UART_UART.c **** 
 666:Generated_Source\PSoC4/UART_UART.c **** #if(UART_UART_TX_DIRECTION)
 667:Generated_Source\PSoC4/UART_UART.c ****     /*******************************************************************************
 668:Generated_Source\PSoC4/UART_UART.c ****     * Function Name: UART_UartPutString
 669:Generated_Source\PSoC4/UART_UART.c ****     ****************************************************************************//**
 670:Generated_Source\PSoC4/UART_UART.c ****     *
 671:Generated_Source\PSoC4/UART_UART.c ****     *  Places a NULL terminated string in the transmit buffer to be sent at the
 672:Generated_Source\PSoC4/UART_UART.c ****     *  next available bus time.
 673:Generated_Source\PSoC4/UART_UART.c ****     *  This function is blocking and waits until there is a space available to put
 674:Generated_Source\PSoC4/UART_UART.c ****     *  requested data in transmit buffer.
 675:Generated_Source\PSoC4/UART_UART.c ****     *
 676:Generated_Source\PSoC4/UART_UART.c ****     *  \param string: pointer to the null terminated string array to be placed in the
 677:Generated_Source\PSoC4/UART_UART.c ****     *   transmit buffer.
 678:Generated_Source\PSoC4/UART_UART.c ****     *
 679:Generated_Source\PSoC4/UART_UART.c ****     *******************************************************************************/
 680:Generated_Source\PSoC4/UART_UART.c ****     void UART_UartPutString(const char8 string[])
 681:Generated_Source\PSoC4/UART_UART.c ****     {
 570              		.loc 1 681 0
 571              		.cfi_startproc
 572              		@ args = 0, pretend = 0, frame = 0
 573              		@ frame_needed = 0, uses_anonymous_args = 0
 574              	.LVL35:
 575 0000 10B5     		push	{r4, lr}
 576              		.cfi_def_cfa_offset 8
 577              		.cfi_offset 4, -8
 578              		.cfi_offset 14, -4
 579 0002 0400     		movs	r4, r0
ARM GAS  C:\Users\7709\AppData\Local\Temp\ccouWW3Q.s 			page 24


 580              	.LVL36:
 581              	.L42:
 582 0004 0134     		adds	r4, r4, #1
 583              	.LVL37:
 682:Generated_Source\PSoC4/UART_UART.c ****         uint32 bufIndex;
 683:Generated_Source\PSoC4/UART_UART.c **** 
 684:Generated_Source\PSoC4/UART_UART.c ****         bufIndex = 0u;
 685:Generated_Source\PSoC4/UART_UART.c **** 
 686:Generated_Source\PSoC4/UART_UART.c ****         /* Blocks the control flow until all data has been sent */
 687:Generated_Source\PSoC4/UART_UART.c ****         while(string[bufIndex] != ((char8) 0))
 584              		.loc 1 687 0
 585 0006 631E     		subs	r3, r4, #1
 586 0008 1878     		ldrb	r0, [r3]
 587 000a 0028     		cmp	r0, #0
 588 000c 02D0     		beq	.L44
 688:Generated_Source\PSoC4/UART_UART.c ****         {
 689:Generated_Source\PSoC4/UART_UART.c ****             UART_UartPutChar((uint32) string[bufIndex]);
 589              		.loc 1 689 0
 590 000e FFF7FEFF 		bl	UART_SpiUartWriteTxData
 591              	.LVL38:
 592 0012 F7E7     		b	.L42
 593              	.LVL39:
 594              	.L44:
 690:Generated_Source\PSoC4/UART_UART.c ****             bufIndex++;
 691:Generated_Source\PSoC4/UART_UART.c ****         }
 692:Generated_Source\PSoC4/UART_UART.c ****     }
 595              		.loc 1 692 0
 596              		@ sp needed
 597              	.LVL40:
 598 0014 10BD     		pop	{r4, pc}
 599              		.cfi_endproc
 600              	.LFE11:
 601              		.size	UART_UartPutString, .-UART_UartPutString
 602              		.section	.text.UART_UartPutCRLF,"ax",%progbits
 603              		.align	1
 604              		.global	UART_UartPutCRLF
 605              		.code	16
 606              		.thumb_func
 607              		.type	UART_UartPutCRLF, %function
 608              	UART_UartPutCRLF:
 609              	.LFB12:
 693:Generated_Source\PSoC4/UART_UART.c **** 
 694:Generated_Source\PSoC4/UART_UART.c **** 
 695:Generated_Source\PSoC4/UART_UART.c ****     /*******************************************************************************
 696:Generated_Source\PSoC4/UART_UART.c ****     * Function Name: UART_UartPutCRLF
 697:Generated_Source\PSoC4/UART_UART.c ****     ****************************************************************************//**
 698:Generated_Source\PSoC4/UART_UART.c ****     *
 699:Generated_Source\PSoC4/UART_UART.c ****     *  Places byte of data followed by a carriage return (0x0D) and line feed
 700:Generated_Source\PSoC4/UART_UART.c ****     *  (0x0A) in the transmit buffer.
 701:Generated_Source\PSoC4/UART_UART.c ****     *  This function is blocking and waits until there is a space available to put
 702:Generated_Source\PSoC4/UART_UART.c ****     *  all requested data in transmit buffer.
 703:Generated_Source\PSoC4/UART_UART.c ****     *
 704:Generated_Source\PSoC4/UART_UART.c ****     *  \param txDataByte: the data to be transmitted.
 705:Generated_Source\PSoC4/UART_UART.c ****     *
 706:Generated_Source\PSoC4/UART_UART.c ****     *******************************************************************************/
 707:Generated_Source\PSoC4/UART_UART.c ****     void UART_UartPutCRLF(uint32 txDataByte)
 708:Generated_Source\PSoC4/UART_UART.c ****     {
ARM GAS  C:\Users\7709\AppData\Local\Temp\ccouWW3Q.s 			page 25


 610              		.loc 1 708 0
 611              		.cfi_startproc
 612              		@ args = 0, pretend = 0, frame = 0
 613              		@ frame_needed = 0, uses_anonymous_args = 0
 614              	.LVL41:
 615 0000 10B5     		push	{r4, lr}
 616              		.cfi_def_cfa_offset 8
 617              		.cfi_offset 4, -8
 618              		.cfi_offset 14, -4
 709:Generated_Source\PSoC4/UART_UART.c ****         UART_UartPutChar(txDataByte);  /* Blocks control flow until all data has been sent */
 619              		.loc 1 709 0
 620 0002 FFF7FEFF 		bl	UART_SpiUartWriteTxData
 621              	.LVL42:
 710:Generated_Source\PSoC4/UART_UART.c ****         UART_UartPutChar(0x0Du);       /* Blocks control flow until all data has been sent */
 622              		.loc 1 710 0
 623 0006 0D20     		movs	r0, #13
 624 0008 FFF7FEFF 		bl	UART_SpiUartWriteTxData
 625              	.LVL43:
 711:Generated_Source\PSoC4/UART_UART.c ****         UART_UartPutChar(0x0Au);       /* Blocks control flow until all data has been sent */
 626              		.loc 1 711 0
 627 000c 0A20     		movs	r0, #10
 628 000e FFF7FEFF 		bl	UART_SpiUartWriteTxData
 629              	.LVL44:
 712:Generated_Source\PSoC4/UART_UART.c ****     }
 630              		.loc 1 712 0
 631              		@ sp needed
 632 0012 10BD     		pop	{r4, pc}
 633              		.cfi_endproc
 634              	.LFE12:
 635              		.size	UART_UartPutCRLF, .-UART_UartPutCRLF
 636              		.section	.text.UART_UartEnableCts,"ax",%progbits
 637              		.align	1
 638              		.global	UART_UartEnableCts
 639              		.code	16
 640              		.thumb_func
 641              		.type	UART_UartEnableCts, %function
 642              	UART_UartEnableCts:
 643              	.LFB13:
 713:Generated_Source\PSoC4/UART_UART.c **** 
 714:Generated_Source\PSoC4/UART_UART.c **** 
 715:Generated_Source\PSoC4/UART_UART.c ****     #if !(UART_CY_SCBIP_V0 || UART_CY_SCBIP_V1)
 716:Generated_Source\PSoC4/UART_UART.c ****         /*******************************************************************************
 717:Generated_Source\PSoC4/UART_UART.c ****         * Function Name: UARTSCB_UartEnableCts
 718:Generated_Source\PSoC4/UART_UART.c ****         ****************************************************************************//**
 719:Generated_Source\PSoC4/UART_UART.c ****         *
 720:Generated_Source\PSoC4/UART_UART.c ****         *  Enables usage of CTS input signal by the UART transmitter.
 721:Generated_Source\PSoC4/UART_UART.c ****         *  Only available for PSoC 4100 BLE / PSoC 4200 BLE / PSoC 4100M / PSoC 4200M /
 722:Generated_Source\PSoC4/UART_UART.c ****         *  PSoC 4200L / PSoC 4000S / PSoC 4100S / PSoC Analog Coprocessor devices.
 723:Generated_Source\PSoC4/UART_UART.c ****         *
 724:Generated_Source\PSoC4/UART_UART.c ****         *******************************************************************************/
 725:Generated_Source\PSoC4/UART_UART.c ****         void UART_UartEnableCts(void)
 726:Generated_Source\PSoC4/UART_UART.c ****         {
 644              		.loc 1 726 0
 645              		.cfi_startproc
 646              		@ args = 0, pretend = 0, frame = 0
 647              		@ frame_needed = 0, uses_anonymous_args = 0
 648              		@ link register save eliminated.
ARM GAS  C:\Users\7709\AppData\Local\Temp\ccouWW3Q.s 			page 26


 727:Generated_Source\PSoC4/UART_UART.c ****             UART_UART_FLOW_CTRL_REG |= (uint32)  UART_UART_FLOW_CTRL_CTS_ENABLE;
 649              		.loc 1 727 0
 650 0000 8021     		movs	r1, #128
 651 0002 034A     		ldr	r2, .L47
 652 0004 8904     		lsls	r1, r1, #18
 653 0006 1368     		ldr	r3, [r2]
 728:Generated_Source\PSoC4/UART_UART.c ****         }
 654              		.loc 1 728 0
 655              		@ sp needed
 727:Generated_Source\PSoC4/UART_UART.c ****             UART_UART_FLOW_CTRL_REG |= (uint32)  UART_UART_FLOW_CTRL_CTS_ENABLE;
 656              		.loc 1 727 0
 657 0008 0B43     		orrs	r3, r1
 658 000a 1360     		str	r3, [r2]
 659              		.loc 1 728 0
 660 000c 7047     		bx	lr
 661              	.L48:
 662 000e C046     		.align	2
 663              	.L47:
 664 0010 50002440 		.word	1076101200
 665              		.cfi_endproc
 666              	.LFE13:
 667              		.size	UART_UartEnableCts, .-UART_UartEnableCts
 668              		.section	.text.UART_UartDisableCts,"ax",%progbits
 669              		.align	1
 670              		.global	UART_UartDisableCts
 671              		.code	16
 672              		.thumb_func
 673              		.type	UART_UartDisableCts, %function
 674              	UART_UartDisableCts:
 675              	.LFB14:
 729:Generated_Source\PSoC4/UART_UART.c **** 
 730:Generated_Source\PSoC4/UART_UART.c **** 
 731:Generated_Source\PSoC4/UART_UART.c ****         /*******************************************************************************
 732:Generated_Source\PSoC4/UART_UART.c ****         * Function Name: UART_UartDisableCts
 733:Generated_Source\PSoC4/UART_UART.c ****         ****************************************************************************//**
 734:Generated_Source\PSoC4/UART_UART.c ****         *
 735:Generated_Source\PSoC4/UART_UART.c ****         *  Disables usage of CTS input signal by the UART transmitter.
 736:Generated_Source\PSoC4/UART_UART.c ****         *  Only available for PSoC 4100 BLE / PSoC 4200 BLE / PSoC 4100M / PSoC 4200M /
 737:Generated_Source\PSoC4/UART_UART.c ****         *  PSoC 4200L / PSoC 4000S / PSoC 4100S / PSoC Analog Coprocessor devices.
 738:Generated_Source\PSoC4/UART_UART.c ****         *
 739:Generated_Source\PSoC4/UART_UART.c ****         *******************************************************************************/
 740:Generated_Source\PSoC4/UART_UART.c ****         void UART_UartDisableCts(void)
 741:Generated_Source\PSoC4/UART_UART.c ****         {
 676              		.loc 1 741 0
 677              		.cfi_startproc
 678              		@ args = 0, pretend = 0, frame = 0
 679              		@ frame_needed = 0, uses_anonymous_args = 0
 680              		@ link register save eliminated.
 742:Generated_Source\PSoC4/UART_UART.c ****             UART_UART_FLOW_CTRL_REG &= (uint32) ~UART_UART_FLOW_CTRL_CTS_ENABLE;
 681              		.loc 1 742 0
 682 0000 024A     		ldr	r2, .L50
 683 0002 034B     		ldr	r3, .L50+4
 684 0004 1168     		ldr	r1, [r2]
 743:Generated_Source\PSoC4/UART_UART.c ****         }
 685              		.loc 1 743 0
 686              		@ sp needed
 742:Generated_Source\PSoC4/UART_UART.c ****             UART_UART_FLOW_CTRL_REG &= (uint32) ~UART_UART_FLOW_CTRL_CTS_ENABLE;
ARM GAS  C:\Users\7709\AppData\Local\Temp\ccouWW3Q.s 			page 27


 687              		.loc 1 742 0
 688 0006 0B40     		ands	r3, r1
 689 0008 1360     		str	r3, [r2]
 690              		.loc 1 743 0
 691 000a 7047     		bx	lr
 692              	.L51:
 693              		.align	2
 694              	.L50:
 695 000c 50002440 		.word	1076101200
 696 0010 FFFFFFFD 		.word	-33554433
 697              		.cfi_endproc
 698              	.LFE14:
 699              		.size	UART_UartDisableCts, .-UART_UartDisableCts
 700              		.section	.text.UART_UartSetCtsPolarity,"ax",%progbits
 701              		.align	1
 702              		.global	UART_UartSetCtsPolarity
 703              		.code	16
 704              		.thumb_func
 705              		.type	UART_UartSetCtsPolarity, %function
 706              	UART_UartSetCtsPolarity:
 707              	.LFB15:
 744:Generated_Source\PSoC4/UART_UART.c **** 
 745:Generated_Source\PSoC4/UART_UART.c **** 
 746:Generated_Source\PSoC4/UART_UART.c ****         /*******************************************************************************
 747:Generated_Source\PSoC4/UART_UART.c ****         * Function Name: UART_UartSetCtsPolarity
 748:Generated_Source\PSoC4/UART_UART.c ****         ****************************************************************************//**
 749:Generated_Source\PSoC4/UART_UART.c ****         *
 750:Generated_Source\PSoC4/UART_UART.c ****         *  Sets active polarity of CTS input signal.
 751:Generated_Source\PSoC4/UART_UART.c ****         *  Only available for PSoC 4100 BLE / PSoC 4200 BLE / PSoC 4100M / PSoC 4200M /
 752:Generated_Source\PSoC4/UART_UART.c ****         *  PSoC 4200L / PSoC 4000S / PSoC 4100S / PSoC Analog Coprocessor devices.
 753:Generated_Source\PSoC4/UART_UART.c ****         *
 754:Generated_Source\PSoC4/UART_UART.c ****         * \param
 755:Generated_Source\PSoC4/UART_UART.c ****         * polarity: Active polarity of CTS output signal.
 756:Generated_Source\PSoC4/UART_UART.c ****         *   - UART_UART_CTS_ACTIVE_LOW  - CTS signal is active low.
 757:Generated_Source\PSoC4/UART_UART.c ****         *   - UART_UART_CTS_ACTIVE_HIGH - CTS signal is active high.
 758:Generated_Source\PSoC4/UART_UART.c ****         *
 759:Generated_Source\PSoC4/UART_UART.c ****         *******************************************************************************/
 760:Generated_Source\PSoC4/UART_UART.c ****         void UART_UartSetCtsPolarity(uint32 polarity)
 761:Generated_Source\PSoC4/UART_UART.c ****         {
 708              		.loc 1 761 0
 709              		.cfi_startproc
 710              		@ args = 0, pretend = 0, frame = 0
 711              		@ frame_needed = 0, uses_anonymous_args = 0
 712              		@ link register save eliminated.
 713              	.LVL45:
 714 0000 064B     		ldr	r3, .L56
 762:Generated_Source\PSoC4/UART_UART.c ****             if (0u != polarity)
 715              		.loc 1 762 0
 716 0002 0028     		cmp	r0, #0
 717 0004 04D0     		beq	.L53
 763:Generated_Source\PSoC4/UART_UART.c ****             {
 764:Generated_Source\PSoC4/UART_UART.c ****                 UART_UART_FLOW_CTRL_REG |= (uint32)  UART_UART_FLOW_CTRL_CTS_POLARITY;
 718              		.loc 1 764 0
 719 0006 8021     		movs	r1, #128
 720 0008 1A68     		ldr	r2, [r3]
 721 000a 4904     		lsls	r1, r1, #17
 722 000c 0A43     		orrs	r2, r1
ARM GAS  C:\Users\7709\AppData\Local\Temp\ccouWW3Q.s 			page 28


 723 000e 02E0     		b	.L55
 724              	.L53:
 765:Generated_Source\PSoC4/UART_UART.c ****             }
 766:Generated_Source\PSoC4/UART_UART.c ****             else
 767:Generated_Source\PSoC4/UART_UART.c ****             {
 768:Generated_Source\PSoC4/UART_UART.c ****                 UART_UART_FLOW_CTRL_REG &= (uint32) ~UART_UART_FLOW_CTRL_CTS_POLARITY;
 725              		.loc 1 768 0
 726 0010 1968     		ldr	r1, [r3]
 727 0012 034A     		ldr	r2, .L56+4
 728 0014 0A40     		ands	r2, r1
 729              	.L55:
 730 0016 1A60     		str	r2, [r3]
 769:Generated_Source\PSoC4/UART_UART.c ****             }
 770:Generated_Source\PSoC4/UART_UART.c ****         }
 731              		.loc 1 770 0
 732              		@ sp needed
 733 0018 7047     		bx	lr
 734              	.L57:
 735 001a C046     		.align	2
 736              	.L56:
 737 001c 50002440 		.word	1076101200
 738 0020 FFFFFFFE 		.word	-16777217
 739              		.cfi_endproc
 740              	.LFE15:
 741              		.size	UART_UartSetCtsPolarity, .-UART_UartSetCtsPolarity
 742              		.section	.text.UART_UartSendBreakBlocking,"ax",%progbits
 743              		.align	1
 744              		.global	UART_UartSendBreakBlocking
 745              		.code	16
 746              		.thumb_func
 747              		.type	UART_UartSendBreakBlocking, %function
 748              	UART_UartSendBreakBlocking:
 749              	.LFB16:
 771:Generated_Source\PSoC4/UART_UART.c ****     #endif /* !(UART_CY_SCBIP_V0 || UART_CY_SCBIP_V1) */
 772:Generated_Source\PSoC4/UART_UART.c **** 
 773:Generated_Source\PSoC4/UART_UART.c **** 
 774:Generated_Source\PSoC4/UART_UART.c ****     /*******************************************************************************
 775:Generated_Source\PSoC4/UART_UART.c ****     * Function Name: UART_UartSendBreakBlocking
 776:Generated_Source\PSoC4/UART_UART.c ****     ****************************************************************************//**
 777:Generated_Source\PSoC4/UART_UART.c ****     *
 778:Generated_Source\PSoC4/UART_UART.c ****     * Sends a break condition (logic low) of specified width on UART TX line.
 779:Generated_Source\PSoC4/UART_UART.c ****     * Blocks until break is completed. Only call this function when UART TX FIFO
 780:Generated_Source\PSoC4/UART_UART.c ****     * and shifter are empty.
 781:Generated_Source\PSoC4/UART_UART.c ****     *
 782:Generated_Source\PSoC4/UART_UART.c ****     * \param breakWidth
 783:Generated_Source\PSoC4/UART_UART.c ****     * Width of break condition. Valid range is 4 to 16 bits.
 784:Generated_Source\PSoC4/UART_UART.c ****     *
 785:Generated_Source\PSoC4/UART_UART.c ****     * \note
 786:Generated_Source\PSoC4/UART_UART.c ****     * Before sending break all UART TX interrupt sources are disabled. The state
 787:Generated_Source\PSoC4/UART_UART.c ****     * of UART TX interrupt sources is restored before function returns.
 788:Generated_Source\PSoC4/UART_UART.c ****     *
 789:Generated_Source\PSoC4/UART_UART.c ****     * \sideeffect
 790:Generated_Source\PSoC4/UART_UART.c ****     * If this function is called while there is data in the TX FIFO or shifter that
 791:Generated_Source\PSoC4/UART_UART.c ****     * data will be shifted out in packets the size of breakWidth.
 792:Generated_Source\PSoC4/UART_UART.c ****     *
 793:Generated_Source\PSoC4/UART_UART.c ****     *******************************************************************************/
 794:Generated_Source\PSoC4/UART_UART.c ****     void UART_UartSendBreakBlocking(uint32 breakWidth)
ARM GAS  C:\Users\7709\AppData\Local\Temp\ccouWW3Q.s 			page 29


 795:Generated_Source\PSoC4/UART_UART.c ****     {
 750              		.loc 1 795 0
 751              		.cfi_startproc
 752              		@ args = 0, pretend = 0, frame = 8
 753              		@ frame_needed = 0, uses_anonymous_args = 0
 754              	.LVL46:
 755 0000 F7B5     		push	{r0, r1, r2, r4, r5, r6, r7, lr}
 756              		.cfi_def_cfa_offset 32
 757              		.cfi_offset 0, -32
 758              		.cfi_offset 1, -28
 759              		.cfi_offset 2, -24
 760              		.cfi_offset 4, -20
 761              		.cfi_offset 5, -16
 762              		.cfi_offset 6, -12
 763              		.cfi_offset 7, -8
 764              		.cfi_offset 14, -4
 796:Generated_Source\PSoC4/UART_UART.c ****         uint32 txCtrlReg;
 797:Generated_Source\PSoC4/UART_UART.c ****         uint32 txIntrReg;
 798:Generated_Source\PSoC4/UART_UART.c **** 
 799:Generated_Source\PSoC4/UART_UART.c ****         /* Disable all UART TX interrupt source and clear UART TX Done history */
 800:Generated_Source\PSoC4/UART_UART.c ****         txIntrReg = UART_GetTxInterruptMode();
 801:Generated_Source\PSoC4/UART_UART.c ****         UART_SetTxInterruptMode(0u);
 802:Generated_Source\PSoC4/UART_UART.c ****         UART_ClearTxInterruptSource(UART_INTR_TX_UART_DONE);
 765              		.loc 1 802 0
 766 0002 8024     		movs	r4, #128
 801:Generated_Source\PSoC4/UART_UART.c ****         UART_ClearTxInterruptSource(UART_INTR_TX_UART_DONE);
 767              		.loc 1 801 0
 768 0004 0026     		movs	r6, #0
 803:Generated_Source\PSoC4/UART_UART.c **** 
 804:Generated_Source\PSoC4/UART_UART.c ****         /* Store TX CTRL configuration */
 805:Generated_Source\PSoC4/UART_UART.c ****         txCtrlReg = UART_TX_CTRL_REG;
 806:Generated_Source\PSoC4/UART_UART.c **** 
 807:Generated_Source\PSoC4/UART_UART.c ****         /* Set break width */
 808:Generated_Source\PSoC4/UART_UART.c ****         UART_TX_CTRL_REG = (UART_TX_CTRL_REG & (uint32) ~UART_TX_CTRL_DATA_WIDTH_MASK) |
 769              		.loc 1 808 0
 770 0006 0F27     		movs	r7, #15
 800:Generated_Source\PSoC4/UART_UART.c ****         UART_SetTxInterruptMode(0u);
 771              		.loc 1 800 0
 772 0008 0E4A     		ldr	r2, .L62
 802:Generated_Source\PSoC4/UART_UART.c **** 
 773              		.loc 1 802 0
 774 000a 0F4D     		ldr	r5, .L62+4
 800:Generated_Source\PSoC4/UART_UART.c ****         UART_SetTxInterruptMode(0u);
 775              		.loc 1 800 0
 776 000c 1368     		ldr	r3, [r2]
 802:Generated_Source\PSoC4/UART_UART.c **** 
 777              		.loc 1 802 0
 778 000e A400     		lsls	r4, r4, #2
 800:Generated_Source\PSoC4/UART_UART.c ****         UART_SetTxInterruptMode(0u);
 779              		.loc 1 800 0
 780 0010 0193     		str	r3, [sp, #4]
 781              	.LVL47:
 805:Generated_Source\PSoC4/UART_UART.c **** 
 782              		.loc 1 805 0
 783 0012 0E4B     		ldr	r3, .L62+8
 784              	.LVL48:
 801:Generated_Source\PSoC4/UART_UART.c ****         UART_ClearTxInterruptSource(UART_INTR_TX_UART_DONE);
ARM GAS  C:\Users\7709\AppData\Local\Temp\ccouWW3Q.s 			page 30


 785              		.loc 1 801 0
 786 0014 1660     		str	r6, [r2]
 802:Generated_Source\PSoC4/UART_UART.c **** 
 787              		.loc 1 802 0
 788 0016 2C60     		str	r4, [r5]
 805:Generated_Source\PSoC4/UART_UART.c **** 
 789              		.loc 1 805 0
 790 0018 1968     		ldr	r1, [r3]
 791              		.loc 1 808 0
 792 001a 0138     		subs	r0, r0, #1
 793              	.LVL49:
 805:Generated_Source\PSoC4/UART_UART.c **** 
 794              		.loc 1 805 0
 795 001c 8C46     		mov	ip, r1
 796              	.LVL50:
 797              		.loc 1 808 0
 798 001e 1968     		ldr	r1, [r3]
 799              	.LVL51:
 800 0020 3840     		ands	r0, r7
 801              	.LVL52:
 802 0022 B943     		bics	r1, r7
 803 0024 0843     		orrs	r0, r1
 809:Generated_Source\PSoC4/UART_UART.c ****                                         UART_GET_TX_CTRL_DATA_WIDTH(breakWidth);
 810:Generated_Source\PSoC4/UART_UART.c **** 
 811:Generated_Source\PSoC4/UART_UART.c ****         /* Generate break */
 812:Generated_Source\PSoC4/UART_UART.c ****         UART_TX_FIFO_WR_REG = 0u;
 804              		.loc 1 812 0
 805 0026 0A49     		ldr	r1, .L62+12
 808:Generated_Source\PSoC4/UART_UART.c ****                                         UART_GET_TX_CTRL_DATA_WIDTH(breakWidth);
 806              		.loc 1 808 0
 807 0028 1860     		str	r0, [r3]
 808              		.loc 1 812 0
 809 002a 0E60     		str	r6, [r1]
 810              	.L59:
 813:Generated_Source\PSoC4/UART_UART.c **** 
 814:Generated_Source\PSoC4/UART_UART.c ****         /* Wait for break completion */
 815:Generated_Source\PSoC4/UART_UART.c ****         while (0u == (UART_GetTxInterruptSource() & UART_INTR_TX_UART_DONE))
 811              		.loc 1 815 0 discriminator 1
 812 002c 2968     		ldr	r1, [r5]
 813 002e 2142     		tst	r1, r4
 814 0030 FCD0     		beq	.L59
 816:Generated_Source\PSoC4/UART_UART.c ****         {
 817:Generated_Source\PSoC4/UART_UART.c ****         }
 818:Generated_Source\PSoC4/UART_UART.c **** 
 819:Generated_Source\PSoC4/UART_UART.c ****         /* Clear all UART TX interrupt sources to  */
 820:Generated_Source\PSoC4/UART_UART.c ****         UART_ClearTxInterruptSource(UART_INTR_TX_ALL);
 815              		.loc 1 820 0
 816 0032 0848     		ldr	r0, .L62+16
 817 0034 0449     		ldr	r1, .L62+4
 821:Generated_Source\PSoC4/UART_UART.c **** 
 822:Generated_Source\PSoC4/UART_UART.c ****         /* Restore TX interrupt sources and data width */
 823:Generated_Source\PSoC4/UART_UART.c ****         UART_TX_CTRL_REG = txCtrlReg;
 824:Generated_Source\PSoC4/UART_UART.c ****         UART_SetTxInterruptMode(txIntrReg);
 825:Generated_Source\PSoC4/UART_UART.c ****     }
 818              		.loc 1 825 0
 819              		@ sp needed
 820:Generated_Source\PSoC4/UART_UART.c **** 
ARM GAS  C:\Users\7709\AppData\Local\Temp\ccouWW3Q.s 			page 31


 820              		.loc 1 820 0
 821 0036 0860     		str	r0, [r1]
 823:Generated_Source\PSoC4/UART_UART.c ****         UART_SetTxInterruptMode(txIntrReg);
 822              		.loc 1 823 0
 823 0038 6146     		mov	r1, ip
 824 003a 1960     		str	r1, [r3]
 824:Generated_Source\PSoC4/UART_UART.c ****     }
 825              		.loc 1 824 0
 826 003c 019B     		ldr	r3, [sp, #4]
 827 003e 1360     		str	r3, [r2]
 828              		.loc 1 825 0
 829 0040 F7BD     		pop	{r0, r1, r2, r4, r5, r6, r7, pc}
 830              	.L63:
 831 0042 C046     		.align	2
 832              	.L62:
 833 0044 880F2440 		.word	1076105096
 834 0048 800F2440 		.word	1076105088
 835 004c 00022440 		.word	1076101632
 836 0050 40022440 		.word	1076101696
 837 0054 F3070000 		.word	2035
 838              		.cfi_endproc
 839              	.LFE16:
 840              		.size	UART_UartSendBreakBlocking, .-UART_UartSendBreakBlocking
 841              		.text
 842              	.Letext0:
 843              		.file 2 "Generated_Source\\PSoC4/cytypes.h"
 844              		.file 3 "Generated_Source\\PSoC4\\UART_PVT.h"
 845              		.file 4 "Generated_Source\\PSoC4\\UART_SPI_UART_PVT.h"
 846              		.file 5 "Generated_Source\\PSoC4/CyLib.h"
 847              		.file 6 "Generated_Source\\PSoC4\\UART_SPI_UART.h"