ARM GAS  C:\Users\7709\AppData\Local\Temp\ccrhrxjH.s 			page 1


   1              		.syntax unified
   2              		.cpu cortex-m0
   3              		.fpu softvfp
   4              		.eabi_attribute 20, 1
   5              		.eabi_attribute 21, 1
   6              		.eabi_attribute 23, 3
   7              		.eabi_attribute 24, 1
   8              		.eabi_attribute 25, 1
   9              		.eabi_attribute 26, 1
  10              		.eabi_attribute 30, 6
  11              		.eabi_attribute 34, 0
  12              		.eabi_attribute 18, 4
  13              		.thumb
  14              		.syntax unified
  15              		.file	"app_UART.c"
  16              		.text
  17              	.Ltext0:
  18              		.cfi_sections	.debug_frame
  19              		.comm	bleApiResult,2,2
  20              		.bss
  21              	peerDeviceFound:
  22 0000 00       		.space	1
  23              	notificationEnabled:
  24 0001 00       		.space	1
  25              		.comm	cyBle_last_state,2,2
  26              		.comm	attrHandleRange,4,4
  27              		.comm	charDescHandleRange,4,4
  28              		.comm	packetSum,4,4
  29              		.comm	modes,1,1
  30              		.comm	clock,3,4
  31              		.section	.text.HandleUartRxTraffic,"ax",%progbits
  32              		.align	2
  33              		.global	HandleUartRxTraffic
  34              		.code	16
  35              		.thumb_func
  36              		.type	HandleUartRxTraffic, %function
  37              	HandleUartRxTraffic:
  38              	.LFB63:
  39              		.file 1 "app_UART.c"
   1:app_UART.c    **** /*******************************************************************************
   2:app_UART.c    **** * File Name: app_UART.c
   3:app_UART.c    **** *
   4:app_UART.c    **** * Description:
   5:app_UART.c    **** *  Common BLE application code for client devices.
   6:app_UART.c    **** *
   7:app_UART.c    **** *******************************************************************************
   8:app_UART.c    **** * Copyright 2015, Cypress Semiconductor Corporation.  All rights reserved.
   9:app_UART.c    **** * You may use this file only in accordance with the license, terms, conditions,
  10:app_UART.c    **** * disclaimers, and limitations in the end user license agreement accompanying
  11:app_UART.c    **** * the software package with which this file was provided.
  12:app_UART.c    **** *******************************************************************************/
  13:app_UART.c    **** 
  14:app_UART.c    **** #include "app_UART.h"
  15:app_UART.c    **** 
  16:app_UART.c    **** /*******************************************************************************
  17:app_UART.c    **** *                        Function Name: HandleUartRxTraffic
  18:app_UART.c    **** ********************************************************************************
ARM GAS  C:\Users\7709\AppData\Local\Temp\ccrhrxjH.s 			page 2


  19:app_UART.c    **** *
  20:app_UART.c    **** * Summary:
  21:app_UART.c    **** *  This function takes data from received notfications and pushes it to the 
  22:app_UART.c    **** *  UART TX buffer. 
  23:app_UART.c    **** *
  24:app_UART.c    **** * Parameters:
  25:app_UART.c    **** *  CYBLE_GATTC_HANDLE_VALUE_NTF_PARAM_T * - the notification parameter as  
  26:app_UART.c    **** *                                           recieved by the BLE stack
  27:app_UART.c    **** *
  28:app_UART.c    **** * Return:
  29:app_UART.c    **** *   None.
  30:app_UART.c    **** *
  31:app_UART.c    **** *******************************************************************************/
  32:app_UART.c    **** void HandleUartRxTraffic(CYBLE_GATTC_HANDLE_VALUE_NTF_PARAM_T *uartRxDataNotification)
  33:app_UART.c    **** {
  40              		.loc 1 33 0
  41              		.cfi_startproc
  42              		@ args = 0, pretend = 0, frame = 8
  43              		@ frame_needed = 1, uses_anonymous_args = 0
  44 0000 80B5     		push	{r7, lr}
  45              		.cfi_def_cfa_offset 8
  46              		.cfi_offset 7, -8
  47              		.cfi_offset 14, -4
  48 0002 82B0     		sub	sp, sp, #8
  49              		.cfi_def_cfa_offset 16
  50 0004 00AF     		add	r7, sp, #0
  51              		.cfi_def_cfa_register 7
  52 0006 7860     		str	r0, [r7, #4]
  34:app_UART.c    ****     if(uartRxDataNotification->handleValPair.attrHandle == txCharHandle)
  53              		.loc 1 34 0
  54 0008 7B68     		ldr	r3, [r7, #4]
  55 000a 9A89     		ldrh	r2, [r3, #12]
  56 000c 074B     		ldr	r3, .L4
  57 000e 1B88     		ldrh	r3, [r3]
  58 0010 9A42     		cmp	r2, r3
  59 0012 07D1     		bne	.L3
  35:app_UART.c    ****     {
  36:app_UART.c    ****         UART_SpiUartPutArray(uartRxDataNotification->handleValPair.value.val, \
  60              		.loc 1 36 0
  61 0014 7B68     		ldr	r3, [r7, #4]
  62 0016 5A68     		ldr	r2, [r3, #4]
  37:app_UART.c    ****             (uint32) uartRxDataNotification->handleValPair.value.len);
  63              		.loc 1 37 0
  64 0018 7B68     		ldr	r3, [r7, #4]
  65 001a 1B89     		ldrh	r3, [r3, #8]
  36:app_UART.c    ****             (uint32) uartRxDataNotification->handleValPair.value.len);
  66              		.loc 1 36 0
  67 001c 1900     		movs	r1, r3
  68 001e 1000     		movs	r0, r2
  69 0020 FFF7FEFF 		bl	UART_SpiUartPutArray
  70              	.L3:
  38:app_UART.c    ****     }
  39:app_UART.c    **** }
  71              		.loc 1 39 0
  72 0024 C046     		nop
  73 0026 BD46     		mov	sp, r7
  74 0028 02B0     		add	sp, sp, #8
ARM GAS  C:\Users\7709\AppData\Local\Temp\ccrhrxjH.s 			page 3


  75              		@ sp needed
  76 002a 80BD     		pop	{r7, pc}
  77              	.L5:
  78              		.align	2
  79              	.L4:
  80 002c 00000000 		.word	txCharHandle
  81              		.cfi_endproc
  82              	.LFE63:
  83              		.size	HandleUartRxTraffic, .-HandleUartRxTraffic
  84              		.section	.text.HandleUartTxTraffic,"ax",%progbits
  85              		.align	2
  86              		.global	HandleUartTxTraffic
  87              		.code	16
  88              		.thumb_func
  89              		.type	HandleUartTxTraffic, %function
  90              	HandleUartTxTraffic:
  91              	.LFB64:
  40:app_UART.c    **** 
  41:app_UART.c    **** /*******************************************************************************
  42:app_UART.c    **** * Function Name: HandleUartTxTraffic
  43:app_UART.c    **** ********************************************************************************
  44:app_UART.c    **** *
  45:app_UART.c    **** * Summary:
  46:app_UART.c    **** *  This function takes data from UART RX buffer and pushes it to the server 
  47:app_UART.c    **** *  as Write Without Response command.
  48:app_UART.c    **** *
  49:app_UART.c    **** * Parameters:
  50:app_UART.c    **** *  None.
  51:app_UART.c    **** *
  52:app_UART.c    **** * Return:
  53:app_UART.c    **** *   None.
  54:app_UART.c    **** *
  55:app_UART.c    **** *******************************************************************************/
  56:app_UART.c    **** void HandleUartTxTraffic(void)
  57:app_UART.c    **** {
  92              		.loc 1 57 0
  93              		.cfi_startproc
  94              		@ args = 0, pretend = 0, frame = 56
  95              		@ frame_needed = 1, uses_anonymous_args = 0
  96 0000 F0B5     		push	{r4, r5, r6, r7, lr}
  97              		.cfi_def_cfa_offset 20
  98              		.cfi_offset 4, -20
  99              		.cfi_offset 5, -16
 100              		.cfi_offset 6, -12
 101              		.cfi_offset 7, -8
 102              		.cfi_offset 14, -4
 103 0002 8FB0     		sub	sp, sp, #60
 104              		.cfi_def_cfa_offset 80
 105 0004 00AF     		add	r7, sp, #0
 106              		.cfi_def_cfa_register 7
 107              		.loc 1 57 0
 108 0006 6846     		mov	r0, sp
 109 0008 7860     		str	r0, [r7, #4]
  58:app_UART.c    ****     uint8   index;
  59:app_UART.c    ****     uint8   uartTxData[mtuSize - 3];
 110              		.loc 1 59 0
 111 000a 7748     		ldr	r0, .L15
ARM GAS  C:\Users\7709\AppData\Local\Temp\ccrhrxjH.s 			page 4


 112 000c 0088     		ldrh	r0, [r0]
 113 000e 0338     		subs	r0, r0, #3
 114 0010 431E     		subs	r3, r0, #1
 115 0012 9C46     		mov	ip, r3
 116 0014 6346     		mov	r3, ip
 117 0016 3B63     		str	r3, [r7, #48]
 118 0018 0300     		movs	r3, r0
 119 001a 3B61     		str	r3, [r7, #16]
 120 001c 0023     		movs	r3, #0
 121 001e 7B61     		str	r3, [r7, #20]
 122 0020 3B69     		ldr	r3, [r7, #16]
 123 0022 5B0F     		lsrs	r3, r3, #29
 124 0024 9C46     		mov	ip, r3
 125 0026 7B69     		ldr	r3, [r7, #20]
 126 0028 DA00     		lsls	r2, r3, #3
 127 002a 6346     		mov	r3, ip
 128 002c 1A43     		orrs	r2, r3
 129 002e 3B69     		ldr	r3, [r7, #16]
 130 0030 D900     		lsls	r1, r3, #3
 131 0032 0200     		movs	r2, r0
 132 0034 1500     		movs	r5, r2
 133 0036 0022     		movs	r2, #0
 134 0038 1600     		movs	r6, r2
 135 003a 6A0F     		lsrs	r2, r5, #29
 136 003c F300     		lsls	r3, r6, #3
 137 003e FB60     		str	r3, [r7, #12]
 138 0040 FB68     		ldr	r3, [r7, #12]
 139 0042 1343     		orrs	r3, r2
 140 0044 FB60     		str	r3, [r7, #12]
 141 0046 EB00     		lsls	r3, r5, #3
 142 0048 BB60     		str	r3, [r7, #8]
 143 004a 0300     		movs	r3, r0
 144 004c 0733     		adds	r3, r3, #7
 145 004e DB08     		lsrs	r3, r3, #3
 146 0050 DB00     		lsls	r3, r3, #3
 147 0052 6A46     		mov	r2, sp
 148 0054 D31A     		subs	r3, r2, r3
 149 0056 9D46     		mov	sp, r3
 150 0058 6B46     		mov	r3, sp
 151 005a 0033     		adds	r3, r3, #0
 152 005c FB62     		str	r3, [r7, #44]
  60:app_UART.c    ****     uint16  uartTxDataLength;
  61:app_UART.c    ****     
  62:app_UART.c    ****     static uint16 uartIdleCount = UART_IDLE_TIMEOUT;
  63:app_UART.c    ****     
  64:app_UART.c    ****     CYBLE_API_RESULT_T              bleApiResult;
  65:app_UART.c    ****     CYBLE_GATTC_WRITE_CMD_REQ_T     uartTxDataWriteCmd;
  66:app_UART.c    ****     
  67:app_UART.c    ****     uartTxDataLength = UART_SpiUartGetRxBufferSize();
 153              		.loc 1 67 0
 154 005e FFF7FEFF 		bl	UART_SpiUartGetRxBufferSize
 155 0062 0200     		movs	r2, r0
 156 0064 1C23     		movs	r3, #28
 157 0066 1821     		movs	r1, #24
 158 0068 8C46     		mov	ip, r1
 159 006a BC44     		add	ip, ip, r7
 160 006c 6344     		add	r3, r3, ip
ARM GAS  C:\Users\7709\AppData\Local\Temp\ccrhrxjH.s 			page 5


 161 006e 1A80     		strh	r2, [r3]
  68:app_UART.c    ****     
  69:app_UART.c    ****     #ifdef FLOW_CONTROL
  70:app_UART.c    ****         if(uartTxDataLength >= (UART_UART_RX_BUFFER_SIZE - (UART_UART_RX_BUFFER_SIZE/2)))
 162              		.loc 1 70 0
 163 0070 1C23     		movs	r3, #28
 164 0072 1822     		movs	r2, #24
 165 0074 9446     		mov	ip, r2
 166 0076 BC44     		add	ip, ip, r7
 167 0078 6344     		add	r3, r3, ip
 168 007a 1B88     		ldrh	r3, [r3]
 169 007c 5B4A     		ldr	r2, .L15+4
 170 007e 9342     		cmp	r3, r2
 171 0080 02D9     		bls	.L7
  71:app_UART.c    ****         {
  72:app_UART.c    ****             DisableUartRxInt();
 172              		.loc 1 72 0
 173 0082 FFF7FEFF 		bl	DisableUartRxInt
 174 0086 01E0     		b	.L8
 175              	.L7:
  73:app_UART.c    ****         }
  74:app_UART.c    ****         else
  75:app_UART.c    ****         {
  76:app_UART.c    ****             EnableUartRxInt();
 176              		.loc 1 76 0
 177 0088 FFF7FEFF 		bl	EnableUartRxInt
 178              	.L8:
  77:app_UART.c    ****         }
  78:app_UART.c    ****     #endif
  79:app_UART.c    ****     
  80:app_UART.c    ****     if((uartTxDataLength != 0))
 179              		.loc 1 80 0
 180 008c 1C23     		movs	r3, #28
 181 008e 1822     		movs	r2, #24
 182 0090 9446     		mov	ip, r2
 183 0092 BC44     		add	ip, ip, r7
 184 0094 6344     		add	r3, r3, ip
 185 0096 1B88     		ldrh	r3, [r3]
 186 0098 002B     		cmp	r3, #0
 187 009a 00D1     		bne	.LCB141
 188 009c 9DE0     		b	.L9	@long jump
 189              	.LCB141:
  81:app_UART.c    ****     {
  82:app_UART.c    ****         if(uartTxDataLength >= (mtuSize - 3))
 190              		.loc 1 82 0
 191 009e 1C23     		movs	r3, #28
 192 00a0 1822     		movs	r2, #24
 193 00a2 9446     		mov	ip, r2
 194 00a4 BC44     		add	ip, ip, r7
 195 00a6 6344     		add	r3, r3, ip
 196 00a8 1A88     		ldrh	r2, [r3]
 197 00aa 4F4B     		ldr	r3, .L15
 198 00ac 1B88     		ldrh	r3, [r3]
 199 00ae 033B     		subs	r3, r3, #3
 200 00b0 9A42     		cmp	r2, r3
 201 00b2 0DDB     		blt	.L10
  83:app_UART.c    ****         {
ARM GAS  C:\Users\7709\AppData\Local\Temp\ccrhrxjH.s 			page 6


  84:app_UART.c    ****             uartIdleCount       = UART_IDLE_TIMEOUT;
 202              		.loc 1 84 0
 203 00b4 4E4B     		ldr	r3, .L15+8
 204 00b6 FA22     		movs	r2, #250
 205 00b8 9200     		lsls	r2, r2, #2
 206 00ba 1A80     		strh	r2, [r3]
  85:app_UART.c    ****             uartTxDataLength    = mtuSize - 3;
 207              		.loc 1 85 0
 208 00bc 4A4B     		ldr	r3, .L15
 209 00be 1A88     		ldrh	r2, [r3]
 210 00c0 1C23     		movs	r3, #28
 211 00c2 1821     		movs	r1, #24
 212 00c4 8C46     		mov	ip, r1
 213 00c6 BC44     		add	ip, ip, r7
 214 00c8 6344     		add	r3, r3, ip
 215 00ca 033A     		subs	r2, r2, #3
 216 00cc 1A80     		strh	r2, [r3]
 217 00ce 10E0     		b	.L11
 218              	.L10:
  86:app_UART.c    ****         }
  87:app_UART.c    ****         else
  88:app_UART.c    ****         {
  89:app_UART.c    ****             if(--uartIdleCount == 0)
 219              		.loc 1 89 0
 220 00d0 474B     		ldr	r3, .L15+8
 221 00d2 1B88     		ldrh	r3, [r3]
 222 00d4 013B     		subs	r3, r3, #1
 223 00d6 9AB2     		uxth	r2, r3
 224 00d8 454B     		ldr	r3, .L15+8
 225 00da 1A80     		strh	r2, [r3]
 226 00dc 444B     		ldr	r3, .L15+8
 227 00de 1B88     		ldrh	r3, [r3]
 228 00e0 002B     		cmp	r3, #0
 229 00e2 06D0     		beq	.L11
  90:app_UART.c    ****             {
  91:app_UART.c    ****                 /*uartTxDataLength remains unchanged */;
  92:app_UART.c    ****             }
  93:app_UART.c    ****             else
  94:app_UART.c    ****             {
  95:app_UART.c    ****                 uartTxDataLength = 0;
 230              		.loc 1 95 0
 231 00e4 1C23     		movs	r3, #28
 232 00e6 1822     		movs	r2, #24
 233 00e8 9446     		mov	ip, r2
 234 00ea BC44     		add	ip, ip, r7
 235 00ec 6344     		add	r3, r3, ip
 236 00ee 0022     		movs	r2, #0
 237 00f0 1A80     		strh	r2, [r3]
 238              	.L11:
  96:app_UART.c    ****             }
  97:app_UART.c    ****         }
  98:app_UART.c    ****         
  99:app_UART.c    ****         if(0 != uartTxDataLength)
 239              		.loc 1 99 0
 240 00f2 1C23     		movs	r3, #28
 241 00f4 1822     		movs	r2, #24
 242 00f6 9446     		mov	ip, r2
ARM GAS  C:\Users\7709\AppData\Local\Temp\ccrhrxjH.s 			page 7


 243 00f8 BC44     		add	ip, ip, r7
 244 00fa 6344     		add	r3, r3, ip
 245 00fc 1B88     		ldrh	r3, [r3]
 246 00fe 002B     		cmp	r3, #0
 247 0100 6BD0     		beq	.L9
 100:app_UART.c    ****         {
 101:app_UART.c    ****             uartIdleCount       = UART_IDLE_TIMEOUT;
 248              		.loc 1 101 0
 249 0102 3B4B     		ldr	r3, .L15+8
 250 0104 FA22     		movs	r2, #250
 251 0106 9200     		lsls	r2, r2, #2
 252 0108 1A80     		strh	r2, [r3]
 102:app_UART.c    ****             
 103:app_UART.c    ****             for(index = 0; index < uartTxDataLength; index++)
 253              		.loc 1 103 0
 254 010a 1F23     		movs	r3, #31
 255 010c 1822     		movs	r2, #24
 256 010e 9446     		mov	ip, r2
 257 0110 BC44     		add	ip, ip, r7
 258 0112 6344     		add	r3, r3, ip
 259 0114 0022     		movs	r2, #0
 260 0116 1A70     		strb	r2, [r3]
 261 0118 18E0     		b	.L12
 262              	.L13:
 104:app_UART.c    ****             {
 105:app_UART.c    ****                 uartTxData[index] = (uint8) UART_UartGetByte();
 263              		.loc 1 105 0 discriminator 3
 264 011a 1F23     		movs	r3, #31
 265 011c 1822     		movs	r2, #24
 266 011e 9446     		mov	ip, r2
 267 0120 BC44     		add	ip, ip, r7
 268 0122 6344     		add	r3, r3, ip
 269 0124 1C78     		ldrb	r4, [r3]
 270 0126 FFF7FEFF 		bl	UART_UartGetByte
 271 012a 0300     		movs	r3, r0
 272 012c DAB2     		uxtb	r2, r3
 273 012e FB6A     		ldr	r3, [r7, #44]
 274 0130 1A55     		strb	r2, [r3, r4]
 103:app_UART.c    ****             {
 275              		.loc 1 103 0 discriminator 3
 276 0132 1F23     		movs	r3, #31
 277 0134 1822     		movs	r2, #24
 278 0136 9446     		mov	ip, r2
 279 0138 BC44     		add	ip, ip, r7
 280 013a 6344     		add	r3, r3, ip
 281 013c 1A78     		ldrb	r2, [r3]
 282 013e 1F23     		movs	r3, #31
 283 0140 1821     		movs	r1, #24
 284 0142 8C46     		mov	ip, r1
 285 0144 BC44     		add	ip, ip, r7
 286 0146 6344     		add	r3, r3, ip
 287 0148 0132     		adds	r2, r2, #1
 288 014a 1A70     		strb	r2, [r3]
 289              	.L12:
 103:app_UART.c    ****             {
 290              		.loc 1 103 0 is_stmt 0 discriminator 1
 291 014c 1F23     		movs	r3, #31
ARM GAS  C:\Users\7709\AppData\Local\Temp\ccrhrxjH.s 			page 8


 292 014e 1822     		movs	r2, #24
 293 0150 9446     		mov	ip, r2
 294 0152 BC44     		add	ip, ip, r7
 295 0154 6344     		add	r3, r3, ip
 296 0156 1B78     		ldrb	r3, [r3]
 297 0158 9BB2     		uxth	r3, r3
 298 015a 1C22     		movs	r2, #28
 299 015c 1821     		movs	r1, #24
 300 015e 8C46     		mov	ip, r1
 301 0160 BC44     		add	ip, ip, r7
 302 0162 6244     		add	r2, r2, ip
 303 0164 1288     		ldrh	r2, [r2]
 304 0166 9A42     		cmp	r2, r3
 305 0168 D7D8     		bhi	.L13
 106:app_UART.c    ****             }
 107:app_UART.c    ****             
 108:app_UART.c    ****             uartTxDataWriteCmd.attrHandle = rxCharHandle;
 306              		.loc 1 108 0 is_stmt 1
 307 016a 224B     		ldr	r3, .L15+12
 308 016c 1A88     		ldrh	r2, [r3]
 309 016e 1C23     		movs	r3, #28
 310 0170 FB18     		adds	r3, r7, r3
 311 0172 1A81     		strh	r2, [r3, #8]
 109:app_UART.c    ****             uartTxDataWriteCmd.value.len  = uartTxDataLength;
 312              		.loc 1 109 0
 313 0174 1C23     		movs	r3, #28
 314 0176 FB18     		adds	r3, r7, r3
 315 0178 1C22     		movs	r2, #28
 316 017a 1821     		movs	r1, #24
 317 017c 8C46     		mov	ip, r1
 318 017e BC44     		add	ip, ip, r7
 319 0180 6244     		add	r2, r2, ip
 320 0182 1288     		ldrh	r2, [r2]
 321 0184 9A80     		strh	r2, [r3, #4]
 110:app_UART.c    ****             uartTxDataWriteCmd.value.val  = uartTxData;           
 322              		.loc 1 110 0
 323 0186 FA6A     		ldr	r2, [r7, #44]
 324 0188 1C23     		movs	r3, #28
 325 018a FB18     		adds	r3, r7, r3
 326 018c 1A60     		str	r2, [r3]
 111:app_UART.c    ****             
 112:app_UART.c    ****             #ifdef FLOW_CONTROL
 113:app_UART.c    ****                 DisableUartRxInt();
 327              		.loc 1 113 0
 328 018e FFF7FEFF 		bl	DisableUartRxInt
 329              	.L14:
 114:app_UART.c    ****             #endif
 115:app_UART.c    ****             
 116:app_UART.c    ****             do
 117:app_UART.c    ****             {
 118:app_UART.c    ****                 bleApiResult = CyBle_GattcWriteWithoutResponse(cyBle_connHandle, &uartTxDataWriteCm
 330              		.loc 1 118 0 discriminator 2
 331 0192 1223     		movs	r3, #18
 332 0194 1822     		movs	r2, #24
 333 0196 BA18     		adds	r2, r7, r2
 334 0198 D418     		adds	r4, r2, r3
 335 019a 1C23     		movs	r3, #28
ARM GAS  C:\Users\7709\AppData\Local\Temp\ccrhrxjH.s 			page 9


 336 019c F918     		adds	r1, r7, r3
 337 019e 164B     		ldr	r3, .L15+16
 338 01a0 1A78     		ldrb	r2, [r3]
 339 01a2 5B78     		ldrb	r3, [r3, #1]
 340 01a4 1B02     		lsls	r3, r3, #8
 341 01a6 1A43     		orrs	r2, r3
 342 01a8 0023     		movs	r3, #0
 343 01aa 1204     		lsls	r2, r2, #16
 344 01ac 120C     		lsrs	r2, r2, #16
 345 01ae 1B0C     		lsrs	r3, r3, #16
 346 01b0 1B04     		lsls	r3, r3, #16
 347 01b2 1343     		orrs	r3, r2
 348 01b4 1800     		movs	r0, r3
 349 01b6 FFF7FEFF 		bl	CyBle_GattcWriteWithoutResponse
 350 01ba 0300     		movs	r3, r0
 351 01bc 2380     		strh	r3, [r4]
 119:app_UART.c    ****                 CyBle_ProcessEvents();
 352              		.loc 1 119 0 discriminator 2
 353 01be FFF7FEFF 		bl	CyBle_ProcessEvents
 120:app_UART.c    ****             }
 121:app_UART.c    ****             while((CYBLE_ERROR_OK != bleApiResult) && (CYBLE_STATE_CONNECTED == cyBle_state));
 354              		.loc 1 121 0 discriminator 2
 355 01c2 1223     		movs	r3, #18
 356 01c4 1822     		movs	r2, #24
 357 01c6 9446     		mov	ip, r2
 358 01c8 BC44     		add	ip, ip, r7
 359 01ca 6344     		add	r3, r3, ip
 360 01cc 1B88     		ldrh	r3, [r3]
 361 01ce 002B     		cmp	r3, #0
 362 01d0 03D0     		beq	.L9
 363              		.loc 1 121 0 is_stmt 0 discriminator 1
 364 01d2 0A4B     		ldr	r3, .L15+20
 365 01d4 1B78     		ldrb	r3, [r3]
 366 01d6 022B     		cmp	r3, #2
 367 01d8 DBD0     		beq	.L14
 368              	.L9:
 369 01da 7B68     		ldr	r3, [r7, #4]
 370 01dc 9D46     		mov	sp, r3
 122:app_UART.c    ****             
 123:app_UART.c    ****         }
 124:app_UART.c    ****     }
 125:app_UART.c    **** }
 371              		.loc 1 125 0 is_stmt 1
 372 01de C046     		nop
 373 01e0 BD46     		mov	sp, r7
 374 01e2 0FB0     		add	sp, sp, #60
 375              		@ sp needed
 376 01e4 F0BD     		pop	{r4, r5, r6, r7, pc}
 377              	.L16:
 378 01e6 C046     		.align	2
 379              	.L15:
 380 01e8 00000000 		.word	mtuSize
 381 01ec FF030000 		.word	1023
 382 01f0 00000000 		.word	uartIdleCount.7647
 383 01f4 00000000 		.word	rxCharHandle
 384 01f8 00000000 		.word	cyBle_connHandle
 385 01fc 00000000 		.word	cyBle_state
ARM GAS  C:\Users\7709\AppData\Local\Temp\ccrhrxjH.s 			page 10


 386              		.cfi_endproc
 387              	.LFE64:
 388              		.size	HandleUartTxTraffic, .-HandleUartTxTraffic
 389              		.section	.text.DisableUartRxInt,"ax",%progbits
 390              		.align	2
 391              		.global	DisableUartRxInt
 392              		.code	16
 393              		.thumb_func
 394              		.type	DisableUartRxInt, %function
 395              	DisableUartRxInt:
 396              	.LFB65:
 126:app_UART.c    **** 
 127:app_UART.c    **** /*****************************************************************************************
 128:app_UART.c    **** * Function Name: DisableUartRxInt
 129:app_UART.c    **** ******************************************************************************************
 130:app_UART.c    **** *
 131:app_UART.c    **** * Summary:
 132:app_UART.c    **** *  This function disables the UART RX interrupt.
 133:app_UART.c    **** *
 134:app_UART.c    **** * Parameters:
 135:app_UART.c    **** *   None.
 136:app_UART.c    **** *
 137:app_UART.c    **** * Return:
 138:app_UART.c    **** *   None.
 139:app_UART.c    **** *
 140:app_UART.c    **** *****************************************************************************************/
 141:app_UART.c    **** void DisableUartRxInt(void)
 142:app_UART.c    **** {
 397              		.loc 1 142 0
 398              		.cfi_startproc
 399              		@ args = 0, pretend = 0, frame = 0
 400              		@ frame_needed = 1, uses_anonymous_args = 0
 401 0000 80B5     		push	{r7, lr}
 402              		.cfi_def_cfa_offset 8
 403              		.cfi_offset 7, -8
 404              		.cfi_offset 14, -4
 405 0002 00AF     		add	r7, sp, #0
 406              		.cfi_def_cfa_register 7
 143:app_UART.c    ****     UART_INTR_RX_MASK_REG &= ~UART_RX_INTR_MASK;  
 407              		.loc 1 143 0
 408 0004 044B     		ldr	r3, .L18
 409 0006 044A     		ldr	r2, .L18
 410 0008 1268     		ldr	r2, [r2]
 411 000a 0421     		movs	r1, #4
 412 000c 8A43     		bics	r2, r1
 413 000e 1A60     		str	r2, [r3]
 144:app_UART.c    **** }
 414              		.loc 1 144 0
 415 0010 C046     		nop
 416 0012 BD46     		mov	sp, r7
 417              		@ sp needed
 418 0014 80BD     		pop	{r7, pc}
 419              	.L19:
 420 0016 C046     		.align	2
 421              	.L18:
 422 0018 C80F2440 		.word	1076105160
 423              		.cfi_endproc
ARM GAS  C:\Users\7709\AppData\Local\Temp\ccrhrxjH.s 			page 11


 424              	.LFE65:
 425              		.size	DisableUartRxInt, .-DisableUartRxInt
 426              		.section	.text.EnableUartRxInt,"ax",%progbits
 427              		.align	2
 428              		.global	EnableUartRxInt
 429              		.code	16
 430              		.thumb_func
 431              		.type	EnableUartRxInt, %function
 432              	EnableUartRxInt:
 433              	.LFB66:
 145:app_UART.c    **** 
 146:app_UART.c    **** /*****************************************************************************************
 147:app_UART.c    **** * Function Name: EnableUartRxInt
 148:app_UART.c    **** ******************************************************************************************
 149:app_UART.c    **** *
 150:app_UART.c    **** * Summary:
 151:app_UART.c    **** *  This function enables the UART RX interrupt.
 152:app_UART.c    **** *
 153:app_UART.c    **** * Parameters:
 154:app_UART.c    **** *   None.
 155:app_UART.c    **** *
 156:app_UART.c    **** * Return:
 157:app_UART.c    **** *   None.
 158:app_UART.c    **** *
 159:app_UART.c    **** *****************************************************************************************/
 160:app_UART.c    **** void EnableUartRxInt(void)
 161:app_UART.c    **** {
 434              		.loc 1 161 0
 435              		.cfi_startproc
 436              		@ args = 0, pretend = 0, frame = 0
 437              		@ frame_needed = 1, uses_anonymous_args = 0
 438 0000 80B5     		push	{r7, lr}
 439              		.cfi_def_cfa_offset 8
 440              		.cfi_offset 7, -8
 441              		.cfi_offset 14, -4
 442 0002 00AF     		add	r7, sp, #0
 443              		.cfi_def_cfa_register 7
 162:app_UART.c    ****     UART_INTR_RX_MASK_REG |= UART_RX_INTR_MASK;  
 444              		.loc 1 162 0
 445 0004 044B     		ldr	r3, .L21
 446 0006 044A     		ldr	r2, .L21
 447 0008 1268     		ldr	r2, [r2]
 448 000a 0421     		movs	r1, #4
 449 000c 0A43     		orrs	r2, r1
 450 000e 1A60     		str	r2, [r3]
 163:app_UART.c    **** }
 451              		.loc 1 163 0
 452 0010 C046     		nop
 453 0012 BD46     		mov	sp, r7
 454              		@ sp needed
 455 0014 80BD     		pop	{r7, pc}
 456              	.L22:
 457 0016 C046     		.align	2
 458              	.L21:
 459 0018 C80F2440 		.word	1076105160
 460              		.cfi_endproc
 461              	.LFE66:
ARM GAS  C:\Users\7709\AppData\Local\Temp\ccrhrxjH.s 			page 12


 462              		.size	EnableUartRxInt, .-EnableUartRxInt
 463              		.data
 464              		.align	1
 465              		.type	uartIdleCount.7647, %object
 466              		.size	uartIdleCount.7647, 2
 467              	uartIdleCount.7647:
 468 0000 E803     		.short	1000
 469              		.text
 470              	.Letext0:
 471              		.file 2 "Generated_Source\\PSoC4/cytypes.h"
 472              		.file 3 "Generated_Source\\PSoC4/BLE_Stack.h"
 473              		.file 4 "Generated_Source\\PSoC4/BLE_StackGatt.h"
 474              		.file 5 "Generated_Source\\PSoC4/BLE_StackGattClient.h"
 475              		.file 6 "Generated_Source\\PSoC4/BLE_eventHandler.h"
 476              		.file 7 "main.h"
 477              		.file 8 "app_UART.h"