ARM GAS  C:\Users\7709\AppData\Local\Temp\cc4KzQSA.s 			page 1


   1              		.syntax unified
   2              		.cpu cortex-m0
   3              		.fpu softvfp
   4              		.eabi_attribute 20, 1
   5              		.eabi_attribute 21, 1
   6              		.eabi_attribute 23, 3
   7              		.eabi_attribute 24, 1
   8              		.eabi_attribute 25, 1
   9              		.eabi_attribute 26, 1
  10              		.eabi_attribute 30, 6
  11              		.eabi_attribute 34, 0
  12              		.eabi_attribute 18, 4
  13              		.thumb
  14              		.syntax unified
  15              		.file	"main.c"
  16              		.text
  17              	.Ltext0:
  18              		.cfi_sections	.debug_frame
  19              		.comm	bleApiResult,2,2
  20              		.bss
  21              	peerDeviceFound:
  22 0000 00       		.space	1
  23              	notificationEnabled:
  24 0001 00       		.space	1
  25              		.comm	cyBle_last_state,2,2
  26              		.comm	attrHandleRange,4,4
  27              		.comm	charDescHandleRange,4,4
  28              		.comm	packetSum,4,4
  29              		.comm	modes,1,1
  30              		.global	txCharHandle
  31              		.align	1
  32              		.type	txCharHandle, %object
  33              		.size	txCharHandle, 2
  34              	txCharHandle:
  35 0002 0000     		.space	2
  36              		.global	rxCharHandle
  37              		.align	1
  38              		.type	rxCharHandle, %object
  39              		.size	rxCharHandle, 2
  40              	rxCharHandle:
  41 0004 0000     		.space	2
  42              		.global	txCharDescHandle
  43              		.align	1
  44              		.type	txCharDescHandle, %object
  45              		.size	txCharDescHandle, 2
  46              	txCharDescHandle:
  47 0006 0000     		.space	2
  48              		.global	bleUartServiceHandle
  49              		.align	1
  50              		.type	bleUartServiceHandle, %object
  51              		.size	bleUartServiceHandle, 2
  52              	bleUartServiceHandle:
  53 0008 0000     		.space	2
  54              		.global	bleUartServiceEndHandle
  55              		.align	1
  56              		.type	bleUartServiceEndHandle, %object
  57              		.size	bleUartServiceEndHandle, 2
ARM GAS  C:\Users\7709\AppData\Local\Temp\cc4KzQSA.s 			page 2


  58              	bleUartServiceEndHandle:
  59 000a 0000     		.space	2
  60              		.global	mtuSize
  61              		.data
  62              		.align	1
  63              		.type	mtuSize, %object
  64              		.size	mtuSize, 2
  65              	mtuSize:
  66 0000 1700     		.short	23
  67              		.global	enableNotificationParam
  68              		.section	.rodata
  69              		.align	2
  70              		.type	enableNotificationParam, %object
  71              		.size	enableNotificationParam, 2
  72              	enableNotificationParam:
  73 0000 01       		.byte	1
  74 0001 00       		.byte	0
  75              		.global	bleUartServiceUuid
  76 0002 0000     		.align	2
  77              		.type	bleUartServiceUuid, %object
  78              		.size	bleUartServiceUuid, 16
  79              	bleUartServiceUuid:
  80 0004 31       		.byte	49
  81 0005 01       		.byte	1
  82 0006 9B       		.byte	-101
  83 0007 5F       		.byte	95
  84 0008 80       		.byte	-128
  85 0009 00       		.byte	0
  86 000a 00       		.byte	0
  87 000b 80       		.byte	-128
  88 000c 00       		.byte	0
  89 000d 10       		.byte	16
  90 000e 00       		.byte	0
  91 000f 00       		.byte	0
  92 0010 D0       		.byte	-48
  93 0011 CD       		.byte	-51
  94 0012 03       		.byte	3
  95 0013 00       		.byte	0
  96              		.global	uartTxAttrUuid
  97              		.align	2
  98              		.type	uartTxAttrUuid, %object
  99              		.size	uartTxAttrUuid, 16
 100              	uartTxAttrUuid:
 101 0014 31       		.byte	49
 102 0015 01       		.byte	1
 103 0016 9B       		.byte	-101
 104 0017 5F       		.byte	95
 105 0018 80       		.byte	-128
 106 0019 00       		.byte	0
 107 001a 00       		.byte	0
 108 001b 80       		.byte	-128
 109 001c 00       		.byte	0
 110 001d 10       		.byte	16
 111 001e 00       		.byte	0
 112 001f 00       		.byte	0
 113 0020 D1       		.byte	-47
 114 0021 CD       		.byte	-51
ARM GAS  C:\Users\7709\AppData\Local\Temp\cc4KzQSA.s 			page 3


 115 0022 03       		.byte	3
 116 0023 00       		.byte	0
 117              		.global	uartRxAttrUuid
 118              		.align	2
 119              		.type	uartRxAttrUuid, %object
 120              		.size	uartRxAttrUuid, 16
 121              	uartRxAttrUuid:
 122 0024 31       		.byte	49
 123 0025 01       		.byte	1
 124 0026 9B       		.byte	-101
 125 0027 5F       		.byte	95
 126 0028 80       		.byte	-128
 127 0029 00       		.byte	0
 128 002a 00       		.byte	0
 129 002b 80       		.byte	-128
 130 002c 00       		.byte	0
 131 002d 10       		.byte	16
 132 002e 00       		.byte	0
 133 002f 00       		.byte	0
 134 0030 D2       		.byte	-46
 135 0031 CD       		.byte	-51
 136 0032 03       		.byte	3
 137 0033 00       		.byte	0
 138              		.global	bleUartServiceUuidInfo
 139              		.align	2
 140              		.type	bleUartServiceUuidInfo, %object
 141              		.size	bleUartServiceUuidInfo, 8
 142              	bleUartServiceUuidInfo:
 143 0034 00000000 		.word	bleUartServiceUuid
 144 0038 1000     		.short	16
 145 003a 1000     		.short	16
 146              		.global	enableNotificationReqParam
 147              		.data
 148 0002 0000     		.align	2
 149              		.type	enableNotificationReqParam, %object
 150              		.size	enableNotificationReqParam, 12
 151              	enableNotificationReqParam:
 152 0004 00000000 		.word	enableNotificationParam
 153 0008 0200     		.short	2
 154 000a 0200     		.short	2
 155 000c 0000     		.short	0
 156 000e 0000     		.space	2
 157              		.bss
 158              	infoExchangeState:
 159 000c 00       		.space	1
 160 000d 000000   		.align	2
 161              	peerAddr:
 162 0010 00000000 		.space	7
 162      000000
 163              		.section	.text.main,"ax",%progbits
 164              		.align	2
 165              		.global	main
 166              		.code	16
 167              		.thumb_func
 168              		.type	main, %function
 169              	main:
 170              	.LFB61:
ARM GAS  C:\Users\7709\AppData\Local\Temp\cc4KzQSA.s 			page 4


 171              		.file 1 "main.c"
   1:main.c        **** /*******************************************************************************
   2:main.c        **** * File Name: main.c
   3:main.c        **** *
   4:main.c        **** * Version: 1.0
   5:main.c        **** *
   6:main.c        **** * Description:
   7:main.c        **** * Works as the master(server) which will receive the data from slaves
   8:main.c        **** * based on example code from cypress -Project 20
   9:main.c        **** *
  10:main.c        **** *******************************************************************************/
  11:main.c        **** 
  12:main.c        **** #include "main.h"
  13:main.c        **** #include "teste.h"
  14:main.c        ****     uint16 txCharHandle             = 0;                /* Handle for the TX data characteristic */
  15:main.c        ****     uint16 rxCharHandle             = 0;                /* Handle for the RX data characteristic */
  16:main.c        ****     uint16 txCharDescHandle         = 0;                /* Handle for the TX data characteristic de
  17:main.c        ****     uint16 bleUartServiceHandle     = 0;                /* Handle for the BLE UART service */
  18:main.c        ****     uint16 bleUartServiceEndHandle  = 0;                /* End handle for the BLE UART service */
  19:main.c        ****     uint16 mtuSize                  = CYBLE_GATT_MTU;   /* MTU size to be used by Client and Server
  20:main.c        **** 
  21:main.c        ****     const uint8 enableNotificationParam[2] = {0x01, 0x00};
  22:main.c        **** 
  23:main.c        ****     /* UUID of the custom BLE UART service */
  24:main.c        ****     const uint8 bleUartServiceUuid[16]    = {
  25:main.c        ****                                                 0x31, 0x01, 0x9b, 0x5f, 0x80, 0x00, 0x00,0x80, \
  26:main.c        ****                                                 0x00, 0x10, 0x00, 0x00, 0xd0, 0xcd, 0x03, 0x00 \
  27:main.c        ****                                             };
  28:main.c        **** 
  29:main.c        ****     /* UUID of the TX attribute of the custom BLE UART service */
  30:main.c        ****     const uint8 uartTxAttrUuid[16]        = {
  31:main.c        ****                                                 0x31, 0x01, 0x9b, 0x5f, 0x80, 0x00, 0x00,0x80, \
  32:main.c        ****                                                 0x00, 0x10, 0x00, 0x00, 0xd1, 0xcd, 0x03, 0x00 \
  33:main.c        ****                                             };
  34:main.c        **** 
  35:main.c        ****     /* UUID of the RX attribute of the custom BLE UART service */
  36:main.c        ****     const uint8 uartRxAttrUuid[16]        = {
  37:main.c        ****                                                 0x31, 0x01, 0x9b, 0x5f, 0x80, 0x00, 0x00,0x80, \
  38:main.c        ****                                                 0x00, 0x10, 0x00, 0x00, 0xd2, 0xcd, 0x03, 0x00 \
  39:main.c        ****                                             };
  40:main.c        **** 
  41:main.c        ****     /* structure to be passed for discovering service by UUID */
  42:main.c        ****     const CYBLE_GATT_VALUE_T    bleUartServiceUuidInfo = { 
  43:main.c        ****                                                             (uint8 *) bleUartServiceUuid, \
  44:main.c        ****                                                             CYBLE_GATT_128_BIT_UUID_SIZE,\
  45:main.c        ****                                                             CYBLE_GATT_128_BIT_UUID_SIZE \
  46:main.c        ****                                                           };
  47:main.c        **** 
  48:main.c        ****     /* structure to be passed for the enable notification request */
  49:main.c        ****     CYBLE_GATTC_WRITE_REQ_T     enableNotificationReqParam   = {
  50:main.c        ****                                                                     {(uint8*)enableNotificationPara
  51:main.c        ****                                                                     0
  52:main.c        ****                                                                 };
  53:main.c        ****     static INFO_EXCHANGE_STATE_T    infoExchangeState   = INFO_EXCHANGE_START;
  54:main.c        ****         
  55:main.c        ****     static CYBLE_GAP_BD_ADDR_T      peerAddr;           /* BD address of the peer device */    
  56:main.c        ****     
ARM GAS  C:\Users\7709\AppData\Local\Temp\cc4KzQSA.s 			page 5


  57:main.c        **** int main()
  58:main.c        **** {
 172              		.loc 1 58 0
 173              		.cfi_startproc
 174              		@ args = 0, pretend = 0, frame = 0
 175              		@ frame_needed = 1, uses_anonymous_args = 0
 176 0000 80B5     		push	{r7, lr}
 177              		.cfi_def_cfa_offset 8
 178              		.cfi_offset 7, -8
 179              		.cfi_offset 14, -4
 180 0002 00AF     		add	r7, sp, #0
 181              		.cfi_def_cfa_register 7
  59:main.c        ****     
  60:main.c        ****     init_variables();
 182              		.loc 1 60 0
 183 0004 FFF7FEFF 		bl	init_variables
  61:main.c        ****     start();
 184              		.loc 1 61 0
 185 0008 FFF7FEFF 		bl	start
  62:main.c        ****     startBLE();
 186              		.loc 1 62 0
 187 000c FFF7FEFF 		bl	startBLE
  63:main.c        ****     RTC_1_Start();
 188              		.loc 1 63 0
 189 0010 FFF7FEFF 		bl	RTC_1_Start
 190              	.L2:
  64:main.c        ****     
  65:main.c        ****     while(1){   //if server is connected
  66:main.c        ****         HandleBleProcessing();
 191              		.loc 1 66 0 discriminator 1
 192 0014 FFF7FEFF 		bl	HandleBleProcessing
  67:main.c        ****         CyBle_ProcessEvents();
 193              		.loc 1 67 0 discriminator 1
 194 0018 FFF7FEFF 		bl	CyBle_ProcessEvents
  68:main.c        ****     }   
 195              		.loc 1 68 0 discriminator 1
 196 001c FAE7     		b	.L2
 197              		.cfi_endproc
 198              	.LFE61:
 199              		.size	main, .-main
 200 001e C046     		.section	.text.init_variables,"ax",%progbits
 201              		.align	2
 202              		.global	init_variables
 203              		.code	16
 204              		.thumb_func
 205              		.type	init_variables, %function
 206              	init_variables:
 207              	.LFB62:
  69:main.c        **** }
  70:main.c        **** 
  71:main.c        **** void init_variables(){
 208              		.loc 1 71 0
 209              		.cfi_startproc
 210              		@ args = 0, pretend = 0, frame = 0
 211              		@ frame_needed = 1, uses_anonymous_args = 0
 212 0000 80B5     		push	{r7, lr}
 213              		.cfi_def_cfa_offset 8
ARM GAS  C:\Users\7709\AppData\Local\Temp\cc4KzQSA.s 			page 6


 214              		.cfi_offset 7, -8
 215              		.cfi_offset 14, -4
 216 0002 00AF     		add	r7, sp, #0
 217              		.cfi_def_cfa_register 7
  72:main.c        ****     
  73:main.c        ****     packetSum=0;
 218              		.loc 1 73 0
 219 0004 024B     		ldr	r3, .L4
 220 0006 0022     		movs	r2, #0
 221 0008 1A60     		str	r2, [r3]
  74:main.c        ****     
  75:main.c        **** }
 222              		.loc 1 75 0
 223 000a C046     		nop
 224 000c BD46     		mov	sp, r7
 225              		@ sp needed
 226 000e 80BD     		pop	{r7, pc}
 227              	.L5:
 228              		.align	2
 229              	.L4:
 230 0010 00000000 		.word	packetSum
 231              		.cfi_endproc
 232              	.LFE62:
 233              		.size	init_variables, .-init_variables
 234              		.section	.rodata
 235              		.align	2
 236              	.LC2:
 237 003c 0A0D2044 		.ascii	"\012\015 DEFAULT mode \012\015 \000"
 237      45464155 
 237      4C54206D 
 237      6F646520 
 237      0A0D2000 
 238              		.section	.text.state_machine,"ax",%progbits
 239              		.align	2
 240              		.global	state_machine
 241              		.code	16
 242              		.thumb_func
 243              		.type	state_machine, %function
 244              	state_machine:
 245              	.LFB63:
  76:main.c        **** 
  77:main.c        **** void state_machine(){
 246              		.loc 1 77 0
 247              		.cfi_startproc
 248              		@ args = 0, pretend = 0, frame = 0
 249              		@ frame_needed = 1, uses_anonymous_args = 0
 250 0000 80B5     		push	{r7, lr}
 251              		.cfi_def_cfa_offset 8
 252              		.cfi_offset 7, -8
 253              		.cfi_offset 14, -4
 254 0002 00AF     		add	r7, sp, #0
 255              		.cfi_def_cfa_register 7
  78:main.c        ****     
  79:main.c        ****     switch(modes){
 256              		.loc 1 79 0
 257 0004 134B     		ldr	r3, .L14
 258 0006 1B78     		ldrb	r3, [r3]
ARM GAS  C:\Users\7709\AppData\Local\Temp\cc4KzQSA.s 			page 7


 259 0008 012B     		cmp	r3, #1
 260 000a 0CD0     		beq	.L8
 261 000c 02DC     		bgt	.L9
 262 000e 002B     		cmp	r3, #0
 263 0010 05D0     		beq	.L10
 264 0012 14E0     		b	.L7
 265              	.L9:
 266 0014 022B     		cmp	r3, #2
 267 0016 0AD0     		beq	.L11
 268 0018 032B     		cmp	r3, #3
 269 001a 0CD0     		beq	.L12
 270 001c 0FE0     		b	.L7
 271              	.L10:
  80:main.c        ****     
  81:main.c        ****         case START:
  82:main.c        ****             modes=GET_DATA;
 272              		.loc 1 82 0
 273 001e 0D4B     		ldr	r3, .L14
 274 0020 0122     		movs	r2, #1
 275 0022 1A70     		strb	r2, [r3]
  83:main.c        ****         break;
 276              		.loc 1 83 0
 277 0024 13E0     		b	.L13
 278              	.L8:
  84:main.c        ****         
  85:main.c        ****         case GET_DATA:
  86:main.c        ****         modes=PRINT_DATA;
 279              		.loc 1 86 0
 280 0026 0B4B     		ldr	r3, .L14
 281 0028 0222     		movs	r2, #2
 282 002a 1A70     		strb	r2, [r3]
  87:main.c        ****         break;
 283              		.loc 1 87 0
 284 002c 0FE0     		b	.L13
 285              	.L11:
  88:main.c        ****         
  89:main.c        ****         
  90:main.c        ****         case PRINT_DATA:
  91:main.c        ****         modes=PROCESS_DATA;
 286              		.loc 1 91 0
 287 002e 094B     		ldr	r3, .L14
 288 0030 0322     		movs	r2, #3
 289 0032 1A70     		strb	r2, [r3]
  92:main.c        ****         break;
 290              		.loc 1 92 0
 291 0034 0BE0     		b	.L13
 292              	.L12:
  93:main.c        ****         
  94:main.c        ****         case PROCESS_DATA:
  95:main.c        ****         modes=START;
 293              		.loc 1 95 0
 294 0036 074B     		ldr	r3, .L14
 295 0038 0022     		movs	r2, #0
 296 003a 1A70     		strb	r2, [r3]
  96:main.c        ****         break;
 297              		.loc 1 96 0
 298 003c 07E0     		b	.L13
ARM GAS  C:\Users\7709\AppData\Local\Temp\cc4KzQSA.s 			page 8


 299              	.L7:
  97:main.c        ****         
  98:main.c        ****         default:
  99:main.c        ****         UART_UartPutString("\n\r DEFAULT mode \n\r ");
 300              		.loc 1 99 0
 301 003e 064B     		ldr	r3, .L14+4
 302 0040 1800     		movs	r0, r3
 303 0042 FFF7FEFF 		bl	UART_UartPutString
 100:main.c        ****         modes=START;
 304              		.loc 1 100 0
 305 0046 034B     		ldr	r3, .L14
 306 0048 0022     		movs	r2, #0
 307 004a 1A70     		strb	r2, [r3]
 101:main.c        ****         break;
 308              		.loc 1 101 0
 309 004c C046     		nop
 310              	.L13:
 102:main.c        ****     }
 103:main.c        ****     
 104:main.c        **** }
 311              		.loc 1 104 0
 312 004e C046     		nop
 313 0050 BD46     		mov	sp, r7
 314              		@ sp needed
 315 0052 80BD     		pop	{r7, pc}
 316              	.L15:
 317              		.align	2
 318              	.L14:
 319 0054 00000000 		.word	modes
 320 0058 3C000000 		.word	.LC2
 321              		.cfi_endproc
 322              	.LFE63:
 323              		.size	state_machine, .-state_machine
 324              		.section	.text.startBLE,"ax",%progbits
 325              		.align	2
 326              		.global	startBLE
 327              		.code	16
 328              		.thumb_func
 329              		.type	startBLE, %function
 330              	startBLE:
 331              	.LFB64:
 105:main.c        **** //static void StartScan(void)
 106:main.c        **** //{   //* Starts a scan on the Central device.
 107:main.c        **** //
 108:main.c        **** //    /* Re-initialize all variables for scanning and then start a fresh scan */
 109:main.c        **** //        
 110:main.c        **** //    CyBle_GapcStartScan(CYBLE_SCANNING_FAST);
 111:main.c        **** //    UART_UartPutString("\n\r Start Scan: ");
 112:main.c        **** //}
 113:main.c        **** 
 114:main.c        **** void startBLE(){
 332              		.loc 1 114 0
 333              		.cfi_startproc
 334              		@ args = 0, pretend = 0, frame = 0
 335              		@ frame_needed = 1, uses_anonymous_args = 0
 336 0000 80B5     		push	{r7, lr}
 337              		.cfi_def_cfa_offset 8
ARM GAS  C:\Users\7709\AppData\Local\Temp\cc4KzQSA.s 			page 9


 338              		.cfi_offset 7, -8
 339              		.cfi_offset 14, -4
 340 0002 00AF     		add	r7, sp, #0
 341              		.cfi_def_cfa_register 7
 115:main.c        ****    //This function init the BLE component, this means, BLE STACK 
 116:main.c        ****    // AppCallBack manages the state BLE machine
 117:main.c        ****     
 118:main.c        ****     CyBle_Start(AppCallBack);  
 342              		.loc 1 118 0
 343 0004 034B     		ldr	r3, .L17
 344 0006 1800     		movs	r0, r3
 345 0008 FFF7FEFF 		bl	CyBle_Start
 119:main.c        **** }
 346              		.loc 1 119 0
 347 000c C046     		nop
 348 000e BD46     		mov	sp, r7
 349              		@ sp needed
 350 0010 80BD     		pop	{r7, pc}
 351              	.L18:
 352 0012 C046     		.align	2
 353              	.L17:
 354 0014 00000000 		.word	AppCallBack
 355              		.cfi_endproc
 356              	.LFE64:
 357              		.size	startBLE, .-startBLE
 358              		.section	.text.stopBLE,"ax",%progbits
 359              		.align	2
 360              		.global	stopBLE
 361              		.code	16
 362              		.thumb_func
 363              		.type	stopBLE, %function
 364              	stopBLE:
 365              	.LFB65:
 120:main.c        **** 
 121:main.c        **** void stopBLE(){
 366              		.loc 1 121 0
 367              		.cfi_startproc
 368              		@ args = 0, pretend = 0, frame = 0
 369              		@ frame_needed = 1, uses_anonymous_args = 0
 370 0000 80B5     		push	{r7, lr}
 371              		.cfi_def_cfa_offset 8
 372              		.cfi_offset 7, -8
 373              		.cfi_offset 14, -4
 374 0002 00AF     		add	r7, sp, #0
 375              		.cfi_def_cfa_register 7
 122:main.c        ****     //Stops any proccesing in BLE Stack
 123:main.c        ****     CyBle_Stop();
 376              		.loc 1 123 0
 377 0004 FFF7FEFF 		bl	CyBle_Stop
 124:main.c        **** }// uint8   buffer[2]={'4','3'};
 378              		.loc 1 124 0
 379 0008 C046     		nop
 380 000a BD46     		mov	sp, r7
 381              		@ sp needed
 382 000c 80BD     		pop	{r7, pc}
 383              		.cfi_endproc
 384              	.LFE65:
ARM GAS  C:\Users\7709\AppData\Local\Temp\cc4KzQSA.s 			page 10


 385              		.size	stopBLE, .-stopBLE
 386 000e C046     		.section	.rodata
 387              		.align	2
 388              	.LC5:
 389 0050 0A0D2053 		.ascii	"\012\015 Star central role \012\015 \000"
 389      74617220 
 389      63656E74 
 389      72616C20 
 389      726F6C65 
 390              		.section	.text.start,"ax",%progbits
 391              		.align	2
 392              		.global	start
 393              		.code	16
 394              		.thumb_func
 395              		.type	start, %function
 396              	start:
 397              	.LFB66:
 125:main.c        **** 
 126:main.c        **** void start(){
 398              		.loc 1 126 0
 399              		.cfi_startproc
 400              		@ args = 0, pretend = 0, frame = 0
 401              		@ frame_needed = 1, uses_anonymous_args = 0
 402 0000 80B5     		push	{r7, lr}
 403              		.cfi_def_cfa_offset 8
 404              		.cfi_offset 7, -8
 405              		.cfi_offset 14, -4
 406 0002 00AF     		add	r7, sp, #0
 407              		.cfi_def_cfa_register 7
 127:main.c        ****     
 128:main.c        ****     CyGlobalIntEnable; 
 408              		.loc 1 128 0
 409              		.syntax divided
 410              	@ 128 "main.c" 1
 411 0004 62B6     		CPSIE   i
 412              	@ 0 "" 2
 129:main.c        ****  
 130:main.c        ****     /* Start UART and BLE component and display project information */
 131:main.c        ****     UART_Start();  
 413              		.loc 1 131 0
 414              		.thumb
 415              		.syntax unified
 416 0006 FFF7FEFF 		bl	UART_Start
 132:main.c        ****     UART_UartPutString("\n\r Star central role \n\r ");
 417              		.loc 1 132 0
 418 000a 034B     		ldr	r3, .L21
 419 000c 1800     		movs	r0, r3
 420 000e FFF7FEFF 		bl	UART_UartPutString
 133:main.c        **** }
 421              		.loc 1 133 0
 422 0012 C046     		nop
 423 0014 BD46     		mov	sp, r7
 424              		@ sp needed
 425 0016 80BD     		pop	{r7, pc}
 426              	.L22:
 427              		.align	2
 428              	.L21:
ARM GAS  C:\Users\7709\AppData\Local\Temp\cc4KzQSA.s 			page 11


 429 0018 50000000 		.word	.LC5
 430              		.cfi_endproc
 431              	.LFE66:
 432              		.size	start, .-start
 433              		.section	.text.HandleBleProcessing,"ax",%progbits
 434              		.align	2
 435              		.global	HandleBleProcessing
 436              		.code	16
 437              		.thumb_func
 438              		.type	HandleBleProcessing, %function
 439              	HandleBleProcessing:
 440              	.LFB67:
 134:main.c        **** 
 135:main.c        **** 
 136:main.c        **** /*******************************************************************************
 137:main.c        **** * Function Name: HandleBleProcessing
 138:main.c        **** ********************************************************************************
 139:main.c        **** *
 140:main.c        **** * Summary:
 141:main.c        **** *   Handles the BLE state machine for intiating different procedures
 142:main.c        **** *   during different states of BLESS.
 143:main.c        **** * Parameters:
 144:main.c        **** *   None.
 145:main.c        **** *
 146:main.c        **** * Return:
 147:main.c        **** *   None.
 148:main.c        **** *
 149:main.c        **** *******************************************************************************/
 150:main.c        **** void HandleBleProcessing(void)
 151:main.c        **** {    
 441              		.loc 1 151 0
 442              		.cfi_startproc
 443              		@ args = 0, pretend = 0, frame = 8
 444              		@ frame_needed = 1, uses_anonymous_args = 0
 445 0000 90B5     		push	{r4, r7, lr}
 446              		.cfi_def_cfa_offset 12
 447              		.cfi_offset 4, -12
 448              		.cfi_offset 7, -8
 449              		.cfi_offset 14, -4
 450 0002 83B0     		sub	sp, sp, #12
 451              		.cfi_def_cfa_offset 24
 452 0004 00AF     		add	r7, sp, #0
 453              		.cfi_def_cfa_register 7
 152:main.c        ****     CYBLE_API_RESULT_T      cyble_api_result;
 153:main.c        ****     
 154:main.c        ****     switch (cyBle_state)
 454              		.loc 1 154 0
 455 0006 284B     		ldr	r3, .L39
 456 0008 1B78     		ldrb	r3, [r3]
 457 000a 042B     		cmp	r3, #4
 458 000c 04D0     		beq	.L25
 459 000e 062B     		cmp	r3, #6
 460 0010 24D0     		beq	.L26
 461 0012 022B     		cmp	r3, #2
 462 0014 08D0     		beq	.L27
 155:main.c        ****     {
 156:main.c        ****         case CYBLE_STATE_SCANNING:
ARM GAS  C:\Users\7709\AppData\Local\Temp\cc4KzQSA.s 			page 12


 157:main.c        ****         if (cyBle_last_state != cyBle_state) {
 158:main.c        ****             #ifdef PRINT_MESSAGE_LOG   
 159:main.c        ****              UART_UartPutString("\n\r CYBLE_STATE_SCANNING \n\r ");
 160:main.c        ****             #endif             
 161:main.c        ****             
 162:main.c        ****         }
 163:main.c        ****             if(peerDeviceFound)
 164:main.c        ****             {
 165:main.c        ****                 CyBle_GapcStopScan();
 166:main.c        ****             }
 167:main.c        ****             break;
 168:main.c        ****     
 169:main.c        ****         case CYBLE_STATE_CONNECTED:
 170:main.c        ****             if (cyBle_last_state != cyBle_state) {
 171:main.c        ****                 
 172:main.c        ****             #ifdef PRINT_MESSAGE_LOG   
 173:main.c        ****              UART_UartPutString("\n\r CYBLE_STATE_CONNECTED \n\r ");
 174:main.c        ****             #endif                 
 175:main.c        ****                 
 176:main.c        ****             }
 177:main.c        ****             /* if Client does not has all the information about attribute handles 
 178:main.c        ****              * call procedure for getting it */
 179:main.c        ****             if((INFO_EXCHANGE_COMPLETE != infoExchangeState))
 180:main.c        ****             {
 181:main.c        ****                 attrHandleInit();
 182:main.c        ****             }
 183:main.c        ****             
 184:main.c        ****             /* enable notifications if not enabled already */
 185:main.c        ****             else if(false == notificationEnabled)
 186:main.c        ****             {
 187:main.c        ****                 enableNotifications();
 188:main.c        ****             }
 189:main.c        ****             
 190:main.c        ****             /* if client has all required info and stack is free, handle UART traffic */
 191:main.c        ****             else if(CyBle_GattGetBusStatus() != CYBLE_STACK_STATE_BUSY)
 192:main.c        ****             {
 193:main.c        ****                 HandleUartTxTraffic();
 194:main.c        ****             }
 195:main.c        ****             
 196:main.c        ****             break;
 197:main.c        ****                 
 198:main.c        ****         case CYBLE_STATE_DISCONNECTED:
 199:main.c        ****          if (cyBle_last_state != cyBle_state) {
 200:main.c        ****             #ifdef PRINT_MESSAGE_LOG   
 201:main.c        ****              UART_UartPutString("\n\r CYBLE_STATE_DISCONNECTED \n\r ");
 202:main.c        ****             #endif             
 203:main.c        ****             
 204:main.c        ****         }
 205:main.c        ****         {
 206:main.c        ****             if(peerDeviceFound)
 207:main.c        ****             {
 208:main.c        ****                 cyble_api_result = CyBle_GapcConnectDevice(&peerAddr);
 209:main.c        ****                 
 210:main.c        **** 			    if(CYBLE_ERROR_OK == cyble_api_result)
 211:main.c        **** 			    {
 212:main.c        **** 				    peerDeviceFound = false;
 213:main.c        **** 			    }
ARM GAS  C:\Users\7709\AppData\Local\Temp\cc4KzQSA.s 			page 13


 214:main.c        ****             }
 215:main.c        ****             else
 216:main.c        ****             {
 217:main.c        ****                 CyBle_GapcStartScan(CYBLE_SCANNING_FAST);  
 218:main.c        ****             }
 219:main.c        ****             break;
 220:main.c        ****         }
 221:main.c        ****         
 222:main.c        ****         default:
 223:main.c        ****             break;       
 463              		.loc 1 223 0
 464 0016 3EE0     		b	.L29
 465              	.L25:
 163:main.c        ****             {
 466              		.loc 1 163 0
 467 0018 244B     		ldr	r3, .L39+4
 468 001a 1B78     		ldrb	r3, [r3]
 469 001c DBB2     		uxtb	r3, r3
 470 001e 002B     		cmp	r3, #0
 471 0020 34D0     		beq	.L36
 165:main.c        ****             }
 472              		.loc 1 165 0
 473 0022 FFF7FEFF 		bl	CyBle_GapcStopScan
 167:main.c        ****     
 474              		.loc 1 167 0
 475 0026 31E0     		b	.L36
 476              	.L27:
 179:main.c        ****             {
 477              		.loc 1 179 0
 478 0028 214B     		ldr	r3, .L39+8
 479 002a 1B78     		ldrb	r3, [r3]
 480 002c 1F2B     		cmp	r3, #31
 481 002e 02D0     		beq	.L30
 181:main.c        ****             }
 482              		.loc 1 181 0
 483 0030 FFF7FEFF 		bl	attrHandleInit
 196:main.c        ****                 
 484              		.loc 1 196 0
 485 0034 2CE0     		b	.L37
 486              	.L30:
 185:main.c        ****             {
 487              		.loc 1 185 0
 488 0036 1F4B     		ldr	r3, .L39+12
 489 0038 1B78     		ldrb	r3, [r3]
 490 003a DBB2     		uxtb	r3, r3
 491 003c 0122     		movs	r2, #1
 492 003e 5340     		eors	r3, r2
 493 0040 DBB2     		uxtb	r3, r3
 494 0042 002B     		cmp	r3, #0
 495 0044 02D0     		beq	.L32
 187:main.c        ****             }
 496              		.loc 1 187 0
 497 0046 FFF7FEFF 		bl	enableNotifications
 196:main.c        ****                 
 498              		.loc 1 196 0
 499 004a 21E0     		b	.L37
 500              	.L32:
ARM GAS  C:\Users\7709\AppData\Local\Temp\cc4KzQSA.s 			page 14


 191:main.c        ****             {
 501              		.loc 1 191 0
 502 004c 1A4B     		ldr	r3, .L39+16
 503 004e 1B78     		ldrb	r3, [r3]
 504 0050 DBB2     		uxtb	r3, r3
 505 0052 012B     		cmp	r3, #1
 506 0054 1CD0     		beq	.L37
 193:main.c        ****             }
 507              		.loc 1 193 0
 508 0056 FFF7FEFF 		bl	HandleUartTxTraffic
 196:main.c        ****                 
 509              		.loc 1 196 0
 510 005a 19E0     		b	.L37
 511              	.L26:
 206:main.c        ****             {
 512              		.loc 1 206 0
 513 005c 134B     		ldr	r3, .L39+4
 514 005e 1B78     		ldrb	r3, [r3]
 515 0060 DBB2     		uxtb	r3, r3
 516 0062 002B     		cmp	r3, #0
 517 0064 0ED0     		beq	.L33
 208:main.c        ****                 
 518              		.loc 1 208 0
 519 0066 BC1D     		adds	r4, r7, #6
 520 0068 144B     		ldr	r3, .L39+20
 521 006a 1800     		movs	r0, r3
 522 006c FFF7FEFF 		bl	CyBle_GapcConnectDevice
 523 0070 0300     		movs	r3, r0
 524 0072 2380     		strh	r3, [r4]
 210:main.c        **** 			    {
 525              		.loc 1 210 0
 526 0074 BB1D     		adds	r3, r7, #6
 527 0076 1B88     		ldrh	r3, [r3]
 528 0078 002B     		cmp	r3, #0
 529 007a 0BD1     		bne	.L38
 212:main.c        **** 			    }
 530              		.loc 1 212 0
 531 007c 0B4B     		ldr	r3, .L39+4
 532 007e 0022     		movs	r2, #0
 533 0080 1A70     		strb	r2, [r3]
 219:main.c        ****         }
 534              		.loc 1 219 0
 535 0082 07E0     		b	.L38
 536              	.L33:
 217:main.c        ****             }
 537              		.loc 1 217 0
 538 0084 0020     		movs	r0, #0
 539 0086 FFF7FEFF 		bl	CyBle_GapcStartScan
 219:main.c        ****         }
 540              		.loc 1 219 0
 541 008a 03E0     		b	.L38
 542              	.L36:
 167:main.c        ****     
 543              		.loc 1 167 0
 544 008c C046     		nop
 545 008e 02E0     		b	.L29
 546              	.L37:
ARM GAS  C:\Users\7709\AppData\Local\Temp\cc4KzQSA.s 			page 15


 196:main.c        ****                 
 547              		.loc 1 196 0
 548 0090 C046     		nop
 549 0092 00E0     		b	.L29
 550              	.L38:
 219:main.c        ****         }
 551              		.loc 1 219 0
 552 0094 C046     		nop
 553              	.L29:
 224:main.c        ****     }
 225:main.c        ****     cyBle_last_state = cyBle_state;
 554              		.loc 1 225 0
 555 0096 044B     		ldr	r3, .L39
 556 0098 1B78     		ldrb	r3, [r3]
 557 009a 9AB2     		uxth	r2, r3
 558 009c 084B     		ldr	r3, .L39+24
 559 009e 1A80     		strh	r2, [r3]
 226:main.c        **** }
 560              		.loc 1 226 0
 561 00a0 C046     		nop
 562 00a2 BD46     		mov	sp, r7
 563 00a4 03B0     		add	sp, sp, #12
 564              		@ sp needed
 565 00a6 90BD     		pop	{r4, r7, pc}
 566              	.L40:
 567              		.align	2
 568              	.L39:
 569 00a8 00000000 		.word	cyBle_state
 570 00ac 00000000 		.word	peerDeviceFound
 571 00b0 0C000000 		.word	infoExchangeState
 572 00b4 01000000 		.word	notificationEnabled
 573 00b8 00000000 		.word	cyBle_busyStatus
 574 00bc 10000000 		.word	peerAddr
 575 00c0 00000000 		.word	cyBle_last_state
 576              		.cfi_endproc
 577              	.LFE67:
 578              		.size	HandleBleProcessing, .-HandleBleProcessing
 579              		.section	.text.AppCallBack,"ax",%progbits
 580              		.align	2
 581              		.global	AppCallBack
 582              		.code	16
 583              		.thumb_func
 584              		.type	AppCallBack, %function
 585              	AppCallBack:
 586              	.LFB68:
 227:main.c        **** 
 228:main.c        **** /*******************************************************************************
 229:main.c        **** * Function Name: AppCallBack
 230:main.c        **** ********************************************************************************
 231:main.c        **** *
 232:main.c        **** * Summary:
 233:main.c        **** *   Call back function for BLE stack to handle BLESS events
 234:main.c        **** *
 235:main.c        **** * Parameters:
 236:main.c        **** *   event       - the event generated by stack
 237:main.c        **** *   eventParam  - the parameters related to the corresponding event
 238:main.c        **** *
ARM GAS  C:\Users\7709\AppData\Local\Temp\cc4KzQSA.s 			page 16


 239:main.c        **** * Return:
 240:main.c        **** *   None.
 241:main.c        **** *
 242:main.c        **** *******************************************************************************/
 243:main.c        **** void AppCallBack(uint32 event, void *eventParam)
 244:main.c        **** {
 587              		.loc 1 244 0
 588              		.cfi_startproc
 589              		@ args = 0, pretend = 0, frame = 24
 590              		@ frame_needed = 1, uses_anonymous_args = 0
 591 0000 80B5     		push	{r7, lr}
 592              		.cfi_def_cfa_offset 8
 593              		.cfi_offset 7, -8
 594              		.cfi_offset 14, -4
 595 0002 86B0     		sub	sp, sp, #24
 596              		.cfi_def_cfa_offset 32
 597 0004 00AF     		add	r7, sp, #0
 598              		.cfi_def_cfa_register 7
 599 0006 7860     		str	r0, [r7, #4]
 600 0008 3960     		str	r1, [r7]
 245:main.c        ****     CYBLE_GATTC_READ_BY_TYPE_RSP_PARAM_T    *readResponse;
 246:main.c        ****     CYBLE_GAPC_ADV_REPORT_T		            *advReport;
 247:main.c        ****     CYBLE_GATTC_FIND_BY_TYPE_RSP_PARAM_T    *findResponse;
 248:main.c        ****     CYBLE_GATTC_FIND_INFO_RSP_PARAM_T       *findInfoResponse;
 249:main.c        ****     
 250:main.c        ****     switch (event)
 601              		.loc 1 250 0
 602 000a 7B68     		ldr	r3, [r7, #4]
 603 000c 522B     		cmp	r3, #82
 604 000e 00D9     		bls	.LCB358
 605 0010 10E1     		b	.L64	@long jump
 606              	.LCB358:
 607 0012 7B68     		ldr	r3, [r7, #4]
 608 0014 9A00     		lsls	r2, r3, #2
 609 0016 8D4B     		ldr	r3, .L68
 610 0018 D318     		adds	r3, r2, r3
 611 001a 1B68     		ldr	r3, [r3]
 612 001c 9F46     		mov	pc, r3
 613              		.section	.rodata
 614 0069 000000   		.align	2
 615              	.L44:
 616 006c 34020000 		.word	.L64
 617 0070 34020000 		.word	.L64
 618 0074 34020000 		.word	.L64
 619 0078 34020000 		.word	.L64
 620 007c 34020000 		.word	.L64
 621 0080 34020000 		.word	.L64
 622 0084 34020000 		.word	.L64
 623 0088 34020000 		.word	.L64
 624 008c 34020000 		.word	.L64
 625 0090 34020000 		.word	.L64
 626 0094 34020000 		.word	.L64
 627 0098 34020000 		.word	.L64
 628 009c 34020000 		.word	.L64
 629 00a0 34020000 		.word	.L64
 630 00a4 34020000 		.word	.L64
 631 00a8 34020000 		.word	.L64
ARM GAS  C:\Users\7709\AppData\Local\Temp\cc4KzQSA.s 			page 17


 632 00ac 34020000 		.word	.L64
 633 00b0 34020000 		.word	.L64
 634 00b4 34020000 		.word	.L64
 635 00b8 34020000 		.word	.L64
 636 00bc 34020000 		.word	.L64
 637 00c0 34020000 		.word	.L64
 638 00c4 34020000 		.word	.L64
 639 00c8 34020000 		.word	.L64
 640 00cc 34020000 		.word	.L64
 641 00d0 34020000 		.word	.L64
 642 00d4 34020000 		.word	.L64
 643 00d8 34020000 		.word	.L64
 644 00dc 34020000 		.word	.L64
 645 00e0 34020000 		.word	.L64
 646 00e4 34020000 		.word	.L64
 647 00e8 34020000 		.word	.L64
 648 00ec 1E000000 		.word	.L45
 649 00f0 34020000 		.word	.L64
 650 00f4 34020000 		.word	.L64
 651 00f8 34020000 		.word	.L64
 652 00fc 34020000 		.word	.L64
 653 0100 34020000 		.word	.L64
 654 0104 34020000 		.word	.L64
 655 0108 34020000 		.word	.L64
 656 010c 9E000000 		.word	.L46
 657 0110 34020000 		.word	.L64
 658 0114 34020000 		.word	.L64
 659 0118 34020000 		.word	.L64
 660 011c 34020000 		.word	.L64
 661 0120 34020000 		.word	.L64
 662 0124 34020000 		.word	.L64
 663 0128 34020000 		.word	.L64
 664 012c 34020000 		.word	.L64
 665 0130 34020000 		.word	.L64
 666 0134 34020000 		.word	.L64
 667 0138 34020000 		.word	.L64
 668 013c 34020000 		.word	.L64
 669 0140 34020000 		.word	.L64
 670 0144 34020000 		.word	.L64
 671 0148 34020000 		.word	.L64
 672 014c 34020000 		.word	.L64
 673 0150 34020000 		.word	.L64
 674 0154 34020000 		.word	.L64
 675 0158 34020000 		.word	.L64
 676 015c 34020000 		.word	.L64
 677 0160 34020000 		.word	.L64
 678 0164 34020000 		.word	.L64
 679 0168 34020000 		.word	.L64
 680 016c 34020000 		.word	.L64
 681 0170 34020000 		.word	.L64
 682 0174 34020000 		.word	.L64
 683 0178 12020000 		.word	.L48
 684 017c B8010000 		.word	.L49
 685 0180 34020000 		.word	.L64
 686 0184 C2000000 		.word	.L50
 687 0188 64010000 		.word	.L51
 688 018c EA010000 		.word	.L52
ARM GAS  C:\Users\7709\AppData\Local\Temp\cc4KzQSA.s 			page 18


 689 0190 34020000 		.word	.L64
 690 0194 34020000 		.word	.L64
 691 0198 34020000 		.word	.L64
 692 019c 34020000 		.word	.L64
 693 01a0 2C020000 		.word	.L53
 694 01a4 34020000 		.word	.L64
 695 01a8 34020000 		.word	.L64
 696 01ac 34020000 		.word	.L64
 697 01b0 34020000 		.word	.L64
 698 01b4 E0010000 		.word	.L54
 699              		.section	.text.AppCallBack
 700              	.L45:
 251:main.c        ****     {
 252:main.c        ****         case CYBLE_EVT_STACK_ON:
 253:main.c        ****            #ifdef PRINT_MESSAGE_LOG   
 254:main.c        ****                  UART_UartPutString("\n\r CYBLE_EVT_STACK_ON \n\r");
 255:main.c        ****            #endif                   
 256:main.c        ****            
 257:main.c        ****         break;
 258:main.c        ****         
 259:main.c        ****         case CYBLE_EVT_GAPC_SCAN_PROGRESS_RESULT:
 260:main.c        ****             #ifdef PRINT_MESSAGE_LOG   
 261:main.c        ****              UART_UartPutString("\n\r CYBLE_EVT_GAPC_SCAN_PROGRESS_RESULT \n\r");
 262:main.c        ****             #endif             
 263:main.c        ****            advReport = (CYBLE_GAPC_ADV_REPORT_T *) eventParam;
 701              		.loc 1 263 0
 702 001e 3B68     		ldr	r3, [r7]
 703 0020 7B61     		str	r3, [r7, #20]
 264:main.c        ****             
 265:main.c        ****             /* check if report has manfacturing data corresponding to the intended matching peer */
 266:main.c        ****             if((advReport->eventType == CYBLE_GAPC_SCAN_RSP) && (advReport->dataLen == 0x06) \
 704              		.loc 1 266 0
 705 0022 7B69     		ldr	r3, [r7, #20]
 706 0024 1B78     		ldrb	r3, [r3]
 707 0026 042B     		cmp	r3, #4
 708 0028 00D0     		beq	.LCB376
 709 002a 05E1     		b	.L65	@long jump
 710              	.LCB376:
 711              		.loc 1 266 0 is_stmt 0 discriminator 1
 712 002c 7B69     		ldr	r3, [r7, #20]
 713 002e 1B7A     		ldrb	r3, [r3, #8]
 714 0030 062B     		cmp	r3, #6
 715 0032 00D0     		beq	.LCB380
 716 0034 00E1     		b	.L65	@long jump
 717              	.LCB380:
 267:main.c        ****                     && (advReport->data[1] == 0xff) && (advReport->data[2] == 0x31)  \
 718              		.loc 1 267 0 is_stmt 1
 719 0036 7B69     		ldr	r3, [r7, #20]
 720 0038 DB68     		ldr	r3, [r3, #12]
 721 003a 0133     		adds	r3, r3, #1
 722 003c 1B78     		ldrb	r3, [r3]
 723 003e FF2B     		cmp	r3, #255
 724 0040 00D0     		beq	.LCB386
 725 0042 F9E0     		b	.L65	@long jump
 726              	.LCB386:
 727              		.loc 1 267 0 is_stmt 0 discriminator 1
 728 0044 7B69     		ldr	r3, [r7, #20]
ARM GAS  C:\Users\7709\AppData\Local\Temp\cc4KzQSA.s 			page 19


 729 0046 DB68     		ldr	r3, [r3, #12]
 730 0048 0233     		adds	r3, r3, #2
 731 004a 1B78     		ldrb	r3, [r3]
 732 004c 312B     		cmp	r3, #49
 733 004e 00D0     		beq	.LCB392
 734 0050 F2E0     		b	.L65	@long jump
 735              	.LCB392:
 268:main.c        ****                     && (advReport->data[3] == 0x01) && (advReport->data[4] == 0x3b) \
 736              		.loc 1 268 0 is_stmt 1
 737 0052 7B69     		ldr	r3, [r7, #20]
 738 0054 DB68     		ldr	r3, [r3, #12]
 739 0056 0333     		adds	r3, r3, #3
 740 0058 1B78     		ldrb	r3, [r3]
 741 005a 012B     		cmp	r3, #1
 742 005c 00D0     		beq	.LCB398
 743 005e EBE0     		b	.L65	@long jump
 744              	.LCB398:
 745              		.loc 1 268 0 is_stmt 0 discriminator 1
 746 0060 7B69     		ldr	r3, [r7, #20]
 747 0062 DB68     		ldr	r3, [r3, #12]
 748 0064 0433     		adds	r3, r3, #4
 749 0066 1B78     		ldrb	r3, [r3]
 750 0068 3B2B     		cmp	r3, #59
 751 006a 00D0     		beq	.LCB404
 752 006c E4E0     		b	.L65	@long jump
 753              	.LCB404:
 269:main.c        ****                     && (advReport->data[5] == 0x04))
 754              		.loc 1 269 0 is_stmt 1
 755 006e 7B69     		ldr	r3, [r7, #20]
 756 0070 DB68     		ldr	r3, [r3, #12]
 757 0072 0533     		adds	r3, r3, #5
 758 0074 1B78     		ldrb	r3, [r3]
 759 0076 042B     		cmp	r3, #4
 760 0078 00D0     		beq	.LCB410
 761 007a DDE0     		b	.L65	@long jump
 762              	.LCB410:
 270:main.c        ****             {
 271:main.c        ****                 peerDeviceFound = true;
 763              		.loc 1 271 0
 764 007c 744B     		ldr	r3, .L68+4
 765 007e 0122     		movs	r2, #1
 766 0080 1A70     		strb	r2, [r3]
 272:main.c        ****                 
 273:main.c        ****                 memcpy(peerAddr.bdAddr, advReport->peerBdAddr, sizeof(peerAddr.bdAddr));
 767              		.loc 1 273 0
 768 0082 7B69     		ldr	r3, [r7, #20]
 769 0084 5B68     		ldr	r3, [r3, #4]
 770 0086 734A     		ldr	r2, .L68+8
 771 0088 1000     		movs	r0, r2
 772 008a 1900     		movs	r1, r3
 773 008c 0623     		movs	r3, #6
 774 008e 1A00     		movs	r2, r3
 775 0090 FFF7FEFF 		bl	memcpy
 274:main.c        ****                 peerAddr.type = advReport->peerAddrType;
 776              		.loc 1 274 0
 777 0094 7B69     		ldr	r3, [r7, #20]
 778 0096 5A78     		ldrb	r2, [r3, #1]
ARM GAS  C:\Users\7709\AppData\Local\Temp\cc4KzQSA.s 			page 20


 779 0098 6E4B     		ldr	r3, .L68+8
 780 009a 9A71     		strb	r2, [r3, #6]
 275:main.c        ****                 
 276:main.c        ****                 #ifdef PRINT_MESSAGE_LOG   
 277:main.c        ****                     UART_UartPutString("\n\r\n\rServer with matching custom service discovered...")
 278:main.c        ****                 #endif
 279:main.c        ****             }           
 280:main.c        ****         break;    
 781              		.loc 1 280 0
 782 009c CCE0     		b	.L65
 783              	.L46:
 281:main.c        ****             
 282:main.c        ****         case CYBLE_EVT_GAP_DEVICE_DISCONNECTED:
 283:main.c        ****             #ifdef PRINT_MESSAGE_LOG   
 284:main.c        ****              UART_UartPutString("\n\r CYBLE_EVT_GAP_DEVICE_DISCONNECTED \n\r");
 285:main.c        ****             #endif            
 286:main.c        ****             /* RESET all flags */
 287:main.c        ****             peerDeviceFound         = false;
 784              		.loc 1 287 0
 785 009e 6C4B     		ldr	r3, .L68+4
 786 00a0 0022     		movs	r2, #0
 787 00a2 1A70     		strb	r2, [r3]
 288:main.c        ****             notificationEnabled     = false;
 788              		.loc 1 288 0
 789 00a4 6C4B     		ldr	r3, .L68+12
 790 00a6 0022     		movs	r2, #0
 791 00a8 1A70     		strb	r2, [r3]
 289:main.c        ****             infoExchangeState       = INFO_EXCHANGE_START;
 792              		.loc 1 289 0
 793 00aa 6C4B     		ldr	r3, .L68+16
 794 00ac 0022     		movs	r2, #0
 795 00ae 1A70     		strb	r2, [r3]
 290:main.c        ****             
 291:main.c        ****             #ifdef PRINT_MESSAGE_LOG   
 292:main.c        ****                 UART_UartPutString("\n\r DISCONNECTED!!! \n\r ");
 293:main.c        ****                 while(0 != (UART_SpiUartGetTxBufferSize() + UART_GET_TX_FIFO_SR_VALID));
 294:main.c        ****             #endif
 295:main.c        ****             
 296:main.c        ****             /* RESET Uart and flush all buffers */
 297:main.c        ****             UART_Stop();
 796              		.loc 1 297 0
 797 00b0 FFF7FEFF 		bl	UART_Stop
 298:main.c        ****             UART_SpiUartClearTxBuffer();
 798              		.loc 1 298 0
 799 00b4 FFF7FEFF 		bl	UART_SpiUartClearTxBuffer
 299:main.c        ****             UART_SpiUartClearRxBuffer();
 800              		.loc 1 299 0
 801 00b8 FFF7FEFF 		bl	UART_SpiUartClearRxBuffer
 300:main.c        ****             UART_Start();
 802              		.loc 1 300 0
 803 00bc FFF7FEFF 		bl	UART_Start
 301:main.c        ****             
 302:main.c        ****         break;
 804              		.loc 1 302 0
 805 00c0 BFE0     		b	.L55
 806              	.L50:
 303:main.c        ****         
ARM GAS  C:\Users\7709\AppData\Local\Temp\cc4KzQSA.s 			page 21


 304:main.c        ****         case CYBLE_EVT_GATTC_READ_BY_TYPE_RSP:
 305:main.c        ****             #ifdef PRINT_MESSAGE_LOG   
 306:main.c        ****                 UART_UartPutString("\n\r CYBLE_EVT_GATTC_READ_BY_TYPE_RSP \n\r");
 307:main.c        ****             #endif
 308:main.c        ****             
 309:main.c        ****             readResponse = (CYBLE_GATTC_READ_BY_TYPE_RSP_PARAM_T *) eventParam;
 807              		.loc 1 309 0
 808 00c2 3B68     		ldr	r3, [r7]
 809 00c4 3B61     		str	r3, [r7, #16]
 310:main.c        ****             
 311:main.c        ****             if(0 == memcmp((uint8 *)&(readResponse->attrData.attrValue[5]), (uint8 *)uartTxAttrUuid
 810              		.loc 1 311 0
 811 00c6 3B69     		ldr	r3, [r7, #16]
 812 00c8 5B68     		ldr	r3, [r3, #4]
 813 00ca 0533     		adds	r3, r3, #5
 814 00cc 6449     		ldr	r1, .L68+20
 815 00ce 1022     		movs	r2, #16
 816 00d0 1800     		movs	r0, r3
 817 00d2 FFF7FEFF 		bl	memcmp
 818 00d6 031E     		subs	r3, r0, #0
 819 00d8 1CD1     		bne	.L57
 312:main.c        ****             {
 313:main.c        ****                 txCharHandle = readResponse->attrData.attrValue[3];
 820              		.loc 1 313 0
 821 00da 3B69     		ldr	r3, [r7, #16]
 822 00dc 5B68     		ldr	r3, [r3, #4]
 823 00de 0333     		adds	r3, r3, #3
 824 00e0 1B78     		ldrb	r3, [r3]
 825 00e2 9AB2     		uxth	r2, r3
 826 00e4 5F4B     		ldr	r3, .L68+24
 827 00e6 1A80     		strh	r2, [r3]
 314:main.c        ****                 txCharHandle |= (readResponse->attrData.attrValue[4] << 8);
 828              		.loc 1 314 0
 829 00e8 3B69     		ldr	r3, [r7, #16]
 830 00ea 5B68     		ldr	r3, [r3, #4]
 831 00ec 0433     		adds	r3, r3, #4
 832 00ee 1B78     		ldrb	r3, [r3]
 833 00f0 1B02     		lsls	r3, r3, #8
 834 00f2 1AB2     		sxth	r2, r3
 835 00f4 5B4B     		ldr	r3, .L68+24
 836 00f6 1B88     		ldrh	r3, [r3]
 837 00f8 1BB2     		sxth	r3, r3
 838 00fa 1343     		orrs	r3, r2
 839 00fc 1BB2     		sxth	r3, r3
 840 00fe 9AB2     		uxth	r2, r3
 841 0100 584B     		ldr	r3, .L68+24
 842 0102 1A80     		strh	r2, [r3]
 315:main.c        ****                 
 316:main.c        ****                 infoExchangeState |= TX_ATTR_HANDLE_FOUND;
 843              		.loc 1 316 0
 844 0104 554B     		ldr	r3, .L68+16
 845 0106 1B78     		ldrb	r3, [r3]
 846 0108 0222     		movs	r2, #2
 847 010a 1343     		orrs	r3, r2
 848 010c DAB2     		uxtb	r2, r3
 849 010e 534B     		ldr	r3, .L68+16
 850 0110 1A70     		strb	r2, [r3]
ARM GAS  C:\Users\7709\AppData\Local\Temp\cc4KzQSA.s 			page 22


 317:main.c        ****             }
 318:main.c        ****             else if(0 == memcmp((uint8 *)&(readResponse->attrData.attrValue[5]), (uint8 *)uartRxAtt
 319:main.c        ****             {
 320:main.c        ****                 rxCharHandle = readResponse->attrData.attrValue[3];
 321:main.c        ****                 rxCharHandle |= (readResponse->attrData.attrValue[4] << 8);
 322:main.c        ****                 
 323:main.c        ****                 infoExchangeState |= RX_ATTR_HANDLE_FOUND;
 324:main.c        ****             }
 325:main.c        **** 
 326:main.c        ****         break;
 851              		.loc 1 326 0
 852 0112 93E0     		b	.L66
 853              	.L57:
 318:main.c        ****             {
 854              		.loc 1 318 0
 855 0114 3B69     		ldr	r3, [r7, #16]
 856 0116 5B68     		ldr	r3, [r3, #4]
 857 0118 0533     		adds	r3, r3, #5
 858 011a 5349     		ldr	r1, .L68+28
 859 011c 1022     		movs	r2, #16
 860 011e 1800     		movs	r0, r3
 861 0120 FFF7FEFF 		bl	memcmp
 862 0124 031E     		subs	r3, r0, #0
 863 0126 00D0     		beq	.LCB500
 864 0128 88E0     		b	.L66	@long jump
 865              	.LCB500:
 320:main.c        ****                 rxCharHandle |= (readResponse->attrData.attrValue[4] << 8);
 866              		.loc 1 320 0
 867 012a 3B69     		ldr	r3, [r7, #16]
 868 012c 5B68     		ldr	r3, [r3, #4]
 869 012e 0333     		adds	r3, r3, #3
 870 0130 1B78     		ldrb	r3, [r3]
 871 0132 9AB2     		uxth	r2, r3
 872 0134 4D4B     		ldr	r3, .L68+32
 873 0136 1A80     		strh	r2, [r3]
 321:main.c        ****                 
 874              		.loc 1 321 0
 875 0138 3B69     		ldr	r3, [r7, #16]
 876 013a 5B68     		ldr	r3, [r3, #4]
 877 013c 0433     		adds	r3, r3, #4
 878 013e 1B78     		ldrb	r3, [r3]
 879 0140 1B02     		lsls	r3, r3, #8
 880 0142 1AB2     		sxth	r2, r3
 881 0144 494B     		ldr	r3, .L68+32
 882 0146 1B88     		ldrh	r3, [r3]
 883 0148 1BB2     		sxth	r3, r3
 884 014a 1343     		orrs	r3, r2
 885 014c 1BB2     		sxth	r3, r3
 886 014e 9AB2     		uxth	r2, r3
 887 0150 464B     		ldr	r3, .L68+32
 888 0152 1A80     		strh	r2, [r3]
 323:main.c        ****             }
 889              		.loc 1 323 0
 890 0154 414B     		ldr	r3, .L68+16
 891 0156 1B78     		ldrb	r3, [r3]
 892 0158 0422     		movs	r2, #4
 893 015a 1343     		orrs	r3, r2
ARM GAS  C:\Users\7709\AppData\Local\Temp\cc4KzQSA.s 			page 23


 894 015c DAB2     		uxtb	r2, r3
 895 015e 3F4B     		ldr	r3, .L68+16
 896 0160 1A70     		strb	r2, [r3]
 897              		.loc 1 326 0
 898 0162 6BE0     		b	.L66
 899              	.L51:
 327:main.c        ****             
 328:main.c        ****         case CYBLE_EVT_GATTC_FIND_INFO_RSP:
 329:main.c        ****            
 330:main.c        ****             #ifdef PRINT_MESSAGE_LOG   
 331:main.c        ****                 UART_UartPutString("\n\r CYBLE_EVT_GATTC_FIND_INFO_RSP \n\r");
 332:main.c        ****             #endif 
 333:main.c        ****             
 334:main.c        ****             
 335:main.c        ****             findInfoResponse = (CYBLE_GATTC_FIND_INFO_RSP_PARAM_T *) eventParam;
 900              		.loc 1 335 0
 901 0164 3B68     		ldr	r3, [r7]
 902 0166 FB60     		str	r3, [r7, #12]
 336:main.c        ****             
 337:main.c        ****             if((0x29 == findInfoResponse->handleValueList.list[3]) && \
 903              		.loc 1 337 0
 904 0168 FB68     		ldr	r3, [r7, #12]
 905 016a 5B68     		ldr	r3, [r3, #4]
 906 016c 0333     		adds	r3, r3, #3
 907 016e 1B78     		ldrb	r3, [r3]
 908 0170 292B     		cmp	r3, #41
 909 0172 65D1     		bne	.L67
 338:main.c        ****                                 (0x02 == findInfoResponse->handleValueList.list[2]))
 910              		.loc 1 338 0 discriminator 1
 911 0174 FB68     		ldr	r3, [r7, #12]
 912 0176 5B68     		ldr	r3, [r3, #4]
 913 0178 0233     		adds	r3, r3, #2
 914 017a 1B78     		ldrb	r3, [r3]
 337:main.c        ****                                 (0x02 == findInfoResponse->handleValueList.list[2]))
 915              		.loc 1 337 0 discriminator 1
 916 017c 022B     		cmp	r3, #2
 917 017e 5FD1     		bne	.L67
 339:main.c        ****             {
 340:main.c        ****                 txCharDescHandle = findInfoResponse->handleValueList.list[0];
 918              		.loc 1 340 0
 919 0180 FB68     		ldr	r3, [r7, #12]
 920 0182 5B68     		ldr	r3, [r3, #4]
 921 0184 1B78     		ldrb	r3, [r3]
 922 0186 9AB2     		uxth	r2, r3
 923 0188 394B     		ldr	r3, .L68+36
 924 018a 1A80     		strh	r2, [r3]
 341:main.c        ****                 txCharDescHandle |= findInfoResponse->handleValueList.list[1] << 8;
 925              		.loc 1 341 0
 926 018c FB68     		ldr	r3, [r7, #12]
 927 018e 5B68     		ldr	r3, [r3, #4]
 928 0190 0133     		adds	r3, r3, #1
 929 0192 1B78     		ldrb	r3, [r3]
 930 0194 1B02     		lsls	r3, r3, #8
 931 0196 1AB2     		sxth	r2, r3
 932 0198 354B     		ldr	r3, .L68+36
 933 019a 1B88     		ldrh	r3, [r3]
 934 019c 1BB2     		sxth	r3, r3
ARM GAS  C:\Users\7709\AppData\Local\Temp\cc4KzQSA.s 			page 24


 935 019e 1343     		orrs	r3, r2
 936 01a0 1BB2     		sxth	r3, r3
 937 01a2 9AB2     		uxth	r2, r3
 938 01a4 324B     		ldr	r3, .L68+36
 939 01a6 1A80     		strh	r2, [r3]
 342:main.c        ****                 infoExchangeState |= TX_CCCD_HANDLE_FOUND;
 940              		.loc 1 342 0
 941 01a8 2C4B     		ldr	r3, .L68+16
 942 01aa 1B78     		ldrb	r3, [r3]
 943 01ac 0822     		movs	r2, #8
 944 01ae 1343     		orrs	r3, r2
 945 01b0 DAB2     		uxtb	r2, r3
 946 01b2 2A4B     		ldr	r3, .L68+16
 947 01b4 1A70     		strb	r2, [r3]
 343:main.c        ****             }
 344:main.c        ****            
 345:main.c        ****             break;
 948              		.loc 1 345 0
 949 01b6 43E0     		b	.L67
 950              	.L49:
 346:main.c        ****             
 347:main.c        ****         case CYBLE_EVT_GATTC_XCHNG_MTU_RSP:
 348:main.c        ****             
 349:main.c        ****             #ifdef PRINT_MESSAGE_LOG   
 350:main.c        ****                 UART_UartPutString("\n\r CYBLE_EVT_GATTC_XCHNG_MTU_RSP \n\r");
 351:main.c        ****             #endif  
 352:main.c        ****             
 353:main.c        ****             /*set the 'mtuSize' variable based on the minimum MTU supported by both devices */
 354:main.c        ****             if(CYBLE_GATT_MTU > ((CYBLE_GATT_XCHG_MTU_PARAM_T *)eventParam)->mtu)
 951              		.loc 1 354 0
 952 01b8 3B68     		ldr	r3, [r7]
 953 01ba 5B88     		ldrh	r3, [r3, #2]
 954 01bc 162B     		cmp	r3, #22
 955 01be 04D8     		bhi	.L60
 355:main.c        ****             {
 356:main.c        ****                 mtuSize = ((CYBLE_GATT_XCHG_MTU_PARAM_T *)eventParam)->mtu;
 956              		.loc 1 356 0
 957 01c0 3B68     		ldr	r3, [r7]
 958 01c2 5A88     		ldrh	r2, [r3, #2]
 959 01c4 2B4B     		ldr	r3, .L68+40
 960 01c6 1A80     		strh	r2, [r3]
 961 01c8 02E0     		b	.L61
 962              	.L60:
 357:main.c        ****             }
 358:main.c        ****             else
 359:main.c        ****             {
 360:main.c        ****                 mtuSize = CYBLE_GATT_MTU;
 963              		.loc 1 360 0
 964 01ca 2A4B     		ldr	r3, .L68+40
 965 01cc 1722     		movs	r2, #23
 966 01ce 1A80     		strh	r2, [r3]
 967              	.L61:
 361:main.c        ****             }
 362:main.c        ****             
 363:main.c        ****             infoExchangeState |= MTU_XCHNG_COMPLETE;
 968              		.loc 1 363 0
 969 01d0 224B     		ldr	r3, .L68+16
ARM GAS  C:\Users\7709\AppData\Local\Temp\cc4KzQSA.s 			page 25


 970 01d2 1B78     		ldrb	r3, [r3]
 971 01d4 1022     		movs	r2, #16
 972 01d6 1343     		orrs	r3, r2
 973 01d8 DAB2     		uxtb	r2, r3
 974 01da 204B     		ldr	r3, .L68+16
 975 01dc 1A70     		strb	r2, [r3]
 364:main.c        ****             
 365:main.c        ****         break;
 976              		.loc 1 365 0
 977 01de 30E0     		b	.L55
 978              	.L54:
 366:main.c        ****             
 367:main.c        ****         case CYBLE_EVT_GATTC_HANDLE_VALUE_NTF:
 368:main.c        ****             #ifdef PRINT_MESSAGE_LOG   
 369:main.c        ****                 UART_UartPutString("\n\r CYBLE_EVT_GATTC_HANDLE_VALUE_NTF  \n\r");
 370:main.c        ****             #endif            
 371:main.c        ****             
 372:main.c        ****             packetReceivedToPrint((CYBLE_GATTC_HANDLE_VALUE_NTF_PARAM_T *)eventParam);
 979              		.loc 1 372 0
 980 01e0 3B68     		ldr	r3, [r7]
 981 01e2 1800     		movs	r0, r3
 982 01e4 FFF7FEFF 		bl	packetReceivedToPrint
 373:main.c        ****             break;
 983              		.loc 1 373 0
 984 01e8 2BE0     		b	.L55
 985              	.L52:
 374:main.c        ****         
 375:main.c        ****         case CYBLE_EVT_GATTC_FIND_BY_TYPE_VALUE_RSP:
 376:main.c        ****             #ifdef PRINT_MESSAGE_LOG   
 377:main.c        ****                 UART_UartPutString("\n\r CYBLE_EVT_GATTC_FIND_BY_TYPE_VALUE_RSP \n\r");
 378:main.c        ****             #endif
 379:main.c        ****             
 380:main.c        ****             findResponse            = (CYBLE_GATTC_FIND_BY_TYPE_RSP_PARAM_T *) eventParam;
 986              		.loc 1 380 0
 987 01ea 3B68     		ldr	r3, [r7]
 988 01ec BB60     		str	r3, [r7, #8]
 381:main.c        ****             bleUartServiceHandle    = findResponse->range->startHandle;
 989              		.loc 1 381 0
 990 01ee BB68     		ldr	r3, [r7, #8]
 991 01f0 5B68     		ldr	r3, [r3, #4]
 992 01f2 1A88     		ldrh	r2, [r3]
 993 01f4 204B     		ldr	r3, .L68+44
 994 01f6 1A80     		strh	r2, [r3]
 382:main.c        ****             bleUartServiceEndHandle = findResponse->range->endHandle;
 995              		.loc 1 382 0
 996 01f8 BB68     		ldr	r3, [r7, #8]
 997 01fa 5B68     		ldr	r3, [r3, #4]
 998 01fc 5A88     		ldrh	r2, [r3, #2]
 999 01fe 1F4B     		ldr	r3, .L68+48
 1000 0200 1A80     		strh	r2, [r3]
 383:main.c        ****             
 384:main.c        ****             infoExchangeState |= BLE_UART_SERVICE_HANDLE_FOUND;
 1001              		.loc 1 384 0
 1002 0202 164B     		ldr	r3, .L68+16
 1003 0204 1B78     		ldrb	r3, [r3]
 1004 0206 0122     		movs	r2, #1
 1005 0208 1343     		orrs	r3, r2
ARM GAS  C:\Users\7709\AppData\Local\Temp\cc4KzQSA.s 			page 26


 1006 020a DAB2     		uxtb	r2, r3
 1007 020c 134B     		ldr	r3, .L68+16
 1008 020e 1A70     		strb	r2, [r3]
 385:main.c        ****             
 386:main.c        ****         break;
 1009              		.loc 1 386 0
 1010 0210 17E0     		b	.L55
 1011              	.L48:
 387:main.c        ****         
 388:main.c        ****         case CYBLE_EVT_GATTS_XCNHG_MTU_REQ:           
 389:main.c        ****             
 390:main.c        ****             
 391:main.c        ****             #ifdef PRINT_MESSAGE_LOG   
 392:main.c        ****                 UART_UartPutString("\n\r CYBLE_EVT_GATTS_XCNHG_MTU_REQ \n\r");
 393:main.c        ****             #endif
 394:main.c        ****             /*set the 'mtuSize' variable based on the minimum MTU supported by both devices */
 395:main.c        ****             if(CYBLE_GATT_MTU > ((CYBLE_GATT_XCHG_MTU_PARAM_T *)eventParam)->mtu)
 1012              		.loc 1 395 0
 1013 0212 3B68     		ldr	r3, [r7]
 1014 0214 5B88     		ldrh	r3, [r3, #2]
 1015 0216 162B     		cmp	r3, #22
 1016 0218 04D8     		bhi	.L62
 396:main.c        ****             {
 397:main.c        ****                 mtuSize = ((CYBLE_GATT_XCHG_MTU_PARAM_T *)eventParam)->mtu;
 1017              		.loc 1 397 0
 1018 021a 3B68     		ldr	r3, [r7]
 1019 021c 5A88     		ldrh	r2, [r3, #2]
 1020 021e 154B     		ldr	r3, .L68+40
 1021 0220 1A80     		strh	r2, [r3]
 398:main.c        ****             }
 399:main.c        ****             else
 400:main.c        ****             {
 401:main.c        ****                 mtuSize = CYBLE_GATT_MTU;
 402:main.c        ****             }
 403:main.c        ****             
 404:main.c        ****         break;    
 1022              		.loc 1 404 0
 1023 0222 0EE0     		b	.L55
 1024              	.L62:
 401:main.c        ****             }
 1025              		.loc 1 401 0
 1026 0224 134B     		ldr	r3, .L68+40
 1027 0226 1722     		movs	r2, #23
 1028 0228 1A80     		strh	r2, [r3]
 1029              		.loc 1 404 0
 1030 022a 0AE0     		b	.L55
 1031              	.L53:
 405:main.c        ****         
 406:main.c        ****         case CYBLE_EVT_GATTC_WRITE_RSP:
 407:main.c        ****             
 408:main.c        ****             notificationEnabled = true;
 1032              		.loc 1 408 0
 1033 022c 0A4B     		ldr	r3, .L68+12
 1034 022e 0122     		movs	r2, #1
 1035 0230 1A70     		strb	r2, [r3]
 409:main.c        ****             
 410:main.c        ****             #ifdef PRINT_MESSAGE_LOG   
ARM GAS  C:\Users\7709\AppData\Local\Temp\cc4KzQSA.s 			page 27


 411:main.c        ****                 UART_UartPutString("\n\rNotifications enabled\n\r");
 412:main.c        ****                 UART_UartPutString("\n\rStart entering data:\n\r");
 413:main.c        ****             #endif
 414:main.c        ****             
 415:main.c        ****         break;
 1036              		.loc 1 415 0
 1037 0232 06E0     		b	.L55
 1038              	.L64:
 416:main.c        ****         
 417:main.c        ****         case CYBLE_EVT_GATT_CONNECT_IND:
 418:main.c        ****             
 419:main.c        ****             #ifdef PRINT_MESSAGE_LOG   
 420:main.c        ****                 UART_UartPutString("\n\rConnection established");             
 421:main.c        ****             #endif
 422:main.c        ****             
 423:main.c        ****         break;
 424:main.c        ****             
 425:main.c        ****         default:            
 426:main.c        ****             break;
 1039              		.loc 1 426 0
 1040 0234 C046     		nop
 1041 0236 04E0     		b	.L55
 1042              	.L65:
 280:main.c        ****             
 1043              		.loc 1 280 0
 1044 0238 C046     		nop
 1045 023a 02E0     		b	.L55
 1046              	.L66:
 326:main.c        ****             
 1047              		.loc 1 326 0
 1048 023c C046     		nop
 1049 023e 00E0     		b	.L55
 1050              	.L67:
 345:main.c        ****             
 1051              		.loc 1 345 0
 1052 0240 C046     		nop
 1053              	.L55:
 427:main.c        ****     }
 428:main.c        **** }
 1054              		.loc 1 428 0
 1055 0242 C046     		nop
 1056 0244 BD46     		mov	sp, r7
 1057 0246 06B0     		add	sp, sp, #24
 1058              		@ sp needed
 1059 0248 80BD     		pop	{r7, pc}
 1060              	.L69:
 1061 024a C046     		.align	2
 1062              	.L68:
 1063 024c 6C000000 		.word	.L44
 1064 0250 00000000 		.word	peerDeviceFound
 1065 0254 10000000 		.word	peerAddr
 1066 0258 01000000 		.word	notificationEnabled
 1067 025c 0C000000 		.word	infoExchangeState
 1068 0260 00000000 		.word	uartTxAttrUuid
 1069 0264 00000000 		.word	txCharHandle
 1070 0268 00000000 		.word	uartRxAttrUuid
 1071 026c 00000000 		.word	rxCharHandle
ARM GAS  C:\Users\7709\AppData\Local\Temp\cc4KzQSA.s 			page 28


 1072 0270 00000000 		.word	txCharDescHandle
 1073 0274 00000000 		.word	mtuSize
 1074 0278 00000000 		.word	bleUartServiceHandle
 1075 027c 00000000 		.word	bleUartServiceEndHandle
 1076              		.cfi_endproc
 1077              	.LFE68:
 1078              		.size	AppCallBack, .-AppCallBack
 1079              		.section	.text.attrHandleInit,"ax",%progbits
 1080              		.align	2
 1081              		.global	attrHandleInit
 1082              		.code	16
 1083              		.thumb_func
 1084              		.type	attrHandleInit, %function
 1085              	attrHandleInit:
 1086              	.LFB69:
 429:main.c        **** 
 430:main.c        **** 
 431:main.c        **** /*******************************************************************************
 432:main.c        **** * Function Name: attrHandleInit
 433:main.c        **** ********************************************************************************
 434:main.c        **** *
 435:main.c        **** * Summary:
 436:main.c        **** *  This function gathhers all the information like attribute handles and MTU size
 437:main.c        **** *  from the server.
 438:main.c        **** *
 439:main.c        **** * Parameters:
 440:main.c        **** *  None.
 441:main.c        **** *
 442:main.c        **** * Return:
 443:main.c        **** *   None.
 444:main.c        **** *
 445:main.c        **** *******************************************************************************/
 446:main.c        **** void attrHandleInit()
 447:main.c        **** {
 1087              		.loc 1 447 0
 1088              		.cfi_startproc
 1089              		@ args = 0, pretend = 0, frame = 0
 1090              		@ frame_needed = 1, uses_anonymous_args = 0
 1091 0000 80B5     		push	{r7, lr}
 1092              		.cfi_def_cfa_offset 8
 1093              		.cfi_offset 7, -8
 1094              		.cfi_offset 14, -4
 1095 0002 00AF     		add	r7, sp, #0
 1096              		.cfi_def_cfa_register 7
 448:main.c        ****     switch(infoExchangeState)
 1097              		.loc 1 448 0
 1098 0004 354B     		ldr	r3, .L78
 1099 0006 1B78     		ldrb	r3, [r3]
 1100 0008 012B     		cmp	r3, #1
 1101 000a 1AD0     		beq	.L72
 1102 000c 02DC     		bgt	.L73
 1103 000e 002B     		cmp	r3, #0
 1104 0010 05D0     		beq	.L74
 449:main.c        ****     {
 450:main.c        ****         case INFO_EXCHANGE_START:        
 451:main.c        ****             CyBle_GattcDiscoverPrimaryServiceByUuid(cyBle_connHandle, bleUartServiceUuidInfo);
 452:main.c        ****             break;
ARM GAS  C:\Users\7709\AppData\Local\Temp\cc4KzQSA.s 			page 29


 453:main.c        ****         
 454:main.c        ****         case BLE_UART_SERVICE_HANDLE_FOUND:
 455:main.c        ****             attrHandleRange.startHandle    = bleUartServiceHandle;
 456:main.c        ****             attrHandleRange.endHandle      = bleUartServiceEndHandle;
 457:main.c        **** 
 458:main.c        ****             CyBle_GattcDiscoverAllCharacteristics(cyBle_connHandle, attrHandleRange);
 459:main.c        ****             break;
 460:main.c        ****         
 461:main.c        ****         case (SERVICE_AND_CHAR_HANDLES_FOUND):
 462:main.c        ****             charDescHandleRange.startHandle = txCharHandle + 1;
 463:main.c        ****             charDescHandleRange.endHandle   = bleUartServiceEndHandle;
 464:main.c        **** 
 465:main.c        ****             CyBle_GattcDiscoverAllCharacteristicDescriptors(cyBle_connHandle, &charDescHandleRange)
 466:main.c        ****             break;
 467:main.c        ****         
 468:main.c        ****         case (ALL_HANDLES_FOUND):
 469:main.c        ****             CyBle_GattcExchangeMtuReq(cyBle_connHandle, CYBLE_GATT_MTU);
 470:main.c        ****             break;    
 471:main.c        ****             
 472:main.c        ****         default:
 473:main.c        ****             break;    
 1105              		.loc 1 473 0
 1106 0012 5EE0     		b	.L77
 1107              	.L73:
 448:main.c        ****     switch(infoExchangeState)
 1108              		.loc 1 448 0
 1109 0014 072B     		cmp	r3, #7
 1110 0016 32D0     		beq	.L75
 1111 0018 0F2B     		cmp	r3, #15
 1112 001a 4AD0     		beq	.L76
 1113              		.loc 1 473 0
 1114 001c 59E0     		b	.L77
 1115              	.L74:
 451:main.c        ****             break;
 1116              		.loc 1 451 0
 1117 001e 304B     		ldr	r3, .L78+4
 1118 0020 304A     		ldr	r2, .L78+8
 1119 0022 1178     		ldrb	r1, [r2]
 1120 0024 5278     		ldrb	r2, [r2, #1]
 1121 0026 1202     		lsls	r2, r2, #8
 1122 0028 0A43     		orrs	r2, r1
 1123 002a 0020     		movs	r0, #0
 1124 002c 1204     		lsls	r2, r2, #16
 1125 002e 120C     		lsrs	r2, r2, #16
 1126 0030 010C     		lsrs	r1, r0, #16
 1127 0032 0904     		lsls	r1, r1, #16
 1128 0034 0A43     		orrs	r2, r1
 1129 0036 1000     		movs	r0, r2
 1130 0038 1968     		ldr	r1, [r3]
 1131 003a 5A68     		ldr	r2, [r3, #4]
 1132 003c FFF7FEFF 		bl	CyBle_GattcDiscoverPrimaryServiceByUuid
 452:main.c        ****         
 1133              		.loc 1 452 0
 1134 0040 47E0     		b	.L77
 1135              	.L72:
 455:main.c        ****             attrHandleRange.endHandle      = bleUartServiceEndHandle;
 1136              		.loc 1 455 0
ARM GAS  C:\Users\7709\AppData\Local\Temp\cc4KzQSA.s 			page 30


 1137 0042 294B     		ldr	r3, .L78+12
 1138 0044 1A88     		ldrh	r2, [r3]
 1139 0046 294B     		ldr	r3, .L78+16
 1140 0048 1A80     		strh	r2, [r3]
 456:main.c        **** 
 1141              		.loc 1 456 0
 1142 004a 294B     		ldr	r3, .L78+20
 1143 004c 1A88     		ldrh	r2, [r3]
 1144 004e 274B     		ldr	r3, .L78+16
 1145 0050 5A80     		strh	r2, [r3, #2]
 458:main.c        ****             break;
 1146              		.loc 1 458 0
 1147 0052 264A     		ldr	r2, .L78+16
 1148 0054 234B     		ldr	r3, .L78+8
 1149 0056 1188     		ldrh	r1, [r2]
 1150 0058 5288     		ldrh	r2, [r2, #2]
 1151 005a 1204     		lsls	r2, r2, #16
 1152 005c 0A43     		orrs	r2, r1
 1153 005e 0021     		movs	r1, #0
 1154 0060 1100     		movs	r1, r2
 1155 0062 1A78     		ldrb	r2, [r3]
 1156 0064 5B78     		ldrb	r3, [r3, #1]
 1157 0066 1B02     		lsls	r3, r3, #8
 1158 0068 1A43     		orrs	r2, r3
 1159 006a 0023     		movs	r3, #0
 1160 006c 1204     		lsls	r2, r2, #16
 1161 006e 120C     		lsrs	r2, r2, #16
 1162 0070 1B0C     		lsrs	r3, r3, #16
 1163 0072 1B04     		lsls	r3, r3, #16
 1164 0074 1343     		orrs	r3, r2
 1165 0076 1800     		movs	r0, r3
 1166 0078 FFF7FEFF 		bl	CyBle_GattcDiscoverAllCharacteristics
 459:main.c        ****         
 1167              		.loc 1 459 0
 1168 007c 29E0     		b	.L77
 1169              	.L75:
 462:main.c        ****             charDescHandleRange.endHandle   = bleUartServiceEndHandle;
 1170              		.loc 1 462 0
 1171 007e 1D4B     		ldr	r3, .L78+24
 1172 0080 1B88     		ldrh	r3, [r3]
 1173 0082 0133     		adds	r3, r3, #1
 1174 0084 9AB2     		uxth	r2, r3
 1175 0086 1C4B     		ldr	r3, .L78+28
 1176 0088 1A80     		strh	r2, [r3]
 463:main.c        **** 
 1177              		.loc 1 463 0
 1178 008a 194B     		ldr	r3, .L78+20
 1179 008c 1A88     		ldrh	r2, [r3]
 1180 008e 1A4B     		ldr	r3, .L78+28
 1181 0090 5A80     		strh	r2, [r3, #2]
 465:main.c        ****             break;
 1182              		.loc 1 465 0
 1183 0092 1949     		ldr	r1, .L78+28
 1184 0094 134B     		ldr	r3, .L78+8
 1185 0096 1A78     		ldrb	r2, [r3]
 1186 0098 5B78     		ldrb	r3, [r3, #1]
 1187 009a 1B02     		lsls	r3, r3, #8
ARM GAS  C:\Users\7709\AppData\Local\Temp\cc4KzQSA.s 			page 31


 1188 009c 1A43     		orrs	r2, r3
 1189 009e 0023     		movs	r3, #0
 1190 00a0 1204     		lsls	r2, r2, #16
 1191 00a2 120C     		lsrs	r2, r2, #16
 1192 00a4 1B0C     		lsrs	r3, r3, #16
 1193 00a6 1B04     		lsls	r3, r3, #16
 1194 00a8 1343     		orrs	r3, r2
 1195 00aa 1800     		movs	r0, r3
 1196 00ac FFF7FEFF 		bl	CyBle_GattcDiscoverAllCharacteristicDescriptors
 466:main.c        ****         
 1197              		.loc 1 466 0
 1198 00b0 0FE0     		b	.L77
 1199              	.L76:
 469:main.c        ****             break;    
 1200              		.loc 1 469 0
 1201 00b2 0C4B     		ldr	r3, .L78+8
 1202 00b4 1A78     		ldrb	r2, [r3]
 1203 00b6 5B78     		ldrb	r3, [r3, #1]
 1204 00b8 1B02     		lsls	r3, r3, #8
 1205 00ba 1A43     		orrs	r2, r3
 1206 00bc 0023     		movs	r3, #0
 1207 00be 1204     		lsls	r2, r2, #16
 1208 00c0 120C     		lsrs	r2, r2, #16
 1209 00c2 1B0C     		lsrs	r3, r3, #16
 1210 00c4 1B04     		lsls	r3, r3, #16
 1211 00c6 1343     		orrs	r3, r2
 1212 00c8 1721     		movs	r1, #23
 1213 00ca 1800     		movs	r0, r3
 1214 00cc FFF7FEFF 		bl	CyBle_GattcExchangeMtuReq
 470:main.c        ****             
 1215              		.loc 1 470 0
 1216 00d0 C046     		nop
 1217              	.L77:
 474:main.c        ****     }
 475:main.c        ****     
 476:main.c        ****     CyBle_ProcessEvents();
 1218              		.loc 1 476 0
 1219 00d2 FFF7FEFF 		bl	CyBle_ProcessEvents
 477:main.c        **** }
 1220              		.loc 1 477 0
 1221 00d6 C046     		nop
 1222 00d8 BD46     		mov	sp, r7
 1223              		@ sp needed
 1224 00da 80BD     		pop	{r7, pc}
 1225              	.L79:
 1226              		.align	2
 1227              	.L78:
 1228 00dc 0C000000 		.word	infoExchangeState
 1229 00e0 00000000 		.word	bleUartServiceUuidInfo
 1230 00e4 00000000 		.word	cyBle_connHandle
 1231 00e8 00000000 		.word	bleUartServiceHandle
 1232 00ec 00000000 		.word	attrHandleRange
 1233 00f0 00000000 		.word	bleUartServiceEndHandle
 1234 00f4 00000000 		.word	txCharHandle
 1235 00f8 00000000 		.word	charDescHandleRange
 1236              		.cfi_endproc
 1237              	.LFE69:
ARM GAS  C:\Users\7709\AppData\Local\Temp\cc4KzQSA.s 			page 32


 1238              		.size	attrHandleInit, .-attrHandleInit
 1239              		.section	.text.enableNotifications,"ax",%progbits
 1240              		.align	2
 1241              		.global	enableNotifications
 1242              		.code	16
 1243              		.thumb_func
 1244              		.type	enableNotifications, %function
 1245              	enableNotifications:
 1246              	.LFB70:
 478:main.c        **** 
 479:main.c        **** void enableNotifications()
 480:main.c        **** {     
 1247              		.loc 1 480 0
 1248              		.cfi_startproc
 1249              		@ args = 0, pretend = 0, frame = 0
 1250              		@ frame_needed = 1, uses_anonymous_args = 0
 1251 0000 80B5     		push	{r7, lr}
 1252              		.cfi_def_cfa_offset 8
 1253              		.cfi_offset 7, -8
 1254              		.cfi_offset 14, -4
 1255 0002 00AF     		add	r7, sp, #0
 1256              		.cfi_def_cfa_register 7
 481:main.c        ****     enableNotificationReqParam.attrHandle = txCharDescHandle;   
 1257              		.loc 1 481 0
 1258 0004 0A4B     		ldr	r3, .L81
 1259 0006 1A88     		ldrh	r2, [r3]
 1260 0008 0A4B     		ldr	r3, .L81+4
 1261 000a 1A81     		strh	r2, [r3, #8]
 482:main.c        ****     CyBle_GattcWriteCharacteristicDescriptors(cyBle_connHandle, (CYBLE_GATTC_WRITE_REQ_T *)(&enable
 1262              		.loc 1 482 0
 1263 000c 0949     		ldr	r1, .L81+4
 1264 000e 0A4B     		ldr	r3, .L81+8
 1265 0010 1A78     		ldrb	r2, [r3]
 1266 0012 5B78     		ldrb	r3, [r3, #1]
 1267 0014 1B02     		lsls	r3, r3, #8
 1268 0016 1A43     		orrs	r2, r3
 1269 0018 0023     		movs	r3, #0
 1270 001a 1204     		lsls	r2, r2, #16
 1271 001c 120C     		lsrs	r2, r2, #16
 1272 001e 1B0C     		lsrs	r3, r3, #16
 1273 0020 1B04     		lsls	r3, r3, #16
 1274 0022 1343     		orrs	r3, r2
 1275 0024 1800     		movs	r0, r3
 1276 0026 FFF7FEFF 		bl	CyBle_GattcWriteCharacteristicDescriptors
 483:main.c        **** }
 1277              		.loc 1 483 0
 1278 002a C046     		nop
 1279 002c BD46     		mov	sp, r7
 1280              		@ sp needed
 1281 002e 80BD     		pop	{r7, pc}
 1282              	.L82:
 1283              		.align	2
 1284              	.L81:
 1285 0030 00000000 		.word	txCharDescHandle
 1286 0034 00000000 		.word	enableNotificationReqParam
 1287 0038 00000000 		.word	cyBle_connHandle
 1288              		.cfi_endproc
ARM GAS  C:\Users\7709\AppData\Local\Temp\cc4KzQSA.s 			page 33


 1289              	.LFE70:
 1290              		.size	enableNotifications, .-enableNotifications
 1291              		.section	.rodata
 1292              		.align	2
 1293              	.LC40:
 1294 01b8 0A0D2000 		.ascii	"\012\015 \000"
 1295              		.align	2
 1296              	.LC42:
 1297 01bc 2000     		.ascii	" \000"
 1298 01be 0000     		.align	2
 1299              	.LC44:
 1300 01c0 0A0D00   		.ascii	"\012\015\000"
 1301              		.section	.text.packetReceivedToPrint,"ax",%progbits
 1302              		.align	2
 1303              		.global	packetReceivedToPrint
 1304              		.code	16
 1305              		.thumb_func
 1306              		.type	packetReceivedToPrint, %function
 1307              	packetReceivedToPrint:
 1308              	.LFB71:
 484:main.c        **** 
 485:main.c        **** void packetReceivedToPrint(CYBLE_GATTC_HANDLE_VALUE_NTF_PARAM_T *uartRxDataNotification)
 486:main.c        **** {
 1309              		.loc 1 486 0
 1310              		.cfi_startproc
 1311              		@ args = 0, pretend = 0, frame = 16
 1312              		@ frame_needed = 1, uses_anonymous_args = 0
 1313 0000 80B5     		push	{r7, lr}
 1314              		.cfi_def_cfa_offset 8
 1315              		.cfi_offset 7, -8
 1316              		.cfi_offset 14, -4
 1317 0002 84B0     		sub	sp, sp, #16
 1318              		.cfi_def_cfa_offset 24
 1319 0004 00AF     		add	r7, sp, #0
 1320              		.cfi_def_cfa_register 7
 1321 0006 7860     		str	r0, [r7, #4]
 487:main.c        ****     int i;
 488:main.c        ****     int clock;
 489:main.c        ****     clock=RTC_1_GetTime();
 1322              		.loc 1 489 0
 1323 0008 FFF7FEFF 		bl	RTC_1_GetTime
 1324 000c 0300     		movs	r3, r0
 1325 000e BB60     		str	r3, [r7, #8]
 490:main.c        ****     if(uartRxDataNotification->handleValPair.attrHandle == txCharHandle)
 1326              		.loc 1 490 0
 1327 0010 7B68     		ldr	r3, [r7, #4]
 1328 0012 9A89     		ldrh	r2, [r3, #12]
 1329 0014 264B     		ldr	r3, .L89
 1330 0016 1B88     		ldrh	r3, [r3]
 1331 0018 9A42     		cmp	r2, r3
 1332 001a 3DD1     		bne	.L84
 491:main.c        ****     {
 492:main.c        ****         packetSum++;
 1333              		.loc 1 492 0
 1334 001c 254B     		ldr	r3, .L89+4
 1335 001e 1B68     		ldr	r3, [r3]
 1336 0020 5A1C     		adds	r2, r3, #1
ARM GAS  C:\Users\7709\AppData\Local\Temp\cc4KzQSA.s 			page 34


 1337 0022 244B     		ldr	r3, .L89+4
 1338 0024 1A60     		str	r2, [r3]
 493:main.c        ****         UART_UartPutString("\n\r ");
 1339              		.loc 1 493 0
 1340 0026 244B     		ldr	r3, .L89+8
 1341 0028 1800     		movs	r0, r3
 1342 002a FFF7FEFF 		bl	UART_UartPutString
 494:main.c        ****         UART_UartPutString(ultoa(packetSum));
 1343              		.loc 1 494 0
 1344 002e 214B     		ldr	r3, .L89+4
 1345 0030 1B68     		ldr	r3, [r3]
 1346 0032 1800     		movs	r0, r3
 1347 0034 FFF7FEFF 		bl	ultoa
 1348 0038 0300     		movs	r3, r0
 1349 003a 1800     		movs	r0, r3
 1350 003c FFF7FEFF 		bl	UART_UartPutString
 495:main.c        ****         UART_UartPutString(" ");
 1351              		.loc 1 495 0
 1352 0040 1E4B     		ldr	r3, .L89+12
 1353 0042 1800     		movs	r0, r3
 1354 0044 FFF7FEFF 		bl	UART_UartPutString
 496:main.c        ****         /*UART_SpiUartPutArray(uartRxDataNotification->handleValPair.value.val, \
 497:main.c        ****             (uint32) uartRxDataNotification->handleValPair.value.len);*/
 498:main.c        ****         for (i=0;i<uartRxDataNotification->handleValPair.value.len;i++) {
 1355              		.loc 1 498 0
 1356 0048 0023     		movs	r3, #0
 1357 004a FB60     		str	r3, [r7, #12]
 1358 004c 12E0     		b	.L85
 1359              	.L86:
 499:main.c        ****             UART_UartPutString(ultoa(uartRxDataNotification->handleValPair.value.val[i]));
 1360              		.loc 1 499 0 discriminator 3
 1361 004e 7B68     		ldr	r3, [r7, #4]
 1362 0050 5A68     		ldr	r2, [r3, #4]
 1363 0052 FB68     		ldr	r3, [r7, #12]
 1364 0054 D318     		adds	r3, r2, r3
 1365 0056 1B78     		ldrb	r3, [r3]
 1366 0058 1800     		movs	r0, r3
 1367 005a FFF7FEFF 		bl	ultoa
 1368 005e 0300     		movs	r3, r0
 1369 0060 1800     		movs	r0, r3
 1370 0062 FFF7FEFF 		bl	UART_UartPutString
 500:main.c        ****             UART_UartPutString(" ");
 1371              		.loc 1 500 0 discriminator 3
 1372 0066 154B     		ldr	r3, .L89+12
 1373 0068 1800     		movs	r0, r3
 1374 006a FFF7FEFF 		bl	UART_UartPutString
 498:main.c        ****             UART_UartPutString(ultoa(uartRxDataNotification->handleValPair.value.val[i]));
 1375              		.loc 1 498 0 discriminator 3
 1376 006e FB68     		ldr	r3, [r7, #12]
 1377 0070 0133     		adds	r3, r3, #1
 1378 0072 FB60     		str	r3, [r7, #12]
 1379              	.L85:
 498:main.c        ****             UART_UartPutString(ultoa(uartRxDataNotification->handleValPair.value.val[i]));
 1380              		.loc 1 498 0 is_stmt 0 discriminator 1
 1381 0074 7B68     		ldr	r3, [r7, #4]
 1382 0076 1B89     		ldrh	r3, [r3, #8]
 1383 0078 1A00     		movs	r2, r3
ARM GAS  C:\Users\7709\AppData\Local\Temp\cc4KzQSA.s 			page 35


 1384 007a FB68     		ldr	r3, [r7, #12]
 1385 007c 9A42     		cmp	r2, r3
 1386 007e E6DC     		bgt	.L86
 501:main.c        ****         }
 502:main.c        ****         UART_UartPutString(ultoa(clock));
 1387              		.loc 1 502 0 is_stmt 1
 1388 0080 BB68     		ldr	r3, [r7, #8]
 1389 0082 1800     		movs	r0, r3
 1390 0084 FFF7FEFF 		bl	ultoa
 1391 0088 0300     		movs	r3, r0
 1392 008a 1800     		movs	r0, r3
 1393 008c FFF7FEFF 		bl	UART_UartPutString
 503:main.c        ****         UART_UartPutString("\n\r");
 1394              		.loc 1 503 0
 1395 0090 0B4B     		ldr	r3, .L89+16
 1396 0092 1800     		movs	r0, r3
 1397 0094 FFF7FEFF 		bl	UART_UartPutString
 1398              	.L84:
 504:main.c        ****     }
 505:main.c        ****     
 506:main.c        ****     if(packetSum==250){
 1399              		.loc 1 506 0
 1400 0098 064B     		ldr	r3, .L89+4
 1401 009a 1B68     		ldr	r3, [r3]
 1402 009c FA2B     		cmp	r3, #250
 1403 009e 02D1     		bne	.L88
 507:main.c        ****         packetSum=0;
 1404              		.loc 1 507 0
 1405 00a0 044B     		ldr	r3, .L89+4
 1406 00a2 0022     		movs	r2, #0
 1407 00a4 1A60     		str	r2, [r3]
 1408              	.L88:
 508:main.c        ****     }
 509:main.c        **** }...
 1409              		.loc 1 509 0
 1410 00a6 C046     		nop
 1411 00a8 BD46     		mov	sp, r7
 1412 00aa 04B0     		add	sp, sp, #16
 1413              		@ sp needed
 1414 00ac 80BD     		pop	{r7, pc}
 1415              	.L90:
 1416 00ae C046     		.align	2
 1417              	.L89:
 1418 00b0 00000000 		.word	txCharHandle
 1419 00b4 00000000 		.word	packetSum
 1420 00b8 B8010000 		.word	.LC40
 1421 00bc BC010000 		.word	.LC42
 1422 00c0 C0010000 		.word	.LC44
 1423              		.cfi_endproc
 1424              	.LFE71:
 1425              		.size	packetReceivedToPrint, .-packetReceivedToPrint
 1426              		.text
 1427              	.Letext0:
 1428              		.file 2 "Generated_Source\\PSoC4/cytypes.h"
 1429              		.file 3 "Generated_Source\\PSoC4/BLE_Stack.h"
 1430              		.file 4 "Generated_Source\\PSoC4/BLE_StackGap.h"
 1431              		.file 5 "Generated_Source\\PSoC4/BLE_StackGatt.h"
ARM GAS  C:\Users\7709\AppData\Local\Temp\cc4KzQSA.s 			page 36


 1432              		.file 6 "Generated_Source\\PSoC4/BLE_StackGattClient.h"
 1433              		.file 7 "Generated_Source\\PSoC4/BLE_eventHandler.h"
 1434              		.file 8 "app_Ble.h"
 1435              		.file 9 "main.h"