ARM GAS  C:\Users\7709\AppData\Local\Temp\ccYsxBBo.s 			page 1


   1              		.syntax unified
   2              		.cpu cortex-m0
   3              		.fpu softvfp
   4              		.eabi_attribute 20, 1
   5              		.eabi_attribute 21, 1
   6              		.eabi_attribute 23, 3
   7              		.eabi_attribute 24, 1
   8              		.eabi_attribute 25, 1
   9              		.eabi_attribute 26, 1
  10              		.eabi_attribute 30, 6
  11              		.eabi_attribute 34, 0
  12              		.eabi_attribute 18, 4
  13              		.thumb
  14              		.syntax unified
  15              		.file	"RTC_1.c"
  16              		.text
  17              	.Ltext0:
  18              		.cfi_sections	.debug_frame
  19              		.section	.text.RTC_1_IsBitSet,"ax",%progbits
  20              		.align	2
  21              		.code	16
  22              		.thumb_func
  23              		.type	RTC_1_IsBitSet, %function
  24              	RTC_1_IsBitSet:
  25              	.LFB2:
  26              		.file 1 "Generated_Source\\PSoC4\\RTC_1.h"
   1:Generated_Source\PSoC4/RTC_1.h **** /***************************************************************************//**
   2:Generated_Source\PSoC4/RTC_1.h **** * \file Name: RTC_1.h
   3:Generated_Source\PSoC4/RTC_1.h **** * \version 1.10
   4:Generated_Source\PSoC4/RTC_1.h **** *
   5:Generated_Source\PSoC4/RTC_1.h **** * \brief
   6:Generated_Source\PSoC4/RTC_1.h **** *  This file provides constants and parameter values for the RTC_P4 Component.
   7:Generated_Source\PSoC4/RTC_1.h **** *
   8:Generated_Source\PSoC4/RTC_1.h **** ********************************************************************************
   9:Generated_Source\PSoC4/RTC_1.h **** * Copyright 2015-2016, Cypress Semiconductor Corporation.  All rights reserved.
  10:Generated_Source\PSoC4/RTC_1.h **** * You may use this file only in accordance with the license, terms, conditions,
  11:Generated_Source\PSoC4/RTC_1.h **** * disclaimers, and limitations in the end user license agreement accompanying
  12:Generated_Source\PSoC4/RTC_1.h **** * the software package with which this file was provided.
  13:Generated_Source\PSoC4/RTC_1.h **** *******************************************************************************/
  14:Generated_Source\PSoC4/RTC_1.h **** 
  15:Generated_Source\PSoC4/RTC_1.h **** #if !defined(CY_RTC_P4_RTC_1_H)
  16:Generated_Source\PSoC4/RTC_1.h **** #define CY_RTC_P4_RTC_1_H
  17:Generated_Source\PSoC4/RTC_1.h **** 
  18:Generated_Source\PSoC4/RTC_1.h **** #include <cytypes.h>
  19:Generated_Source\PSoC4/RTC_1.h **** #include <CyLib.h>
  20:Generated_Source\PSoC4/RTC_1.h **** 
  21:Generated_Source\PSoC4/RTC_1.h **** 
  22:Generated_Source\PSoC4/RTC_1.h **** /*******************************************************************************
  23:Generated_Source\PSoC4/RTC_1.h **** *    Data types definition
  24:Generated_Source\PSoC4/RTC_1.h **** *******************************************************************************/
  25:Generated_Source\PSoC4/RTC_1.h **** 
  26:Generated_Source\PSoC4/RTC_1.h **** typedef enum
  27:Generated_Source\PSoC4/RTC_1.h **** {
  28:Generated_Source\PSoC4/RTC_1.h ****     RTC_1_DST_DATE_RELATIVE = 0u,
  29:Generated_Source\PSoC4/RTC_1.h ****     RTC_1_DST_DATE_FIXED = 1u
  30:Generated_Source\PSoC4/RTC_1.h **** }RTC_1_DST_DATETYPE_ENUM;
  31:Generated_Source\PSoC4/RTC_1.h **** 
ARM GAS  C:\Users\7709\AppData\Local\Temp\ccYsxBBo.s 			page 2


  32:Generated_Source\PSoC4/RTC_1.h **** /**
  33:Generated_Source\PSoC4/RTC_1.h **** * \addtogroup group_structures
  34:Generated_Source\PSoC4/RTC_1.h **** * @{
  35:Generated_Source\PSoC4/RTC_1.h **** */
  36:Generated_Source\PSoC4/RTC_1.h **** 
  37:Generated_Source\PSoC4/RTC_1.h **** /**
  38:Generated_Source\PSoC4/RTC_1.h **** * This is the data structure that is used to save the current time and date 
  39:Generated_Source\PSoC4/RTC_1.h **** * (RTC_currentTimeDate), and Alarm time and date (RTC_alarmCfgTimeDate).
  40:Generated_Source\PSoC4/RTC_1.h **** */
  41:Generated_Source\PSoC4/RTC_1.h **** typedef struct
  42:Generated_Source\PSoC4/RTC_1.h **** {
  43:Generated_Source\PSoC4/RTC_1.h ****     uint32 time;
  44:Generated_Source\PSoC4/RTC_1.h ****     uint32 date;
  45:Generated_Source\PSoC4/RTC_1.h ****     uint32 dayOfWeek;
  46:Generated_Source\PSoC4/RTC_1.h ****     uint32 status;
  47:Generated_Source\PSoC4/RTC_1.h **** }RTC_1_DATE_TIME;
  48:Generated_Source\PSoC4/RTC_1.h **** 
  49:Generated_Source\PSoC4/RTC_1.h **** /**
  50:Generated_Source\PSoC4/RTC_1.h **** * This is the data structure that is used to save time and date values for 
  51:Generated_Source\PSoC4/RTC_1.h **** * Daylight Savings Time Start and Stop (RTC_dstTimeDateStart and 
  52:Generated_Source\PSoC4/RTC_1.h **** * RTC_dstTimeDateStop).
  53:Generated_Source\PSoC4/RTC_1.h **** */
  54:Generated_Source\PSoC4/RTC_1.h **** typedef struct
  55:Generated_Source\PSoC4/RTC_1.h **** {
  56:Generated_Source\PSoC4/RTC_1.h ****     uint32 hour;
  57:Generated_Source\PSoC4/RTC_1.h ****     uint32 dayOfWeek;
  58:Generated_Source\PSoC4/RTC_1.h ****     uint32 dayOfMonth;
  59:Generated_Source\PSoC4/RTC_1.h ****     uint32 weekOfMonth;
  60:Generated_Source\PSoC4/RTC_1.h ****     uint32 month;
  61:Generated_Source\PSoC4/RTC_1.h ****     uint8  timeFormat;
  62:Generated_Source\PSoC4/RTC_1.h **** }RTC_1_DST_TIME;
  63:Generated_Source\PSoC4/RTC_1.h **** 
  64:Generated_Source\PSoC4/RTC_1.h **** /** @} structures */
  65:Generated_Source\PSoC4/RTC_1.h **** 
  66:Generated_Source\PSoC4/RTC_1.h **** /*******************************************************************************
  67:Generated_Source\PSoC4/RTC_1.h **** *    Enumerated Types and Parameters
  68:Generated_Source\PSoC4/RTC_1.h **** *******************************************************************************/
  69:Generated_Source\PSoC4/RTC_1.h **** /* Time Format setting constants */
  70:Generated_Source\PSoC4/RTC_1.h **** #define RTC_1__HOUR_12 1
  71:Generated_Source\PSoC4/RTC_1.h **** #define RTC_1__HOUR_24 0
  72:Generated_Source\PSoC4/RTC_1.h **** 
  73:Generated_Source\PSoC4/RTC_1.h **** /*  Date Format setting constants */
  74:Generated_Source\PSoC4/RTC_1.h **** #define RTC_1__MM_DD_YYYY 0
  75:Generated_Source\PSoC4/RTC_1.h **** #define RTC_1__DD_MM_YYYY 1
  76:Generated_Source\PSoC4/RTC_1.h **** #define RTC_1__YYYY_MM_DD 2
  77:Generated_Source\PSoC4/RTC_1.h **** 
  78:Generated_Source\PSoC4/RTC_1.h **** /* Date Type setting constants */
  79:Generated_Source\PSoC4/RTC_1.h **** #define RTC_1__RELATIVE 0
  80:Generated_Source\PSoC4/RTC_1.h **** #define RTC_1__FIXED 1
  81:Generated_Source\PSoC4/RTC_1.h **** 
  82:Generated_Source\PSoC4/RTC_1.h **** /* DST Hour setting constants */
  83:Generated_Source\PSoC4/RTC_1.h **** #define RTC_1__H0000 0
  84:Generated_Source\PSoC4/RTC_1.h **** #define RTC_1__H0100 1
  85:Generated_Source\PSoC4/RTC_1.h **** #define RTC_1__H0200 2
  86:Generated_Source\PSoC4/RTC_1.h **** #define RTC_1__H0300 3
  87:Generated_Source\PSoC4/RTC_1.h **** #define RTC_1__H0400 4
  88:Generated_Source\PSoC4/RTC_1.h **** #define RTC_1__H0500 5
ARM GAS  C:\Users\7709\AppData\Local\Temp\ccYsxBBo.s 			page 3


  89:Generated_Source\PSoC4/RTC_1.h **** #define RTC_1__H0600 6
  90:Generated_Source\PSoC4/RTC_1.h **** #define RTC_1__H0700 7
  91:Generated_Source\PSoC4/RTC_1.h **** #define RTC_1__H0800 8
  92:Generated_Source\PSoC4/RTC_1.h **** #define RTC_1__H0900 9
  93:Generated_Source\PSoC4/RTC_1.h **** #define RTC_1__H1000 10
  94:Generated_Source\PSoC4/RTC_1.h **** #define RTC_1__H1100 11
  95:Generated_Source\PSoC4/RTC_1.h **** #define RTC_1__H1200 12
  96:Generated_Source\PSoC4/RTC_1.h **** #define RTC_1__H1300 13
  97:Generated_Source\PSoC4/RTC_1.h **** #define RTC_1__H1400 14
  98:Generated_Source\PSoC4/RTC_1.h **** #define RTC_1__H1500 15
  99:Generated_Source\PSoC4/RTC_1.h **** #define RTC_1__H1600 16
 100:Generated_Source\PSoC4/RTC_1.h **** #define RTC_1__H1700 17
 101:Generated_Source\PSoC4/RTC_1.h **** #define RTC_1__H1800 18
 102:Generated_Source\PSoC4/RTC_1.h **** #define RTC_1__H1900 19
 103:Generated_Source\PSoC4/RTC_1.h **** #define RTC_1__H2000 20
 104:Generated_Source\PSoC4/RTC_1.h **** #define RTC_1__H2100 21
 105:Generated_Source\PSoC4/RTC_1.h **** #define RTC_1__H2200 22
 106:Generated_Source\PSoC4/RTC_1.h **** #define RTC_1__H2300 23
 107:Generated_Source\PSoC4/RTC_1.h **** 
 108:Generated_Source\PSoC4/RTC_1.h **** /* DST DayOfWeek setting constants */
 109:Generated_Source\PSoC4/RTC_1.h **** #define RTC_1__SUNDAY 1
 110:Generated_Source\PSoC4/RTC_1.h **** #define RTC_1__MONDAY 2
 111:Generated_Source\PSoC4/RTC_1.h **** #define RTC_1__TUESDAY 3
 112:Generated_Source\PSoC4/RTC_1.h **** #define RTC_1__WEDNESDAY 4
 113:Generated_Source\PSoC4/RTC_1.h **** #define RTC_1__THURSDAY 5
 114:Generated_Source\PSoC4/RTC_1.h **** #define RTC_1__FRIDAY 6
 115:Generated_Source\PSoC4/RTC_1.h **** #define RTC_1__SATURDAY 7
 116:Generated_Source\PSoC4/RTC_1.h **** 
 117:Generated_Source\PSoC4/RTC_1.h **** /* DST Month setting constants */
 118:Generated_Source\PSoC4/RTC_1.h **** #define RTC_1__JAN 1
 119:Generated_Source\PSoC4/RTC_1.h **** #define RTC_1__FEB 2
 120:Generated_Source\PSoC4/RTC_1.h **** #define RTC_1__MAR 3
 121:Generated_Source\PSoC4/RTC_1.h **** #define RTC_1__APR 4
 122:Generated_Source\PSoC4/RTC_1.h **** #define RTC_1__MAY 5
 123:Generated_Source\PSoC4/RTC_1.h **** #define RTC_1__JUN 6
 124:Generated_Source\PSoC4/RTC_1.h **** #define RTC_1__JUL 7
 125:Generated_Source\PSoC4/RTC_1.h **** #define RTC_1__AUG 8
 126:Generated_Source\PSoC4/RTC_1.h **** #define RTC_1__SEP 9
 127:Generated_Source\PSoC4/RTC_1.h **** #define RTC_1__OCT 10
 128:Generated_Source\PSoC4/RTC_1.h **** #define RTC_1__NOV 11
 129:Generated_Source\PSoC4/RTC_1.h **** #define RTC_1__DEC 12
 130:Generated_Source\PSoC4/RTC_1.h **** 
 131:Generated_Source\PSoC4/RTC_1.h **** /* DST WeekOfMonth setting constants */
 132:Generated_Source\PSoC4/RTC_1.h **** #define RTC_1__FIRST 1
 133:Generated_Source\PSoC4/RTC_1.h **** #define RTC_1__SECOND 2
 134:Generated_Source\PSoC4/RTC_1.h **** #define RTC_1__THIRD 3
 135:Generated_Source\PSoC4/RTC_1.h **** #define RTC_1__FOURTH 4
 136:Generated_Source\PSoC4/RTC_1.h **** #define RTC_1__FIFTH 5
 137:Generated_Source\PSoC4/RTC_1.h **** #define RTC_1__LAST 6
 138:Generated_Source\PSoC4/RTC_1.h **** 
 139:Generated_Source\PSoC4/RTC_1.h **** 
 140:Generated_Source\PSoC4/RTC_1.h **** #define RTC_1_INITIAL_DATA_FORMAT     (1u)
 141:Generated_Source\PSoC4/RTC_1.h **** #define RTC_1_INITIAL_TIME_FORMAT     (0u)
 142:Generated_Source\PSoC4/RTC_1.h **** #define RTC_1_INITIAL_UPDATE_MODE     (0u)
 143:Generated_Source\PSoC4/RTC_1.h **** #define RTC_1_INITIAL_SECOND          (0u)
 144:Generated_Source\PSoC4/RTC_1.h **** #define RTC_1_INITIAL_MINUTE          (0u)
 145:Generated_Source\PSoC4/RTC_1.h **** #define RTC_1_INITIAL_HOUR            (12u)
ARM GAS  C:\Users\7709\AppData\Local\Temp\ccYsxBBo.s 			page 4


 146:Generated_Source\PSoC4/RTC_1.h **** #define RTC_1_INITIAL_DAY             (4u)
 147:Generated_Source\PSoC4/RTC_1.h **** #define RTC_1_INITIAL_MONTH           (12u)
 148:Generated_Source\PSoC4/RTC_1.h **** #define RTC_1_INITIAL_YEAR            (2017u)
 149:Generated_Source\PSoC4/RTC_1.h **** 
 150:Generated_Source\PSoC4/RTC_1.h **** #define RTC_1_INITIAL_ALARM_STATUS    (0u)
 151:Generated_Source\PSoC4/RTC_1.h **** 
 152:Generated_Source\PSoC4/RTC_1.h **** #define RTC_1_INITIAL_DST_STATUS      (0u)
 153:Generated_Source\PSoC4/RTC_1.h **** #define RTC_1_INITIAL_DST_DATE_TYPE   (0u)
 154:Generated_Source\PSoC4/RTC_1.h **** #define RTC_1_INITIAL_DST_START_MONTH (3uL)
 155:Generated_Source\PSoC4/RTC_1.h **** #define RTC_1_INITIAL_DST_START_WOM   (6uL)
 156:Generated_Source\PSoC4/RTC_1.h **** #define RTC_1_INITIAL_DST_START_DOM   (22uL)
 157:Generated_Source\PSoC4/RTC_1.h **** #define RTC_1_INITIAL_DST_START_DOW   (1uL)
 158:Generated_Source\PSoC4/RTC_1.h **** #define RTC_1_INITIAL_DST_START_HRS   (0uL)
 159:Generated_Source\PSoC4/RTC_1.h **** #define RTC_1_INITIAL_DST_STOP_MONTH  (10uL)
 160:Generated_Source\PSoC4/RTC_1.h **** #define RTC_1_INITIAL_DST_STOP_DOM    (22uL)
 161:Generated_Source\PSoC4/RTC_1.h **** #define RTC_1_INITIAL_DST_STOP_DOW    (1uL)
 162:Generated_Source\PSoC4/RTC_1.h **** #define RTC_1_INITIAL_DST_STOP_WOM    (6uL)
 163:Generated_Source\PSoC4/RTC_1.h **** #define RTC_1_INITIAL_DST_STOP_HRS    (0uL)
 164:Generated_Source\PSoC4/RTC_1.h **** 
 165:Generated_Source\PSoC4/RTC_1.h **** /* Day of week definitions */
 166:Generated_Source\PSoC4/RTC_1.h **** #define RTC_1_SUNDAY     (RTC_1__SUNDAY)
 167:Generated_Source\PSoC4/RTC_1.h **** #define RTC_1_MONDAY     (RTC_1__MONDAY)
 168:Generated_Source\PSoC4/RTC_1.h **** #define RTC_1_TUESDAY    (RTC_1__TUESDAY)
 169:Generated_Source\PSoC4/RTC_1.h **** #define RTC_1_WEDNESDAY  (RTC_1__WEDNESDAY)
 170:Generated_Source\PSoC4/RTC_1.h **** #define RTC_1_THURSDAY   (RTC_1__THURSDAY)
 171:Generated_Source\PSoC4/RTC_1.h **** #define RTC_1_FRIDAY     (RTC_1__FRIDAY)
 172:Generated_Source\PSoC4/RTC_1.h **** #define RTC_1_SATURDAY   (RTC_1__SATURDAY)
 173:Generated_Source\PSoC4/RTC_1.h **** 
 174:Generated_Source\PSoC4/RTC_1.h **** /* DST WeekOfMonth setting constants definitions */
 175:Generated_Source\PSoC4/RTC_1.h **** #define RTC_1_FIRST      (RTC_1__FIRST)
 176:Generated_Source\PSoC4/RTC_1.h **** #define RTC_1_SECOND     (RTC_1__SECOND)
 177:Generated_Source\PSoC4/RTC_1.h **** #define RTC_1_THIRD      (RTC_1__THIRD)
 178:Generated_Source\PSoC4/RTC_1.h **** #define RTC_1_FOURTH     (RTC_1__FOURTH)
 179:Generated_Source\PSoC4/RTC_1.h **** #define RTC_1_FIFTH      (RTC_1__FIFTH)
 180:Generated_Source\PSoC4/RTC_1.h **** #define RTC_1_LAST       (RTC_1__LAST)
 181:Generated_Source\PSoC4/RTC_1.h **** 
 182:Generated_Source\PSoC4/RTC_1.h **** /* Month definitions */
 183:Generated_Source\PSoC4/RTC_1.h **** #define RTC_1_JANUARY    (RTC_1__JAN)
 184:Generated_Source\PSoC4/RTC_1.h **** #define RTC_1_FEBRUARY   (RTC_1__FEB)
 185:Generated_Source\PSoC4/RTC_1.h **** #define RTC_1_MARCH      (RTC_1__MAR)
 186:Generated_Source\PSoC4/RTC_1.h **** #define RTC_1_APRIL      (RTC_1__APR)
 187:Generated_Source\PSoC4/RTC_1.h **** #define RTC_1_MAY        (RTC_1__MAY)
 188:Generated_Source\PSoC4/RTC_1.h **** #define RTC_1_JUNE       (RTC_1__JUN)
 189:Generated_Source\PSoC4/RTC_1.h **** #define RTC_1_JULY       (RTC_1__JUL)
 190:Generated_Source\PSoC4/RTC_1.h **** #define RTC_1_AUGUST     (RTC_1__AUG)
 191:Generated_Source\PSoC4/RTC_1.h **** #define RTC_1_SEPTEMBER  (RTC_1__SEP)
 192:Generated_Source\PSoC4/RTC_1.h **** #define RTC_1_OCTOBER    (RTC_1__OCT)
 193:Generated_Source\PSoC4/RTC_1.h **** #define RTC_1_NOVEMBER   (RTC_1__NOV)
 194:Generated_Source\PSoC4/RTC_1.h **** #define RTC_1_DECEMBER   (RTC_1__DEC)
 195:Generated_Source\PSoC4/RTC_1.h **** 
 196:Generated_Source\PSoC4/RTC_1.h **** #define RTC_1_DAYS_PER_WEEK       (7u)
 197:Generated_Source\PSoC4/RTC_1.h **** 
 198:Generated_Source\PSoC4/RTC_1.h **** /* Number of days in month definitions */
 199:Generated_Source\PSoC4/RTC_1.h **** #define RTC_1_DAYS_IN_JANUARY     (31u)
 200:Generated_Source\PSoC4/RTC_1.h **** #define RTC_1_DAYS_IN_FEBRUARY    (28u)
 201:Generated_Source\PSoC4/RTC_1.h **** #define RTC_1_DAYS_IN_MARCH       (31u)
 202:Generated_Source\PSoC4/RTC_1.h **** #define RTC_1_DAYS_IN_APRIL       (30u)
ARM GAS  C:\Users\7709\AppData\Local\Temp\ccYsxBBo.s 			page 5


 203:Generated_Source\PSoC4/RTC_1.h **** #define RTC_1_DAYS_IN_MAY         (31u)
 204:Generated_Source\PSoC4/RTC_1.h **** #define RTC_1_DAYS_IN_JUNE        (30u)
 205:Generated_Source\PSoC4/RTC_1.h **** #define RTC_1_DAYS_IN_JULY        (31u)
 206:Generated_Source\PSoC4/RTC_1.h **** #define RTC_1_DAYS_IN_AUGUST      (31u)
 207:Generated_Source\PSoC4/RTC_1.h **** #define RTC_1_DAYS_IN_SEPTEMBER   (30u)
 208:Generated_Source\PSoC4/RTC_1.h **** #define RTC_1_DAYS_IN_OCTOBER     (31u)
 209:Generated_Source\PSoC4/RTC_1.h **** #define RTC_1_DAYS_IN_NOVEMBER    (30u)
 210:Generated_Source\PSoC4/RTC_1.h **** #define RTC_1_DAYS_IN_DECEMBER    (31u)
 211:Generated_Source\PSoC4/RTC_1.h **** 
 212:Generated_Source\PSoC4/RTC_1.h **** #define RTC_1_MONTHS_PER_YEAR     (12uL)
 213:Generated_Source\PSoC4/RTC_1.h **** 
 214:Generated_Source\PSoC4/RTC_1.h **** #define RTC_1_HOURS_PER_DAY       (24uL)
 215:Generated_Source\PSoC4/RTC_1.h **** #define RTC_1_HOURS_PER_HALF_DAY  (12uL)
 216:Generated_Source\PSoC4/RTC_1.h **** 
 217:Generated_Source\PSoC4/RTC_1.h **** #define RTC_1_SECONDS_PER_MINUTE  (60uL)
 218:Generated_Source\PSoC4/RTC_1.h **** #define RTC_1_SECONDS_PER_HOUR    (3600uL)
 219:Generated_Source\PSoC4/RTC_1.h **** #define RTC_1_SECONDS_PER_DAY     (24uL * 3600uL)
 220:Generated_Source\PSoC4/RTC_1.h **** 
 221:Generated_Source\PSoC4/RTC_1.h **** #define RTC_1_SECONDS_PER_LEAP_YEAR    (366uL * 24uL * 3600uL)
 222:Generated_Source\PSoC4/RTC_1.h **** #define RTC_1_SECONDS_PER_NONLEAP_YEAR (365uL * 24uL * 3600uL)
 223:Generated_Source\PSoC4/RTC_1.h **** 
 224:Generated_Source\PSoC4/RTC_1.h **** #define RTC_1_UNIX_TIME_PM   ((12uL * 3600uL) + 1uL)
 225:Generated_Source\PSoC4/RTC_1.h **** 
 226:Generated_Source\PSoC4/RTC_1.h **** /* AM/PM status definitions */
 227:Generated_Source\PSoC4/RTC_1.h **** #define RTC_1_AM                 (0u)
 228:Generated_Source\PSoC4/RTC_1.h **** #define RTC_1_PM                 (1u)
 229:Generated_Source\PSoC4/RTC_1.h **** 
 230:Generated_Source\PSoC4/RTC_1.h **** /* Time format definitions */
 231:Generated_Source\PSoC4/RTC_1.h **** #define RTC_1_12_HOURS_FORMAT    (RTC_1__HOUR_12)
 232:Generated_Source\PSoC4/RTC_1.h **** #define RTC_1_24_HOURS_FORMAT    (RTC_1__HOUR_24)
 233:Generated_Source\PSoC4/RTC_1.h **** 
 234:Generated_Source\PSoC4/RTC_1.h **** /* UNIX time begins in 1970 year.  */
 235:Generated_Source\PSoC4/RTC_1.h **** #define RTC_1_YEAR_0             (1970u)
 236:Generated_Source\PSoC4/RTC_1.h **** 
 237:Generated_Source\PSoC4/RTC_1.h **** /* Definition of date register fields */
 238:Generated_Source\PSoC4/RTC_1.h **** #if(RTC_1_INITIAL_DATA_FORMAT == RTC_1__MM_DD_YYYY)
 239:Generated_Source\PSoC4/RTC_1.h ****     #define RTC_1_10_MONTH_OFFSET   (28u)
 240:Generated_Source\PSoC4/RTC_1.h ****     #define RTC_1_MONTH_OFFSET      (24u)
 241:Generated_Source\PSoC4/RTC_1.h ****     #define RTC_1_10_DAY_OFFSET     (20u)
 242:Generated_Source\PSoC4/RTC_1.h ****     #define RTC_1_DAY_OFFSET        (16u)
 243:Generated_Source\PSoC4/RTC_1.h ****     #define RTC_1_1000_YEAR_OFFSET  (12u)
 244:Generated_Source\PSoC4/RTC_1.h ****     #define RTC_1_100_YEAR_OFFSET   (8u)
 245:Generated_Source\PSoC4/RTC_1.h ****     #define RTC_1_10_YEAR_OFFSET    (4u)
 246:Generated_Source\PSoC4/RTC_1.h ****     #define RTC_1_YEAR_OFFSET       (0u)
 247:Generated_Source\PSoC4/RTC_1.h **** #elif(RTC_1_INITIAL_DATA_FORMAT == RTC_1__DD_MM_YYYY)
 248:Generated_Source\PSoC4/RTC_1.h ****     #define RTC_1_10_MONTH_OFFSET   (20u)
 249:Generated_Source\PSoC4/RTC_1.h ****     #define RTC_1_MONTH_OFFSET      (16u)
 250:Generated_Source\PSoC4/RTC_1.h ****     #define RTC_1_10_DAY_OFFSET     (28u)
 251:Generated_Source\PSoC4/RTC_1.h ****     #define RTC_1_DAY_OFFSET        (24u)
 252:Generated_Source\PSoC4/RTC_1.h ****     #define RTC_1_1000_YEAR_OFFSET  (12u)
 253:Generated_Source\PSoC4/RTC_1.h ****     #define RTC_1_100_YEAR_OFFSET   (8u)
 254:Generated_Source\PSoC4/RTC_1.h ****     #define RTC_1_10_YEAR_OFFSET    (4u)
 255:Generated_Source\PSoC4/RTC_1.h ****     #define RTC_1_YEAR_OFFSET       (0u)
 256:Generated_Source\PSoC4/RTC_1.h **** #else
 257:Generated_Source\PSoC4/RTC_1.h ****     #define RTC_1_10_MONTH_OFFSET   (12u)
 258:Generated_Source\PSoC4/RTC_1.h ****     #define RTC_1_MONTH_OFFSET      (8u)
 259:Generated_Source\PSoC4/RTC_1.h ****     #define RTC_1_10_DAY_OFFSET     (4u)
ARM GAS  C:\Users\7709\AppData\Local\Temp\ccYsxBBo.s 			page 6


 260:Generated_Source\PSoC4/RTC_1.h ****     #define RTC_1_DAY_OFFSET        (0u)
 261:Generated_Source\PSoC4/RTC_1.h ****     #define RTC_1_1000_YEAR_OFFSET  (28u)
 262:Generated_Source\PSoC4/RTC_1.h ****     #define RTC_1_100_YEAR_OFFSET   (24u)
 263:Generated_Source\PSoC4/RTC_1.h ****     #define RTC_1_10_YEAR_OFFSET    (20u)
 264:Generated_Source\PSoC4/RTC_1.h ****     #define RTC_1_YEAR_OFFSET       (16u)
 265:Generated_Source\PSoC4/RTC_1.h **** #endif /* (RTC_1_INITIAL_DATA_FORMAT == RTC_1__MM_DD_YYYY) */
 266:Generated_Source\PSoC4/RTC_1.h **** 
 267:Generated_Source\PSoC4/RTC_1.h **** #define RTC_1_10_MONTH_MASK          (0x00000001uL << RTC_1_10_MONTH_OFFSET)
 268:Generated_Source\PSoC4/RTC_1.h **** #define RTC_1_MONTH_MASK             (0x0000000FuL << RTC_1_MONTH_OFFSET)
 269:Generated_Source\PSoC4/RTC_1.h **** #define RTC_1_10_DAY_MASK            (0x00000003uL << RTC_1_10_DAY_OFFSET)
 270:Generated_Source\PSoC4/RTC_1.h **** #define RTC_1_DAY_MASK               (0x0000000FuL << RTC_1_DAY_OFFSET)
 271:Generated_Source\PSoC4/RTC_1.h **** #define RTC_1_1000_YEAR_MASK         (0x00000003uL << RTC_1_1000_YEAR_OFFSET)
 272:Generated_Source\PSoC4/RTC_1.h **** #define RTC_1_100_YEAR_MASK          (0x0000000FuL << RTC_1_100_YEAR_OFFSET)
 273:Generated_Source\PSoC4/RTC_1.h **** #define RTC_1_10_YEAR_MASK           (0x0000000FuL << RTC_1_10_YEAR_OFFSET)
 274:Generated_Source\PSoC4/RTC_1.h **** #define RTC_1_YEAR_MASK              (0x0000000FuL << RTC_1_YEAR_OFFSET)
 275:Generated_Source\PSoC4/RTC_1.h **** 
 276:Generated_Source\PSoC4/RTC_1.h **** #define  RTC_1_MONTH_FULL_MASK       (RTC_1_10_MONTH_MASK  | RTC_1_MONTH_MASK)
 277:Generated_Source\PSoC4/RTC_1.h **** #define  RTC_1_DAY_FULL_MASK         (RTC_1_10_DAY_MASK    | RTC_1_DAY_MASK)
 278:Generated_Source\PSoC4/RTC_1.h **** #define  RTC_1_YEAR_FULL_MASK        (RTC_1_1000_YEAR_MASK | RTC_1_100_YEAR_MASK |\
 279:Generated_Source\PSoC4/RTC_1.h ****                                                  RTC_1_10_YEAR_MASK   | RTC_1_YEAR_MASK)
 280:Generated_Source\PSoC4/RTC_1.h **** 
 281:Generated_Source\PSoC4/RTC_1.h **** 
 282:Generated_Source\PSoC4/RTC_1.h **** /* Definition of time register fields */
 283:Generated_Source\PSoC4/RTC_1.h **** #define RTC_1_TIME_FORMAT_OFFSET     (23u)
 284:Generated_Source\PSoC4/RTC_1.h **** #define RTC_1_PERIOD_OF_DAY_OFFSET   (22u)
 285:Generated_Source\PSoC4/RTC_1.h **** #define RTC_1_10_HOURS_OFFSET        (20u)
 286:Generated_Source\PSoC4/RTC_1.h **** #define RTC_1_HOURS_OFFSET           (16u)
 287:Generated_Source\PSoC4/RTC_1.h **** #define RTC_1_10_MINUTES_OFFSET      (12u)
 288:Generated_Source\PSoC4/RTC_1.h **** #define RTC_1_MINUTES_OFFSET         (8u)
 289:Generated_Source\PSoC4/RTC_1.h **** #define RTC_1_10_SECONDS_OFFSET      (4u)
 290:Generated_Source\PSoC4/RTC_1.h **** #define RTC_1_SECONDS_OFFSET         (0u)
 291:Generated_Source\PSoC4/RTC_1.h **** 
 292:Generated_Source\PSoC4/RTC_1.h **** #define RTC_1_TIME_FORMAT_MASK       (0x00000001uL << RTC_1_TIME_FORMAT_OFFSET)
 293:Generated_Source\PSoC4/RTC_1.h **** #define RTC_1_PERIOD_OF_DAY_MASK     (0x00000001uL << RTC_1_PERIOD_OF_DAY_OFFSET)
 294:Generated_Source\PSoC4/RTC_1.h **** #define RTC_1_10_HOURS_MASK          (0x00000003uL << RTC_1_10_HOURS_OFFSET)
 295:Generated_Source\PSoC4/RTC_1.h **** #define RTC_1_HOURS_MASK             (0x0000000FuL << RTC_1_HOURS_OFFSET)
 296:Generated_Source\PSoC4/RTC_1.h **** #define RTC_1_10_MINUTES_MASK        (0x00000007uL << RTC_1_10_MINUTES_OFFSET)
 297:Generated_Source\PSoC4/RTC_1.h **** #define RTC_1_MINUTES_MASK           (0x0000000FuL << RTC_1_MINUTES_OFFSET)
 298:Generated_Source\PSoC4/RTC_1.h **** #define RTC_1_10_SECONDS_MASK        (0x00000007uL << RTC_1_10_SECONDS_OFFSET)
 299:Generated_Source\PSoC4/RTC_1.h **** #define RTC_1_SECONDS_MASK           (0x0000000FuL << RTC_1_SECONDS_OFFSET)
 300:Generated_Source\PSoC4/RTC_1.h **** 
 301:Generated_Source\PSoC4/RTC_1.h **** #define RTC_1_HOURS_FULL_MASK        (RTC_1_10_HOURS_MASK   | RTC_1_HOURS_MASK)
 302:Generated_Source\PSoC4/RTC_1.h **** #define RTC_1_MINUTES_FULL_MASK      (RTC_1_10_MINUTES_MASK | RTC_1_MINUTES_MASK)
 303:Generated_Source\PSoC4/RTC_1.h **** #define RTC_1_SECONDS_FULL_MASK      (RTC_1_10_SECONDS_MASK | RTC_1_SECONDS_MASK)
 304:Generated_Source\PSoC4/RTC_1.h **** 
 305:Generated_Source\PSoC4/RTC_1.h **** #define RTC_1_ALARM_SEC_MASK         (0x00000001uL)
 306:Generated_Source\PSoC4/RTC_1.h **** #define RTC_1_ALARM_MIN_MASK         (0x00000002uL)
 307:Generated_Source\PSoC4/RTC_1.h **** #define RTC_1_ALARM_HOUR_MASK        (0x00000004uL)
 308:Generated_Source\PSoC4/RTC_1.h **** #define RTC_1_ALARM_DAYOFWEEK_MASK   (0x00000008uL)
 309:Generated_Source\PSoC4/RTC_1.h **** #define RTC_1_ALARM_DAYOFMONTH_MASK  (0x00000010uL)
 310:Generated_Source\PSoC4/RTC_1.h **** #define RTC_1_ALARM_MONTH_MASK       (0x00000020uL)
 311:Generated_Source\PSoC4/RTC_1.h **** #define RTC_1_ALARM_YEAR_MASK        (0x00000040uL)
 312:Generated_Source\PSoC4/RTC_1.h **** 
 313:Generated_Source\PSoC4/RTC_1.h **** #define RTC_1_STATUS_DST_OFFSET      (1u)
 314:Generated_Source\PSoC4/RTC_1.h **** #define RTC_1_STATUS_ALARM_OFFSET    (2u)
 315:Generated_Source\PSoC4/RTC_1.h **** #define RTC_1_STATUS_LY_OFFSET       (3u)
 316:Generated_Source\PSoC4/RTC_1.h **** #define RTC_1_STATUS_AM_PM_OFFSET    (4u)
ARM GAS  C:\Users\7709\AppData\Local\Temp\ccYsxBBo.s 			page 7


 317:Generated_Source\PSoC4/RTC_1.h **** 
 318:Generated_Source\PSoC4/RTC_1.h **** /* Definition of the RTC status values. */
 319:Generated_Source\PSoC4/RTC_1.h **** #define RTC_1_STATUS_DST             (1uL << RTC_1_STATUS_DST_OFFSET)
 320:Generated_Source\PSoC4/RTC_1.h **** #define RTC_1_STATUS_LY              (1uL << RTC_1_STATUS_LY_OFFSET)
 321:Generated_Source\PSoC4/RTC_1.h **** #define RTC_1_STATUS_AM_PM           (1uL << RTC_1_STATUS_AM_PM_OFFSET)
 322:Generated_Source\PSoC4/RTC_1.h **** 
 323:Generated_Source\PSoC4/RTC_1.h **** /* Number of bits per one BCD digit. */
 324:Generated_Source\PSoC4/RTC_1.h **** #define RTC_1_BCD_NUMBER_SIZE        (4u)
 325:Generated_Source\PSoC4/RTC_1.h **** #define RTC_1_BCD_ONE_DIGIT_MASK     (0x0000000FuL)
 326:Generated_Source\PSoC4/RTC_1.h **** 
 327:Generated_Source\PSoC4/RTC_1.h **** /*******************************************************************************
 328:Generated_Source\PSoC4/RTC_1.h **** *    Function Prototypes
 329:Generated_Source\PSoC4/RTC_1.h **** *******************************************************************************/
 330:Generated_Source\PSoC4/RTC_1.h **** /**
 331:Generated_Source\PSoC4/RTC_1.h **** * \addtogroup group_api
 332:Generated_Source\PSoC4/RTC_1.h **** * @{
 333:Generated_Source\PSoC4/RTC_1.h **** */
 334:Generated_Source\PSoC4/RTC_1.h **** void   RTC_1_Start(void);
 335:Generated_Source\PSoC4/RTC_1.h **** void   RTC_1_Stop(void);
 336:Generated_Source\PSoC4/RTC_1.h **** void   RTC_1_Init(void);
 337:Generated_Source\PSoC4/RTC_1.h **** void   RTC_1_SetUnixTime(uint64 unixTime);
 338:Generated_Source\PSoC4/RTC_1.h **** uint64 RTC_1_GetUnixTime(void);
 339:Generated_Source\PSoC4/RTC_1.h **** void   RTC_1_SetPeriod(uint32 ticks, uint32 refOneSecTicks);
 340:Generated_Source\PSoC4/RTC_1.h **** uint32 RTC_1_GetPeriod(void);
 341:Generated_Source\PSoC4/RTC_1.h **** uint32 RTC_1_GetRefOneSec(void);
 342:Generated_Source\PSoC4/RTC_1.h **** void   RTC_1_SetDateAndTime(uint32 inputTime, uint32 inputDate);
 343:Generated_Source\PSoC4/RTC_1.h **** void   RTC_1_GetDateAndTime(RTC_1_DATE_TIME* dateTime);
 344:Generated_Source\PSoC4/RTC_1.h **** uint32 RTC_1_GetTime(void);
 345:Generated_Source\PSoC4/RTC_1.h **** uint32 RTC_1_GetDate(void);
 346:Generated_Source\PSoC4/RTC_1.h **** void   RTC_1_SetAlarmDateAndTime(const RTC_1_DATE_TIME* alarmTime);
 347:Generated_Source\PSoC4/RTC_1.h **** void   RTC_1_GetAlarmDateAndTime(RTC_1_DATE_TIME* alarmTimeDate);
 348:Generated_Source\PSoC4/RTC_1.h **** void   RTC_1_SetAlarmMask(uint32 mask);
 349:Generated_Source\PSoC4/RTC_1.h **** uint32 RTC_1_GetAlarmMask(void);
 350:Generated_Source\PSoC4/RTC_1.h **** uint32 RTC_1_ReadStatus(void);
 351:Generated_Source\PSoC4/RTC_1.h **** uint32 RTC_1_GetAlarmStatus(void);
 352:Generated_Source\PSoC4/RTC_1.h **** void   RTC_1_ClearAlarmStatus(void);
 353:Generated_Source\PSoC4/RTC_1.h **** void   RTC_1_SetDSTStartTime(const RTC_1_DST_TIME* dstStartTime,
 354:Generated_Source\PSoC4/RTC_1.h ****                                               RTC_1_DST_DATETYPE_ENUM type);
 355:Generated_Source\PSoC4/RTC_1.h **** void   RTC_1_SetDSTStopTime(const RTC_1_DST_TIME* dstStopTime,
 356:Generated_Source\PSoC4/RTC_1.h ****                                              RTC_1_DST_DATETYPE_ENUM type);
 357:Generated_Source\PSoC4/RTC_1.h **** uint32 RTC_1_ConvertBCDToDec(uint32 bcdNum);
 358:Generated_Source\PSoC4/RTC_1.h **** uint32 RTC_1_ConvertDecToBCD(uint32 decNum);
 359:Generated_Source\PSoC4/RTC_1.h **** void   RTC_1_Update(void);
 360:Generated_Source\PSoC4/RTC_1.h **** void*  RTC_1_SetAlarmHandler(void (*CallbackFunction)(void));
 361:Generated_Source\PSoC4/RTC_1.h **** 
 362:Generated_Source\PSoC4/RTC_1.h **** static uint32 RTC_1_ConstructDate(uint32 month, uint32 day, uint32 year);
 363:Generated_Source\PSoC4/RTC_1.h **** static uint32 RTC_1_ConstructTime(uint32 timeFormat, uint32 stateAmPm, uint32 hour, uint32 min, uin
 364:Generated_Source\PSoC4/RTC_1.h **** /** @} api */
 365:Generated_Source\PSoC4/RTC_1.h **** 
 366:Generated_Source\PSoC4/RTC_1.h **** static uint32 RTC_1_GetTimeFormat(uint32 inputTime);
 367:Generated_Source\PSoC4/RTC_1.h **** static uint32 RTC_1_SetTimeFormat(uint32 inputTime, uint32 timeFormat);
 368:Generated_Source\PSoC4/RTC_1.h **** 
 369:Generated_Source\PSoC4/RTC_1.h **** /**
 370:Generated_Source\PSoC4/RTC_1.h **** * \addtogroup group_api
 371:Generated_Source\PSoC4/RTC_1.h **** * @{
 372:Generated_Source\PSoC4/RTC_1.h **** */
 373:Generated_Source\PSoC4/RTC_1.h **** static uint32 RTC_1_LeapYear(uint32 year);
ARM GAS  C:\Users\7709\AppData\Local\Temp\ccYsxBBo.s 			page 8


 374:Generated_Source\PSoC4/RTC_1.h **** static uint32 RTC_1_IsBitSet(uint32 var, uint32 mask);
 375:Generated_Source\PSoC4/RTC_1.h **** static uint32 RTC_1_GetSecond(uint32 inputTime);
 376:Generated_Source\PSoC4/RTC_1.h **** static uint32 RTC_1_GetMinutes(uint32 inputTime);
 377:Generated_Source\PSoC4/RTC_1.h **** static uint32 RTC_1_GetHours(uint32 inputTime);
 378:Generated_Source\PSoC4/RTC_1.h **** static uint32 RTC_1_GetAmPm(uint32 inputTime);
 379:Generated_Source\PSoC4/RTC_1.h **** static uint32 RTC_1_GetDay(uint32 date);
 380:Generated_Source\PSoC4/RTC_1.h **** static uint32 RTC_1_GetMonth(uint32 date);
 381:Generated_Source\PSoC4/RTC_1.h **** static uint32 RTC_1_GetYear(uint32 date);
 382:Generated_Source\PSoC4/RTC_1.h **** /** @} api */
 383:Generated_Source\PSoC4/RTC_1.h **** 
 384:Generated_Source\PSoC4/RTC_1.h **** static uint32 RTC_1_SetSecond(uint32 inputTime, uint32 inputSecond);
 385:Generated_Source\PSoC4/RTC_1.h **** static uint32 RTC_1_SetMinutes(uint32 inputTime, uint32 inputMinute);
 386:Generated_Source\PSoC4/RTC_1.h **** static uint32 RTC_1_SetHours(uint32 inputTime, uint32 inputHours);
 387:Generated_Source\PSoC4/RTC_1.h **** static uint32 RTC_1_SetAmPm(uint32 inputTime, uint32 periodOfDay);
 388:Generated_Source\PSoC4/RTC_1.h **** static uint32 RTC_1_SetDay(uint32 inputDate, uint32 inputDay);
 389:Generated_Source\PSoC4/RTC_1.h **** static uint32 RTC_1_SetMonth(uint32 inputDate, uint32 inputMonth);
 390:Generated_Source\PSoC4/RTC_1.h **** static uint32 RTC_1_SetYear(uint32 inputDate, uint32 inputYear);
 391:Generated_Source\PSoC4/RTC_1.h **** 
 392:Generated_Source\PSoC4/RTC_1.h **** uint64 RTC_1_ConstructUnixAlarmTime(const RTC_1_DATE_TIME* alarmTime, uint8 alarmCfgMask);
 393:Generated_Source\PSoC4/RTC_1.h **** uint64 RTC_1_GetDstUnixTime(const RTC_1_DST_TIME* dstTime);
 394:Generated_Source\PSoC4/RTC_1.h **** uint64 RTC_1_GetNexAlarmTime(uint64 curUnixTime, uint8 alarmCfgMask);
 395:Generated_Source\PSoC4/RTC_1.h **** 
 396:Generated_Source\PSoC4/RTC_1.h **** static uint32 RTC_1_GetNextMinSec(uint32 curVal);
 397:Generated_Source\PSoC4/RTC_1.h **** static uint32 RTC_1_GetNextHour(uint32 curVal);
 398:Generated_Source\PSoC4/RTC_1.h **** static uint32 RTC_1_GetNextDay(uint32 curYear, uint32 curMonth, uint32 curDay, uint32 alarmCfgMask)
 399:Generated_Source\PSoC4/RTC_1.h **** static uint32 RTC_1_GetNextMonth(uint32 curMonth);
 400:Generated_Source\PSoC4/RTC_1.h **** static uint32 RTC_1_GetNextYear(uint32 curYear);
 401:Generated_Source\PSoC4/RTC_1.h **** static uint32 RTC_1_GetDayOfWeek(uint32 day, uint32 month, uint32 year);
 402:Generated_Source\PSoC4/RTC_1.h **** 
 403:Generated_Source\PSoC4/RTC_1.h **** uint32 RTC_1_DaysInMonth(uint32 month, uint32 year);
 404:Generated_Source\PSoC4/RTC_1.h **** uint32 RTC_1_DaysBeforeMonth(uint32 month, uint32 year);
 405:Generated_Source\PSoC4/RTC_1.h **** 
 406:Generated_Source\PSoC4/RTC_1.h **** /**
 407:Generated_Source\PSoC4/RTC_1.h **** * \addtogroup group_api
 408:Generated_Source\PSoC4/RTC_1.h **** * @{
 409:Generated_Source\PSoC4/RTC_1.h **** */
 410:Generated_Source\PSoC4/RTC_1.h **** void   RTC_1_UnixToDateTime(RTC_1_DATE_TIME* dateTime, uint64 unixTime, uint32 timeFormat);
 411:Generated_Source\PSoC4/RTC_1.h **** uint64 RTC_1_DateTimeToUnix(uint32 inputDate, uint32 inputTime);
 412:Generated_Source\PSoC4/RTC_1.h **** /** @} api */
 413:Generated_Source\PSoC4/RTC_1.h **** 
 414:Generated_Source\PSoC4/RTC_1.h **** uint32 RTC_1_RelativeToFixed(uint32 dayOfWeek, uint32 weekOfMonth, uint32 month, uint32 year);
 415:Generated_Source\PSoC4/RTC_1.h **** 
 416:Generated_Source\PSoC4/RTC_1.h **** 
 417:Generated_Source\PSoC4/RTC_1.h **** #if defined(CYDEV_RTC_SOURCE_WDT)
 418:Generated_Source\PSoC4/RTC_1.h ****     #if((0u != CYDEV_WDT_GENERATE_ISR) && (0u == RTC_1_INITIAL_UPDATE_MODE))
 419:Generated_Source\PSoC4/RTC_1.h ****         static void RTC_1_CySysRtcSetCallback(uint32 wdtNumber);
 420:Generated_Source\PSoC4/RTC_1.h ****         static void RTC_1_CySysRtcResetCallback(uint32 wdtNumber);
 421:Generated_Source\PSoC4/RTC_1.h ****     #endif /* ((0u != CYDEV_WDT_GENERATE_ISR) && (0u == RTC_1_INITIAL_UPDATE_MODE)) */
 422:Generated_Source\PSoC4/RTC_1.h **** #endif /* (CYDEV_RTC_SOURCE_WDT) */
 423:Generated_Source\PSoC4/RTC_1.h **** 
 424:Generated_Source\PSoC4/RTC_1.h **** /*******************************************************************************
 425:Generated_Source\PSoC4/RTC_1.h **** * Function Name: RTC_1_IsBitSet
 426:Generated_Source\PSoC4/RTC_1.h **** ****************************************************************************//**
 427:Generated_Source\PSoC4/RTC_1.h **** *
 428:Generated_Source\PSoC4/RTC_1.h **** * \brief
 429:Generated_Source\PSoC4/RTC_1.h **** *  Checks the state of a bit passed through parameter.
 430:Generated_Source\PSoC4/RTC_1.h **** *
ARM GAS  C:\Users\7709\AppData\Local\Temp\ccYsxBBo.s 			page 9


 431:Generated_Source\PSoC4/RTC_1.h **** * \param
 432:Generated_Source\PSoC4/RTC_1.h **** *  var The variable to be checked.
 433:Generated_Source\PSoC4/RTC_1.h **** * \param
 434:Generated_Source\PSoC4/RTC_1.h **** *  mask The mask for a bit to be checked.
 435:Generated_Source\PSoC4/RTC_1.h **** *
 436:Generated_Source\PSoC4/RTC_1.h **** * \return
 437:Generated_Source\PSoC4/RTC_1.h **** *  0u - Bit is not set.
 438:Generated_Source\PSoC4/RTC_1.h **** * \return
 439:Generated_Source\PSoC4/RTC_1.h **** *  1u - Bit is set.
 440:Generated_Source\PSoC4/RTC_1.h **** *
 441:Generated_Source\PSoC4/RTC_1.h **** *******************************************************************************/
 442:Generated_Source\PSoC4/RTC_1.h **** static CY_INLINE uint32 RTC_1_IsBitSet(uint32 var, uint32 mask)
 443:Generated_Source\PSoC4/RTC_1.h **** {
  27              		.loc 1 443 0
  28              		.cfi_startproc
  29              		@ args = 0, pretend = 0, frame = 8
  30              		@ frame_needed = 1, uses_anonymous_args = 0
  31 0000 80B5     		push	{r7, lr}
  32              		.cfi_def_cfa_offset 8
  33              		.cfi_offset 7, -8
  34              		.cfi_offset 14, -4
  35 0002 82B0     		sub	sp, sp, #8
  36              		.cfi_def_cfa_offset 16
  37 0004 00AF     		add	r7, sp, #0
  38              		.cfi_def_cfa_register 7
  39 0006 7860     		str	r0, [r7, #4]
  40 0008 3960     		str	r1, [r7]
 444:Generated_Source\PSoC4/RTC_1.h ****     return ((mask == (var & mask)) ? 1Lu : 0Lu);
  41              		.loc 1 444 0
  42 000a 7B68     		ldr	r3, [r7, #4]
  43 000c 3A68     		ldr	r2, [r7]
  44 000e 1A40     		ands	r2, r3
  45 0010 3B68     		ldr	r3, [r7]
  46 0012 9A42     		cmp	r2, r3
  47 0014 01D1     		bne	.L2
  48              		.loc 1 444 0 is_stmt 0 discriminator 1
  49 0016 0123     		movs	r3, #1
  50 0018 00E0     		b	.L4
  51              	.L2:
  52              		.loc 1 444 0 discriminator 2
  53 001a 0023     		movs	r3, #0
  54              	.L4:
 445:Generated_Source\PSoC4/RTC_1.h **** }
  55              		.loc 1 445 0 is_stmt 1 discriminator 5
  56 001c 1800     		movs	r0, r3
  57 001e BD46     		mov	sp, r7
  58 0020 02B0     		add	sp, sp, #8
  59              		@ sp needed
  60 0022 80BD     		pop	{r7, pc}
  61              		.cfi_endproc
  62              	.LFE2:
  63              		.size	RTC_1_IsBitSet, .-RTC_1_IsBitSet
  64              		.global	__aeabi_uidivmod
  65              		.section	.text.RTC_1_LeapYear,"ax",%progbits
  66              		.align	2
  67              		.code	16
  68              		.thumb_func
ARM GAS  C:\Users\7709\AppData\Local\Temp\ccYsxBBo.s 			page 10


  69              		.type	RTC_1_LeapYear, %function
  70              	RTC_1_LeapYear:
  71              	.LFB3:
 446:Generated_Source\PSoC4/RTC_1.h **** 
 447:Generated_Source\PSoC4/RTC_1.h **** 
 448:Generated_Source\PSoC4/RTC_1.h **** /*******************************************************************************
 449:Generated_Source\PSoC4/RTC_1.h **** * Function Name: RTC_1_LeapYear
 450:Generated_Source\PSoC4/RTC_1.h **** ****************************************************************************//**
 451:Generated_Source\PSoC4/RTC_1.h **** *
 452:Generated_Source\PSoC4/RTC_1.h **** * \brief
 453:Generated_Source\PSoC4/RTC_1.h **** * Checks whether the year passed through the parameter is
 454:Generated_Source\PSoC4/RTC_1.h **** * leap or no.
 455:Generated_Source\PSoC4/RTC_1.h **** *
 456:Generated_Source\PSoC4/RTC_1.h **** * \param
 457:Generated_Source\PSoC4/RTC_1.h **** *  year The year to be checked.
 458:Generated_Source\PSoC4/RTC_1.h **** *
 459:Generated_Source\PSoC4/RTC_1.h **** *
 460:Generated_Source\PSoC4/RTC_1.h **** * \return
 461:Generated_Source\PSoC4/RTC_1.h **** *  0u - The year is not leap.
 462:Generated_Source\PSoC4/RTC_1.h **** * \return
 463:Generated_Source\PSoC4/RTC_1.h **** *  1u - The year is leap.
 464:Generated_Source\PSoC4/RTC_1.h **** *
 465:Generated_Source\PSoC4/RTC_1.h **** *******************************************************************************/
 466:Generated_Source\PSoC4/RTC_1.h **** static CY_INLINE uint32 RTC_1_LeapYear(uint32 year)
 467:Generated_Source\PSoC4/RTC_1.h **** {
  72              		.loc 1 467 0
  73              		.cfi_startproc
  74              		@ args = 0, pretend = 0, frame = 16
  75              		@ frame_needed = 1, uses_anonymous_args = 0
  76 0000 80B5     		push	{r7, lr}
  77              		.cfi_def_cfa_offset 8
  78              		.cfi_offset 7, -8
  79              		.cfi_offset 14, -4
  80 0002 84B0     		sub	sp, sp, #16
  81              		.cfi_def_cfa_offset 24
  82 0004 00AF     		add	r7, sp, #0
  83              		.cfi_def_cfa_register 7
  84 0006 7860     		str	r0, [r7, #4]
 468:Generated_Source\PSoC4/RTC_1.h ****     uint32 retVal;
 469:Generated_Source\PSoC4/RTC_1.h **** 
 470:Generated_Source\PSoC4/RTC_1.h ****     if(((0u == (year % 4Lu)) && (0u != (year % 100Lu))) || (0u == (year % 400Lu)))
  85              		.loc 1 470 0
  86 0008 7B68     		ldr	r3, [r7, #4]
  87 000a 0322     		movs	r2, #3
  88 000c 1340     		ands	r3, r2
  89 000e 06D1     		bne	.L6
  90              		.loc 1 470 0 is_stmt 0 discriminator 1
  91 0010 7B68     		ldr	r3, [r7, #4]
  92 0012 6421     		movs	r1, #100
  93 0014 1800     		movs	r0, r3
  94 0016 FFF7FEFF 		bl	__aeabi_uidivmod
  95 001a 0B1E     		subs	r3, r1, #0
  96 001c 07D1     		bne	.L7
  97              	.L6:
  98              		.loc 1 470 0 discriminator 3
  99 001e 7A68     		ldr	r2, [r7, #4]
 100 0020 C823     		movs	r3, #200
ARM GAS  C:\Users\7709\AppData\Local\Temp\ccYsxBBo.s 			page 11


 101 0022 5900     		lsls	r1, r3, #1
 102 0024 1000     		movs	r0, r2
 103 0026 FFF7FEFF 		bl	__aeabi_uidivmod
 104 002a 0B1E     		subs	r3, r1, #0
 105 002c 02D1     		bne	.L8
 106              	.L7:
 471:Generated_Source\PSoC4/RTC_1.h ****     {
 472:Generated_Source\PSoC4/RTC_1.h ****         retVal = 1uL;
 107              		.loc 1 472 0 is_stmt 1
 108 002e 0123     		movs	r3, #1
 109 0030 FB60     		str	r3, [r7, #12]
 110 0032 01E0     		b	.L9
 111              	.L8:
 473:Generated_Source\PSoC4/RTC_1.h ****     }
 474:Generated_Source\PSoC4/RTC_1.h ****     else
 475:Generated_Source\PSoC4/RTC_1.h ****     {
 476:Generated_Source\PSoC4/RTC_1.h ****         retVal = 0uL;
 112              		.loc 1 476 0
 113 0034 0023     		movs	r3, #0
 114 0036 FB60     		str	r3, [r7, #12]
 115              	.L9:
 477:Generated_Source\PSoC4/RTC_1.h ****     }
 478:Generated_Source\PSoC4/RTC_1.h **** 
 479:Generated_Source\PSoC4/RTC_1.h ****     return(retVal);
 116              		.loc 1 479 0
 117 0038 FB68     		ldr	r3, [r7, #12]
 480:Generated_Source\PSoC4/RTC_1.h **** }
 118              		.loc 1 480 0
 119 003a 1800     		movs	r0, r3
 120 003c BD46     		mov	sp, r7
 121 003e 04B0     		add	sp, sp, #16
 122              		@ sp needed
 123 0040 80BD     		pop	{r7, pc}
 124              		.cfi_endproc
 125              	.LFE3:
 126              		.size	RTC_1_LeapYear, .-RTC_1_LeapYear
 127 0042 C046     		.section	.text.RTC_1_GetSecond,"ax",%progbits
 128              		.align	2
 129              		.code	16
 130              		.thumb_func
 131              		.type	RTC_1_GetSecond, %function
 132              	RTC_1_GetSecond:
 133              	.LFB4:
 481:Generated_Source\PSoC4/RTC_1.h **** 
 482:Generated_Source\PSoC4/RTC_1.h **** 
 483:Generated_Source\PSoC4/RTC_1.h **** /*******************************************************************************
 484:Generated_Source\PSoC4/RTC_1.h **** * Function Name: RTC_1_GetSecond
 485:Generated_Source\PSoC4/RTC_1.h **** ****************************************************************************//**
 486:Generated_Source\PSoC4/RTC_1.h **** *
 487:Generated_Source\PSoC4/RTC_1.h **** * \brief
 488:Generated_Source\PSoC4/RTC_1.h **** *  Returns the seconds value from the time value that is passed as a/the parameter.
 489:Generated_Source\PSoC4/RTC_1.h **** *
 490:Generated_Source\PSoC4/RTC_1.h **** * \param
 491:Generated_Source\PSoC4/RTC_1.h **** *  time The time value.
 492:Generated_Source\PSoC4/RTC_1.h **** *
 493:Generated_Source\PSoC4/RTC_1.h **** * \return
 494:Generated_Source\PSoC4/RTC_1.h **** *  The seconds value.
ARM GAS  C:\Users\7709\AppData\Local\Temp\ccYsxBBo.s 			page 12


 495:Generated_Source\PSoC4/RTC_1.h **** *
 496:Generated_Source\PSoC4/RTC_1.h **** *******************************************************************************/
 497:Generated_Source\PSoC4/RTC_1.h **** static CY_INLINE uint32 RTC_1_GetSecond(uint32 inputTime)
 498:Generated_Source\PSoC4/RTC_1.h **** {
 134              		.loc 1 498 0
 135              		.cfi_startproc
 136              		@ args = 0, pretend = 0, frame = 16
 137              		@ frame_needed = 1, uses_anonymous_args = 0
 138 0000 80B5     		push	{r7, lr}
 139              		.cfi_def_cfa_offset 8
 140              		.cfi_offset 7, -8
 141              		.cfi_offset 14, -4
 142 0002 84B0     		sub	sp, sp, #16
 143              		.cfi_def_cfa_offset 24
 144 0004 00AF     		add	r7, sp, #0
 145              		.cfi_def_cfa_register 7
 146 0006 7860     		str	r0, [r7, #4]
 499:Generated_Source\PSoC4/RTC_1.h ****     uint32 retVal;
 500:Generated_Source\PSoC4/RTC_1.h **** 
 501:Generated_Source\PSoC4/RTC_1.h ****     retVal  = ((inputTime & RTC_1_10_SECONDS_MASK) >> RTC_1_10_SECONDS_OFFSET) * 10u;
 147              		.loc 1 501 0
 148 0008 7B68     		ldr	r3, [r7, #4]
 149 000a 1B09     		lsrs	r3, r3, #4
 150 000c 0722     		movs	r2, #7
 151 000e 1A40     		ands	r2, r3
 152 0010 1300     		movs	r3, r2
 153 0012 9B00     		lsls	r3, r3, #2
 154 0014 9B18     		adds	r3, r3, r2
 155 0016 5B00     		lsls	r3, r3, #1
 156 0018 FB60     		str	r3, [r7, #12]
 502:Generated_Source\PSoC4/RTC_1.h ****     retVal += (inputTime & RTC_1_SECONDS_MASK) >> RTC_1_SECONDS_OFFSET;
 157              		.loc 1 502 0
 158 001a 7B68     		ldr	r3, [r7, #4]
 159 001c 0F22     		movs	r2, #15
 160 001e 1340     		ands	r3, r2
 161 0020 FA68     		ldr	r2, [r7, #12]
 162 0022 D318     		adds	r3, r2, r3
 163 0024 FB60     		str	r3, [r7, #12]
 503:Generated_Source\PSoC4/RTC_1.h **** 
 504:Generated_Source\PSoC4/RTC_1.h ****     return (retVal);
 164              		.loc 1 504 0
 165 0026 FB68     		ldr	r3, [r7, #12]
 505:Generated_Source\PSoC4/RTC_1.h **** }
 166              		.loc 1 505 0
 167 0028 1800     		movs	r0, r3
 168 002a BD46     		mov	sp, r7
 169 002c 04B0     		add	sp, sp, #16
 170              		@ sp needed
 171 002e 80BD     		pop	{r7, pc}
 172              		.cfi_endproc
 173              	.LFE4:
 174              		.size	RTC_1_GetSecond, .-RTC_1_GetSecond
 175              		.section	.text.RTC_1_GetMinutes,"ax",%progbits
 176              		.align	2
 177              		.code	16
 178              		.thumb_func
 179              		.type	RTC_1_GetMinutes, %function
ARM GAS  C:\Users\7709\AppData\Local\Temp\ccYsxBBo.s 			page 13


 180              	RTC_1_GetMinutes:
 181              	.LFB5:
 506:Generated_Source\PSoC4/RTC_1.h **** 
 507:Generated_Source\PSoC4/RTC_1.h **** 
 508:Generated_Source\PSoC4/RTC_1.h **** /*******************************************************************************
 509:Generated_Source\PSoC4/RTC_1.h **** * Function Name: RTC_1_GetMinutes
 510:Generated_Source\PSoC4/RTC_1.h **** ****************************************************************************//**
 511:Generated_Source\PSoC4/RTC_1.h **** *
 512:Generated_Source\PSoC4/RTC_1.h **** * \brief
 513:Generated_Source\PSoC4/RTC_1.h **** *  Returns the minutes value from the time value that is passed as a/the 
 514:Generated_Source\PSoC4/RTC_1.h **** * parameter.
 515:Generated_Source\PSoC4/RTC_1.h **** *
 516:Generated_Source\PSoC4/RTC_1.h **** * \param
 517:Generated_Source\PSoC4/RTC_1.h **** *  time The time value.
 518:Generated_Source\PSoC4/RTC_1.h **** *
 519:Generated_Source\PSoC4/RTC_1.h **** * \return
 520:Generated_Source\PSoC4/RTC_1.h **** *  The minutes value.
 521:Generated_Source\PSoC4/RTC_1.h **** *
 522:Generated_Source\PSoC4/RTC_1.h **** *******************************************************************************/
 523:Generated_Source\PSoC4/RTC_1.h **** static CY_INLINE uint32 RTC_1_GetMinutes(uint32 inputTime)
 524:Generated_Source\PSoC4/RTC_1.h **** {
 182              		.loc 1 524 0
 183              		.cfi_startproc
 184              		@ args = 0, pretend = 0, frame = 16
 185              		@ frame_needed = 1, uses_anonymous_args = 0
 186 0000 80B5     		push	{r7, lr}
 187              		.cfi_def_cfa_offset 8
 188              		.cfi_offset 7, -8
 189              		.cfi_offset 14, -4
 190 0002 84B0     		sub	sp, sp, #16
 191              		.cfi_def_cfa_offset 24
 192 0004 00AF     		add	r7, sp, #0
 193              		.cfi_def_cfa_register 7
 194 0006 7860     		str	r0, [r7, #4]
 525:Generated_Source\PSoC4/RTC_1.h ****     uint32 retVal;
 526:Generated_Source\PSoC4/RTC_1.h **** 
 527:Generated_Source\PSoC4/RTC_1.h ****     retVal  = ((inputTime & RTC_1_10_MINUTES_MASK) >> RTC_1_10_MINUTES_OFFSET) * 10u;
 195              		.loc 1 527 0
 196 0008 7B68     		ldr	r3, [r7, #4]
 197 000a 1B0B     		lsrs	r3, r3, #12
 198 000c 0722     		movs	r2, #7
 199 000e 1A40     		ands	r2, r3
 200 0010 1300     		movs	r3, r2
 201 0012 9B00     		lsls	r3, r3, #2
 202 0014 9B18     		adds	r3, r3, r2
 203 0016 5B00     		lsls	r3, r3, #1
 204 0018 FB60     		str	r3, [r7, #12]
 528:Generated_Source\PSoC4/RTC_1.h ****     retVal += (inputTime & RTC_1_MINUTES_MASK) >> RTC_1_MINUTES_OFFSET;
 205              		.loc 1 528 0
 206 001a 7B68     		ldr	r3, [r7, #4]
 207 001c 1B0A     		lsrs	r3, r3, #8
 208 001e 0F22     		movs	r2, #15
 209 0020 1340     		ands	r3, r2
 210 0022 FA68     		ldr	r2, [r7, #12]
 211 0024 D318     		adds	r3, r2, r3
 212 0026 FB60     		str	r3, [r7, #12]
 529:Generated_Source\PSoC4/RTC_1.h **** 
ARM GAS  C:\Users\7709\AppData\Local\Temp\ccYsxBBo.s 			page 14


 530:Generated_Source\PSoC4/RTC_1.h ****     return (retVal);
 213              		.loc 1 530 0
 214 0028 FB68     		ldr	r3, [r7, #12]
 531:Generated_Source\PSoC4/RTC_1.h **** }
 215              		.loc 1 531 0
 216 002a 1800     		movs	r0, r3
 217 002c BD46     		mov	sp, r7
 218 002e 04B0     		add	sp, sp, #16
 219              		@ sp needed
 220 0030 80BD     		pop	{r7, pc}
 221              		.cfi_endproc
 222              	.LFE5:
 223              		.size	RTC_1_GetMinutes, .-RTC_1_GetMinutes
 224 0032 C046     		.section	.text.RTC_1_GetHours,"ax",%progbits
 225              		.align	2
 226              		.code	16
 227              		.thumb_func
 228              		.type	RTC_1_GetHours, %function
 229              	RTC_1_GetHours:
 230              	.LFB6:
 532:Generated_Source\PSoC4/RTC_1.h **** 
 533:Generated_Source\PSoC4/RTC_1.h **** 
 534:Generated_Source\PSoC4/RTC_1.h **** /*******************************************************************************
 535:Generated_Source\PSoC4/RTC_1.h **** * Function Name: RTC_1_GetHours
 536:Generated_Source\PSoC4/RTC_1.h **** ****************************************************************************//**
 537:Generated_Source\PSoC4/RTC_1.h **** *
 538:Generated_Source\PSoC4/RTC_1.h **** * \brief
 539:Generated_Source\PSoC4/RTC_1.h **** *  Returns the hours value from the time value that is passed as a/the parameter.
 540:Generated_Source\PSoC4/RTC_1.h **** *
 541:Generated_Source\PSoC4/RTC_1.h **** * \param
 542:Generated_Source\PSoC4/RTC_1.h **** *  time The time value.
 543:Generated_Source\PSoC4/RTC_1.h **** *
 544:Generated_Source\PSoC4/RTC_1.h **** * \return
 545:Generated_Source\PSoC4/RTC_1.h **** *  The hours value.
 546:Generated_Source\PSoC4/RTC_1.h **** *
 547:Generated_Source\PSoC4/RTC_1.h **** *******************************************************************************/
 548:Generated_Source\PSoC4/RTC_1.h **** static CY_INLINE uint32 RTC_1_GetHours(uint32 inputTime)
 549:Generated_Source\PSoC4/RTC_1.h **** {
 231              		.loc 1 549 0
 232              		.cfi_startproc
 233              		@ args = 0, pretend = 0, frame = 16
 234              		@ frame_needed = 1, uses_anonymous_args = 0
 235 0000 80B5     		push	{r7, lr}
 236              		.cfi_def_cfa_offset 8
 237              		.cfi_offset 7, -8
 238              		.cfi_offset 14, -4
 239 0002 84B0     		sub	sp, sp, #16
 240              		.cfi_def_cfa_offset 24
 241 0004 00AF     		add	r7, sp, #0
 242              		.cfi_def_cfa_register 7
 243 0006 7860     		str	r0, [r7, #4]
 550:Generated_Source\PSoC4/RTC_1.h ****     uint32 retVal;
 551:Generated_Source\PSoC4/RTC_1.h **** 
 552:Generated_Source\PSoC4/RTC_1.h ****     retVal  = ((inputTime & RTC_1_10_HOURS_MASK) >> RTC_1_10_HOURS_OFFSET) * 10u;
 244              		.loc 1 552 0
 245 0008 7B68     		ldr	r3, [r7, #4]
 246 000a 1B0D     		lsrs	r3, r3, #20
ARM GAS  C:\Users\7709\AppData\Local\Temp\ccYsxBBo.s 			page 15


 247 000c 0322     		movs	r2, #3
 248 000e 1A40     		ands	r2, r3
 249 0010 1300     		movs	r3, r2
 250 0012 9B00     		lsls	r3, r3, #2
 251 0014 9B18     		adds	r3, r3, r2
 252 0016 5B00     		lsls	r3, r3, #1
 253 0018 FB60     		str	r3, [r7, #12]
 553:Generated_Source\PSoC4/RTC_1.h ****     retVal += (inputTime & RTC_1_HOURS_MASK) >> RTC_1_HOURS_OFFSET;
 254              		.loc 1 553 0
 255 001a 7B68     		ldr	r3, [r7, #4]
 256 001c 1B0C     		lsrs	r3, r3, #16
 257 001e 0F22     		movs	r2, #15
 258 0020 1340     		ands	r3, r2
 259 0022 FA68     		ldr	r2, [r7, #12]
 260 0024 D318     		adds	r3, r2, r3
 261 0026 FB60     		str	r3, [r7, #12]
 554:Generated_Source\PSoC4/RTC_1.h **** 
 555:Generated_Source\PSoC4/RTC_1.h ****     return (retVal);
 262              		.loc 1 555 0
 263 0028 FB68     		ldr	r3, [r7, #12]
 556:Generated_Source\PSoC4/RTC_1.h **** }
 264              		.loc 1 556 0
 265 002a 1800     		movs	r0, r3
 266 002c BD46     		mov	sp, r7
 267 002e 04B0     		add	sp, sp, #16
 268              		@ sp needed
 269 0030 80BD     		pop	{r7, pc}
 270              		.cfi_endproc
 271              	.LFE6:
 272              		.size	RTC_1_GetHours, .-RTC_1_GetHours
 273 0032 C046     		.section	.text.RTC_1_GetAmPm,"ax",%progbits
 274              		.align	2
 275              		.code	16
 276              		.thumb_func
 277              		.type	RTC_1_GetAmPm, %function
 278              	RTC_1_GetAmPm:
 279              	.LFB7:
 557:Generated_Source\PSoC4/RTC_1.h **** 
 558:Generated_Source\PSoC4/RTC_1.h **** 
 559:Generated_Source\PSoC4/RTC_1.h **** /*******************************************************************************
 560:Generated_Source\PSoC4/RTC_1.h **** * Function Name: RTC_1_GetAmPm
 561:Generated_Source\PSoC4/RTC_1.h **** ****************************************************************************//**
 562:Generated_Source\PSoC4/RTC_1.h **** *
 563:Generated_Source\PSoC4/RTC_1.h **** * \brief
 564:Generated_Source\PSoC4/RTC_1.h **** *  Returns the AM/PM status from the time value that is passed as parameter.
 565:Generated_Source\PSoC4/RTC_1.h **** *
 566:Generated_Source\PSoC4/RTC_1.h **** * \param
 567:Generated_Source\PSoC4/RTC_1.h **** *  time The time value.
 568:Generated_Source\PSoC4/RTC_1.h **** *
 569:Generated_Source\PSoC4/RTC_1.h **** * \return
 570:Generated_Source\PSoC4/RTC_1.h **** *  RTC_1_AM - AM.
 571:Generated_Source\PSoC4/RTC_1.h **** * \return
 572:Generated_Source\PSoC4/RTC_1.h **** *  RTC_1_PM - PM.
 573:Generated_Source\PSoC4/RTC_1.h **** *
 574:Generated_Source\PSoC4/RTC_1.h **** *******************************************************************************/
 575:Generated_Source\PSoC4/RTC_1.h **** static CY_INLINE uint32 RTC_1_GetAmPm(uint32 inputTime)
 576:Generated_Source\PSoC4/RTC_1.h **** {
ARM GAS  C:\Users\7709\AppData\Local\Temp\ccYsxBBo.s 			page 16


 280              		.loc 1 576 0
 281              		.cfi_startproc
 282              		@ args = 0, pretend = 0, frame = 8
 283              		@ frame_needed = 1, uses_anonymous_args = 0
 284 0000 80B5     		push	{r7, lr}
 285              		.cfi_def_cfa_offset 8
 286              		.cfi_offset 7, -8
 287              		.cfi_offset 14, -4
 288 0002 82B0     		sub	sp, sp, #8
 289              		.cfi_def_cfa_offset 16
 290 0004 00AF     		add	r7, sp, #0
 291              		.cfi_def_cfa_register 7
 292 0006 7860     		str	r0, [r7, #4]
 577:Generated_Source\PSoC4/RTC_1.h ****     return (RTC_1_IsBitSet(inputTime, RTC_1_PERIOD_OF_DAY_MASK));
 293              		.loc 1 577 0
 294 0008 8023     		movs	r3, #128
 295 000a DA03     		lsls	r2, r3, #15
 296 000c 7B68     		ldr	r3, [r7, #4]
 297 000e 1100     		movs	r1, r2
 298 0010 1800     		movs	r0, r3
 299 0012 FFF7FEFF 		bl	RTC_1_IsBitSet
 300 0016 0300     		movs	r3, r0
 578:Generated_Source\PSoC4/RTC_1.h **** }
 301              		.loc 1 578 0
 302 0018 1800     		movs	r0, r3
 303 001a BD46     		mov	sp, r7
 304 001c 02B0     		add	sp, sp, #8
 305              		@ sp needed
 306 001e 80BD     		pop	{r7, pc}
 307              		.cfi_endproc
 308              	.LFE7:
 309              		.size	RTC_1_GetAmPm, .-RTC_1_GetAmPm
 310              		.section	.text.RTC_1_GetDay,"ax",%progbits
 311              		.align	2
 312              		.code	16
 313              		.thumb_func
 314              		.type	RTC_1_GetDay, %function
 315              	RTC_1_GetDay:
 316              	.LFB8:
 579:Generated_Source\PSoC4/RTC_1.h **** 
 580:Generated_Source\PSoC4/RTC_1.h **** 
 581:Generated_Source\PSoC4/RTC_1.h **** /*******************************************************************************
 582:Generated_Source\PSoC4/RTC_1.h **** * Function Name: RTC_1_GetDay
 583:Generated_Source\PSoC4/RTC_1.h **** ****************************************************************************//**
 584:Generated_Source\PSoC4/RTC_1.h **** *
 585:Generated_Source\PSoC4/RTC_1.h **** * \brief
 586:Generated_Source\PSoC4/RTC_1.h **** *  Returns the day value from the date value that is passed as parameter.
 587:Generated_Source\PSoC4/RTC_1.h **** *
 588:Generated_Source\PSoC4/RTC_1.h **** * \param
 589:Generated_Source\PSoC4/RTC_1.h **** *  date The date value.
 590:Generated_Source\PSoC4/RTC_1.h **** *
 591:Generated_Source\PSoC4/RTC_1.h **** * \return
 592:Generated_Source\PSoC4/RTC_1.h **** *  The day value.
 593:Generated_Source\PSoC4/RTC_1.h **** *
 594:Generated_Source\PSoC4/RTC_1.h **** *******************************************************************************/
 595:Generated_Source\PSoC4/RTC_1.h **** static CY_INLINE uint32 RTC_1_GetDay(uint32 date)
 596:Generated_Source\PSoC4/RTC_1.h **** {
ARM GAS  C:\Users\7709\AppData\Local\Temp\ccYsxBBo.s 			page 17


 317              		.loc 1 596 0
 318              		.cfi_startproc
 319              		@ args = 0, pretend = 0, frame = 16
 320              		@ frame_needed = 1, uses_anonymous_args = 0
 321 0000 80B5     		push	{r7, lr}
 322              		.cfi_def_cfa_offset 8
 323              		.cfi_offset 7, -8
 324              		.cfi_offset 14, -4
 325 0002 84B0     		sub	sp, sp, #16
 326              		.cfi_def_cfa_offset 24
 327 0004 00AF     		add	r7, sp, #0
 328              		.cfi_def_cfa_register 7
 329 0006 7860     		str	r0, [r7, #4]
 597:Generated_Source\PSoC4/RTC_1.h ****     uint32 retVal;
 598:Generated_Source\PSoC4/RTC_1.h **** 
 599:Generated_Source\PSoC4/RTC_1.h ****     retVal  = ((date & RTC_1_10_DAY_MASK) >> RTC_1_10_DAY_OFFSET) * 10u;
 330              		.loc 1 599 0
 331 0008 7B68     		ldr	r3, [r7, #4]
 332 000a 1B0F     		lsrs	r3, r3, #28
 333 000c 0322     		movs	r2, #3
 334 000e 1A40     		ands	r2, r3
 335 0010 1300     		movs	r3, r2
 336 0012 9B00     		lsls	r3, r3, #2
 337 0014 9B18     		adds	r3, r3, r2
 338 0016 5B00     		lsls	r3, r3, #1
 339 0018 FB60     		str	r3, [r7, #12]
 600:Generated_Source\PSoC4/RTC_1.h ****     retVal += (date & RTC_1_DAY_MASK) >> RTC_1_DAY_OFFSET;
 340              		.loc 1 600 0
 341 001a 7B68     		ldr	r3, [r7, #4]
 342 001c 1B0E     		lsrs	r3, r3, #24
 343 001e 0F22     		movs	r2, #15
 344 0020 1340     		ands	r3, r2
 345 0022 FA68     		ldr	r2, [r7, #12]
 346 0024 D318     		adds	r3, r2, r3
 347 0026 FB60     		str	r3, [r7, #12]
 601:Generated_Source\PSoC4/RTC_1.h **** 
 602:Generated_Source\PSoC4/RTC_1.h ****     return (retVal);
 348              		.loc 1 602 0
 349 0028 FB68     		ldr	r3, [r7, #12]
 603:Generated_Source\PSoC4/RTC_1.h **** }
 350              		.loc 1 603 0
 351 002a 1800     		movs	r0, r3
 352 002c BD46     		mov	sp, r7
 353 002e 04B0     		add	sp, sp, #16
 354              		@ sp needed
 355 0030 80BD     		pop	{r7, pc}
 356              		.cfi_endproc
 357              	.LFE8:
 358              		.size	RTC_1_GetDay, .-RTC_1_GetDay
 359 0032 C046     		.section	.text.RTC_1_GetMonth,"ax",%progbits
 360              		.align	2
 361              		.code	16
 362              		.thumb_func
 363              		.type	RTC_1_GetMonth, %function
 364              	RTC_1_GetMonth:
 365              	.LFB9:
 604:Generated_Source\PSoC4/RTC_1.h **** 
ARM GAS  C:\Users\7709\AppData\Local\Temp\ccYsxBBo.s 			page 18


 605:Generated_Source\PSoC4/RTC_1.h **** 
 606:Generated_Source\PSoC4/RTC_1.h **** /*******************************************************************************
 607:Generated_Source\PSoC4/RTC_1.h **** * Function Name: RTC_1_GetMonth
 608:Generated_Source\PSoC4/RTC_1.h **** ****************************************************************************//**
 609:Generated_Source\PSoC4/RTC_1.h **** *
 610:Generated_Source\PSoC4/RTC_1.h **** * \brief
 611:Generated_Source\PSoC4/RTC_1.h **** *  Returns the month value from the date value that is passed as parameter.
 612:Generated_Source\PSoC4/RTC_1.h **** *
 613:Generated_Source\PSoC4/RTC_1.h **** * \param
 614:Generated_Source\PSoC4/RTC_1.h **** *  date The date value.
 615:Generated_Source\PSoC4/RTC_1.h **** *
 616:Generated_Source\PSoC4/RTC_1.h **** * \return
 617:Generated_Source\PSoC4/RTC_1.h **** *  The month value.
 618:Generated_Source\PSoC4/RTC_1.h **** *
 619:Generated_Source\PSoC4/RTC_1.h **** *******************************************************************************/
 620:Generated_Source\PSoC4/RTC_1.h **** static CY_INLINE uint32 RTC_1_GetMonth(uint32 date)
 621:Generated_Source\PSoC4/RTC_1.h **** {
 366              		.loc 1 621 0
 367              		.cfi_startproc
 368              		@ args = 0, pretend = 0, frame = 16
 369              		@ frame_needed = 1, uses_anonymous_args = 0
 370 0000 80B5     		push	{r7, lr}
 371              		.cfi_def_cfa_offset 8
 372              		.cfi_offset 7, -8
 373              		.cfi_offset 14, -4
 374 0002 84B0     		sub	sp, sp, #16
 375              		.cfi_def_cfa_offset 24
 376 0004 00AF     		add	r7, sp, #0
 377              		.cfi_def_cfa_register 7
 378 0006 7860     		str	r0, [r7, #4]
 622:Generated_Source\PSoC4/RTC_1.h ****     uint32 retVal;
 623:Generated_Source\PSoC4/RTC_1.h **** 
 624:Generated_Source\PSoC4/RTC_1.h ****     retVal  = ((date & RTC_1_10_MONTH_MASK) >> RTC_1_10_MONTH_OFFSET) * 10u;
 379              		.loc 1 624 0
 380 0008 7B68     		ldr	r3, [r7, #4]
 381 000a 1B0D     		lsrs	r3, r3, #20
 382 000c 0122     		movs	r2, #1
 383 000e 1A40     		ands	r2, r3
 384 0010 1300     		movs	r3, r2
 385 0012 9B00     		lsls	r3, r3, #2
 386 0014 9B18     		adds	r3, r3, r2
 387 0016 5B00     		lsls	r3, r3, #1
 388 0018 FB60     		str	r3, [r7, #12]
 625:Generated_Source\PSoC4/RTC_1.h ****     retVal += (date & RTC_1_MONTH_MASK) >> RTC_1_MONTH_OFFSET;
 389              		.loc 1 625 0
 390 001a 7B68     		ldr	r3, [r7, #4]
 391 001c 1B0C     		lsrs	r3, r3, #16
 392 001e 0F22     		movs	r2, #15
 393 0020 1340     		ands	r3, r2
 394 0022 FA68     		ldr	r2, [r7, #12]
 395 0024 D318     		adds	r3, r2, r3
 396 0026 FB60     		str	r3, [r7, #12]
 626:Generated_Source\PSoC4/RTC_1.h **** 
 627:Generated_Source\PSoC4/RTC_1.h ****     return (retVal);
 397              		.loc 1 627 0
 398 0028 FB68     		ldr	r3, [r7, #12]
 628:Generated_Source\PSoC4/RTC_1.h **** }
ARM GAS  C:\Users\7709\AppData\Local\Temp\ccYsxBBo.s 			page 19


 399              		.loc 1 628 0
 400 002a 1800     		movs	r0, r3
 401 002c BD46     		mov	sp, r7
 402 002e 04B0     		add	sp, sp, #16
 403              		@ sp needed
 404 0030 80BD     		pop	{r7, pc}
 405              		.cfi_endproc
 406              	.LFE9:
 407              		.size	RTC_1_GetMonth, .-RTC_1_GetMonth
 408 0032 C046     		.section	.text.RTC_1_GetYear,"ax",%progbits
 409              		.align	2
 410              		.code	16
 411              		.thumb_func
 412              		.type	RTC_1_GetYear, %function
 413              	RTC_1_GetYear:
 414              	.LFB10:
 629:Generated_Source\PSoC4/RTC_1.h **** 
 630:Generated_Source\PSoC4/RTC_1.h **** 
 631:Generated_Source\PSoC4/RTC_1.h **** /*******************************************************************************
 632:Generated_Source\PSoC4/RTC_1.h **** * Function Name: RTC_1_GetYear
 633:Generated_Source\PSoC4/RTC_1.h **** ****************************************************************************//**
 634:Generated_Source\PSoC4/RTC_1.h **** *
 635:Generated_Source\PSoC4/RTC_1.h **** * \brief
 636:Generated_Source\PSoC4/RTC_1.h **** *  Returns the year value from the date value that is passed as parameter.
 637:Generated_Source\PSoC4/RTC_1.h **** *
 638:Generated_Source\PSoC4/RTC_1.h **** * \param
 639:Generated_Source\PSoC4/RTC_1.h **** *  date The date value.
 640:Generated_Source\PSoC4/RTC_1.h **** *
 641:Generated_Source\PSoC4/RTC_1.h **** * \return
 642:Generated_Source\PSoC4/RTC_1.h **** *  The year value.
 643:Generated_Source\PSoC4/RTC_1.h **** *
 644:Generated_Source\PSoC4/RTC_1.h **** *******************************************************************************/
 645:Generated_Source\PSoC4/RTC_1.h **** static CY_INLINE uint32 RTC_1_GetYear(uint32 date)
 646:Generated_Source\PSoC4/RTC_1.h **** {
 415              		.loc 1 646 0
 416              		.cfi_startproc
 417              		@ args = 0, pretend = 0, frame = 16
 418              		@ frame_needed = 1, uses_anonymous_args = 0
 419 0000 80B5     		push	{r7, lr}
 420              		.cfi_def_cfa_offset 8
 421              		.cfi_offset 7, -8
 422              		.cfi_offset 14, -4
 423 0002 84B0     		sub	sp, sp, #16
 424              		.cfi_def_cfa_offset 24
 425 0004 00AF     		add	r7, sp, #0
 426              		.cfi_def_cfa_register 7
 427 0006 7860     		str	r0, [r7, #4]
 647:Generated_Source\PSoC4/RTC_1.h ****     uint32 retVal;
 648:Generated_Source\PSoC4/RTC_1.h **** 
 649:Generated_Source\PSoC4/RTC_1.h ****     retVal  = ((date & RTC_1_1000_YEAR_MASK) >> RTC_1_1000_YEAR_OFFSET) * 1000u;
 428              		.loc 1 649 0
 429 0008 7B68     		ldr	r3, [r7, #4]
 430 000a 1B0B     		lsrs	r3, r3, #12
 431 000c 0322     		movs	r2, #3
 432 000e 1340     		ands	r3, r2
 433 0010 FA22     		movs	r2, #250
 434 0012 9200     		lsls	r2, r2, #2
ARM GAS  C:\Users\7709\AppData\Local\Temp\ccYsxBBo.s 			page 20


 435 0014 5343     		muls	r3, r2
 436 0016 FB60     		str	r3, [r7, #12]
 650:Generated_Source\PSoC4/RTC_1.h ****     retVal += ((date & RTC_1_100_YEAR_MASK) >> RTC_1_100_YEAR_OFFSET) * 100u;
 437              		.loc 1 650 0
 438 0018 7B68     		ldr	r3, [r7, #4]
 439 001a 1B0A     		lsrs	r3, r3, #8
 440 001c 0F22     		movs	r2, #15
 441 001e 1340     		ands	r3, r2
 442 0020 6422     		movs	r2, #100
 443 0022 5343     		muls	r3, r2
 444 0024 FA68     		ldr	r2, [r7, #12]
 445 0026 D318     		adds	r3, r2, r3
 446 0028 FB60     		str	r3, [r7, #12]
 651:Generated_Source\PSoC4/RTC_1.h ****     retVal += ((date & RTC_1_10_YEAR_MASK) >> RTC_1_10_YEAR_OFFSET) * 10u;
 447              		.loc 1 651 0
 448 002a 7B68     		ldr	r3, [r7, #4]
 449 002c 1B09     		lsrs	r3, r3, #4
 450 002e 0F22     		movs	r2, #15
 451 0030 1A40     		ands	r2, r3
 452 0032 1300     		movs	r3, r2
 453 0034 9B00     		lsls	r3, r3, #2
 454 0036 9B18     		adds	r3, r3, r2
 455 0038 5B00     		lsls	r3, r3, #1
 456 003a 1A00     		movs	r2, r3
 457 003c FB68     		ldr	r3, [r7, #12]
 458 003e 9B18     		adds	r3, r3, r2
 459 0040 FB60     		str	r3, [r7, #12]
 652:Generated_Source\PSoC4/RTC_1.h ****     retVal += (date & RTC_1_YEAR_MASK) >> RTC_1_YEAR_OFFSET;
 460              		.loc 1 652 0
 461 0042 7B68     		ldr	r3, [r7, #4]
 462 0044 0F22     		movs	r2, #15
 463 0046 1340     		ands	r3, r2
 464 0048 FA68     		ldr	r2, [r7, #12]
 465 004a D318     		adds	r3, r2, r3
 466 004c FB60     		str	r3, [r7, #12]
 653:Generated_Source\PSoC4/RTC_1.h **** 
 654:Generated_Source\PSoC4/RTC_1.h ****     return (retVal);
 467              		.loc 1 654 0
 468 004e FB68     		ldr	r3, [r7, #12]
 655:Generated_Source\PSoC4/RTC_1.h **** }
 469              		.loc 1 655 0
 470 0050 1800     		movs	r0, r3
 471 0052 BD46     		mov	sp, r7
 472 0054 04B0     		add	sp, sp, #16
 473              		@ sp needed
 474 0056 80BD     		pop	{r7, pc}
 475              		.cfi_endproc
 476              	.LFE10:
 477              		.size	RTC_1_GetYear, .-RTC_1_GetYear
 478              		.section	.text.RTC_1_GetTimeFormat,"ax",%progbits
 479              		.align	2
 480              		.code	16
 481              		.thumb_func
 482              		.type	RTC_1_GetTimeFormat, %function
 483              	RTC_1_GetTimeFormat:
 484              	.LFB24:
 656:Generated_Source\PSoC4/RTC_1.h **** 
ARM GAS  C:\Users\7709\AppData\Local\Temp\ccYsxBBo.s 			page 21


 657:Generated_Source\PSoC4/RTC_1.h **** 
 658:Generated_Source\PSoC4/RTC_1.h **** /*******************************************************************************
 659:Generated_Source\PSoC4/RTC_1.h **** * Function Name: RTC_1_SetSecond
 660:Generated_Source\PSoC4/RTC_1.h **** ****************************************************************************//**
 661:Generated_Source\PSoC4/RTC_1.h **** *\internal
 662:Generated_Source\PSoC4/RTC_1.h **** * \brief
 663:Generated_Source\PSoC4/RTC_1.h **** *  Updates the time with the new second value.
 664:Generated_Source\PSoC4/RTC_1.h **** *
 665:Generated_Source\PSoC4/RTC_1.h **** * \param
 666:Generated_Source\PSoC4/RTC_1.h **** * time The current date.
 667:Generated_Source\PSoC4/RTC_1.h **** * \param
 668:Generated_Source\PSoC4/RTC_1.h **** * second The seconds value to be set to the time variable.
 669:Generated_Source\PSoC4/RTC_1.h **** *
 670:Generated_Source\PSoC4/RTC_1.h **** * \return
 671:Generated_Source\PSoC4/RTC_1.h **** *  The updated time variable.
 672:Generated_Source\PSoC4/RTC_1.h **** *\endinternal
 673:Generated_Source\PSoC4/RTC_1.h **** *******************************************************************************/
 674:Generated_Source\PSoC4/RTC_1.h **** static CY_INLINE uint32 RTC_1_SetSecond(uint32 inputTime, uint32 inputSecond)
 675:Generated_Source\PSoC4/RTC_1.h **** {
 676:Generated_Source\PSoC4/RTC_1.h ****     inputTime &= ~(RTC_1_SECONDS_FULL_MASK);
 677:Generated_Source\PSoC4/RTC_1.h **** 
 678:Generated_Source\PSoC4/RTC_1.h ****     inputTime |= (inputSecond / 10u) << RTC_1_10_SECONDS_OFFSET;
 679:Generated_Source\PSoC4/RTC_1.h ****     inputTime |= (inputSecond % 10u) << RTC_1_SECONDS_OFFSET;
 680:Generated_Source\PSoC4/RTC_1.h **** 
 681:Generated_Source\PSoC4/RTC_1.h ****     return(inputTime);
 682:Generated_Source\PSoC4/RTC_1.h **** }
 683:Generated_Source\PSoC4/RTC_1.h **** 
 684:Generated_Source\PSoC4/RTC_1.h **** 
 685:Generated_Source\PSoC4/RTC_1.h **** /*******************************************************************************
 686:Generated_Source\PSoC4/RTC_1.h **** * Function Name: RTC_1_SetMinutes
 687:Generated_Source\PSoC4/RTC_1.h **** ****************************************************************************//**
 688:Generated_Source\PSoC4/RTC_1.h **** *\internal
 689:Generated_Source\PSoC4/RTC_1.h **** * \brief
 690:Generated_Source\PSoC4/RTC_1.h **** *  Updates the time with the new minute value.
 691:Generated_Source\PSoC4/RTC_1.h **** *
 692:Generated_Source\PSoC4/RTC_1.h **** * \param
 693:Generated_Source\PSoC4/RTC_1.h **** *  time The current date.
 694:Generated_Source\PSoC4/RTC_1.h **** * \param
 695:Generated_Source\PSoC4/RTC_1.h **** *  minutes The minutes value to be set to the time variable.
 696:Generated_Source\PSoC4/RTC_1.h **** *
 697:Generated_Source\PSoC4/RTC_1.h **** * \return
 698:Generated_Source\PSoC4/RTC_1.h **** *  The updated time variable.
 699:Generated_Source\PSoC4/RTC_1.h **** * \endinternal
 700:Generated_Source\PSoC4/RTC_1.h **** *******************************************************************************/
 701:Generated_Source\PSoC4/RTC_1.h **** static CY_INLINE uint32 RTC_1_SetMinutes(uint32 inputTime, uint32 inputMinute)
 702:Generated_Source\PSoC4/RTC_1.h **** {
 703:Generated_Source\PSoC4/RTC_1.h ****     inputTime &= ~(RTC_1_MINUTES_FULL_MASK);
 704:Generated_Source\PSoC4/RTC_1.h **** 
 705:Generated_Source\PSoC4/RTC_1.h ****     inputTime |= (inputMinute / 10u) << RTC_1_10_MINUTES_OFFSET;
 706:Generated_Source\PSoC4/RTC_1.h ****     inputTime |= (inputMinute % 10u) << RTC_1_MINUTES_OFFSET;
 707:Generated_Source\PSoC4/RTC_1.h **** 
 708:Generated_Source\PSoC4/RTC_1.h ****     return(inputTime);
 709:Generated_Source\PSoC4/RTC_1.h **** }
 710:Generated_Source\PSoC4/RTC_1.h **** 
 711:Generated_Source\PSoC4/RTC_1.h **** 
 712:Generated_Source\PSoC4/RTC_1.h **** /*******************************************************************************
 713:Generated_Source\PSoC4/RTC_1.h **** * Function Name: RTC_1_SetHours
ARM GAS  C:\Users\7709\AppData\Local\Temp\ccYsxBBo.s 			page 22


 714:Generated_Source\PSoC4/RTC_1.h **** ****************************************************************************//**
 715:Generated_Source\PSoC4/RTC_1.h **** *\internal
 716:Generated_Source\PSoC4/RTC_1.h **** * \brief
 717:Generated_Source\PSoC4/RTC_1.h **** *  Updates the time with the new hour value.
 718:Generated_Source\PSoC4/RTC_1.h **** *
 719:Generated_Source\PSoC4/RTC_1.h **** * \param
 720:Generated_Source\PSoC4/RTC_1.h **** * time The current date.
 721:Generated_Source\PSoC4/RTC_1.h **** * \param
 722:Generated_Source\PSoC4/RTC_1.h **** * hours The hours value to be set to the time variable.
 723:Generated_Source\PSoC4/RTC_1.h **** *
 724:Generated_Source\PSoC4/RTC_1.h **** * \return
 725:Generated_Source\PSoC4/RTC_1.h **** *  The updated time variable.
 726:Generated_Source\PSoC4/RTC_1.h **** *\endinternal
 727:Generated_Source\PSoC4/RTC_1.h **** *******************************************************************************/
 728:Generated_Source\PSoC4/RTC_1.h **** static CY_INLINE uint32 RTC_1_SetHours(uint32 inputTime, uint32 inputHours)
 729:Generated_Source\PSoC4/RTC_1.h **** {
 730:Generated_Source\PSoC4/RTC_1.h ****     inputTime &= ~(RTC_1_HOURS_FULL_MASK);
 731:Generated_Source\PSoC4/RTC_1.h **** 
 732:Generated_Source\PSoC4/RTC_1.h ****     inputTime |= (inputHours / 10u) << RTC_1_10_HOURS_OFFSET;
 733:Generated_Source\PSoC4/RTC_1.h ****     inputTime |= (inputHours % 10u) << RTC_1_HOURS_OFFSET;
 734:Generated_Source\PSoC4/RTC_1.h **** 
 735:Generated_Source\PSoC4/RTC_1.h ****     return(inputTime);
 736:Generated_Source\PSoC4/RTC_1.h **** }
 737:Generated_Source\PSoC4/RTC_1.h **** 
 738:Generated_Source\PSoC4/RTC_1.h **** 
 739:Generated_Source\PSoC4/RTC_1.h **** /*******************************************************************************
 740:Generated_Source\PSoC4/RTC_1.h **** * Function Name: RTC_1_SetAmPm
 741:Generated_Source\PSoC4/RTC_1.h **** ****************************************************************************//**
 742:Generated_Source\PSoC4/RTC_1.h **** *\internal
 743:Generated_Source\PSoC4/RTC_1.h **** * \brief
 744:Generated_Source\PSoC4/RTC_1.h **** *  Updates the time variable with the AmPm status.
 745:Generated_Source\PSoC4/RTC_1.h **** *
 746:Generated_Source\PSoC4/RTC_1.h **** * \param
 747:Generated_Source\PSoC4/RTC_1.h **** * time The current date.
 748:Generated_Source\PSoC4/RTC_1.h **** * \param
 749:Generated_Source\PSoC4/RTC_1.h **** * periodOfDay The AmPm status to be set to the time variable.
 750:Generated_Source\PSoC4/RTC_1.h **** *
 751:Generated_Source\PSoC4/RTC_1.h **** * \return
 752:Generated_Source\PSoC4/RTC_1.h **** *  The updated time variable.
 753:Generated_Source\PSoC4/RTC_1.h **** * \endinternal
 754:Generated_Source\PSoC4/RTC_1.h **** *******************************************************************************/
 755:Generated_Source\PSoC4/RTC_1.h **** static CY_INLINE uint32 RTC_1_SetAmPm(uint32 inputTime, uint32 periodOfDay)
 756:Generated_Source\PSoC4/RTC_1.h **** {
 757:Generated_Source\PSoC4/RTC_1.h ****     if(0u != periodOfDay)
 758:Generated_Source\PSoC4/RTC_1.h ****     {
 759:Generated_Source\PSoC4/RTC_1.h ****         inputTime &= ~(RTC_1_PERIOD_OF_DAY_MASK);
 760:Generated_Source\PSoC4/RTC_1.h ****     }
 761:Generated_Source\PSoC4/RTC_1.h ****     else
 762:Generated_Source\PSoC4/RTC_1.h ****     {
 763:Generated_Source\PSoC4/RTC_1.h ****         inputTime |= RTC_1_PERIOD_OF_DAY_MASK;
 764:Generated_Source\PSoC4/RTC_1.h ****     }
 765:Generated_Source\PSoC4/RTC_1.h **** 
 766:Generated_Source\PSoC4/RTC_1.h ****     return(inputTime);
 767:Generated_Source\PSoC4/RTC_1.h **** }
 768:Generated_Source\PSoC4/RTC_1.h **** 
 769:Generated_Source\PSoC4/RTC_1.h **** 
 770:Generated_Source\PSoC4/RTC_1.h **** /*******************************************************************************
ARM GAS  C:\Users\7709\AppData\Local\Temp\ccYsxBBo.s 			page 23


 771:Generated_Source\PSoC4/RTC_1.h **** * Function Name: RTC_1_SetDay
 772:Generated_Source\PSoC4/RTC_1.h **** ****************************************************************************//**
 773:Generated_Source\PSoC4/RTC_1.h **** *\internal
 774:Generated_Source\PSoC4/RTC_1.h **** * \brief
 775:Generated_Source\PSoC4/RTC_1.h **** *  Updates the date variable with the new day value.
 776:Generated_Source\PSoC4/RTC_1.h **** *
 777:Generated_Source\PSoC4/RTC_1.h **** * \param
 778:Generated_Source\PSoC4/RTC_1.h **** * date The current date.
 779:Generated_Source\PSoC4/RTC_1.h **** * \param
 780:Generated_Source\PSoC4/RTC_1.h **** * day The month to be set to the date variable.
 781:Generated_Source\PSoC4/RTC_1.h **** *
 782:Generated_Source\PSoC4/RTC_1.h **** * \return
 783:Generated_Source\PSoC4/RTC_1.h **** *  The updated date variable.
 784:Generated_Source\PSoC4/RTC_1.h **** *\endinternal
 785:Generated_Source\PSoC4/RTC_1.h **** *******************************************************************************/
 786:Generated_Source\PSoC4/RTC_1.h **** static CY_INLINE uint32 RTC_1_SetDay(uint32 inputDate, uint32 inputDay)
 787:Generated_Source\PSoC4/RTC_1.h **** {
 788:Generated_Source\PSoC4/RTC_1.h ****     inputDate &= ~(RTC_1_DAY_FULL_MASK);
 789:Generated_Source\PSoC4/RTC_1.h **** 
 790:Generated_Source\PSoC4/RTC_1.h ****     inputDate |= (inputDay / 10u) << RTC_1_10_DAY_OFFSET;
 791:Generated_Source\PSoC4/RTC_1.h ****     inputDate |= (inputDay % 10u) << RTC_1_DAY_OFFSET;
 792:Generated_Source\PSoC4/RTC_1.h **** 
 793:Generated_Source\PSoC4/RTC_1.h ****     return(inputDate);
 794:Generated_Source\PSoC4/RTC_1.h **** }
 795:Generated_Source\PSoC4/RTC_1.h **** 
 796:Generated_Source\PSoC4/RTC_1.h **** 
 797:Generated_Source\PSoC4/RTC_1.h **** /*******************************************************************************
 798:Generated_Source\PSoC4/RTC_1.h **** * Function Name: RTC_1_SetMonth
 799:Generated_Source\PSoC4/RTC_1.h **** ****************************************************************************//**
 800:Generated_Source\PSoC4/RTC_1.h **** *\internal
 801:Generated_Source\PSoC4/RTC_1.h **** * \brief
 802:Generated_Source\PSoC4/RTC_1.h **** *  Updates the date variable with the new month value.
 803:Generated_Source\PSoC4/RTC_1.h **** *
 804:Generated_Source\PSoC4/RTC_1.h **** * \param
 805:Generated_Source\PSoC4/RTC_1.h **** * date The current date.
 806:Generated_Source\PSoC4/RTC_1.h **** * \param
 807:Generated_Source\PSoC4/RTC_1.h **** * month The month that to be set to the date variable.
 808:Generated_Source\PSoC4/RTC_1.h **** *
 809:Generated_Source\PSoC4/RTC_1.h **** * \return
 810:Generated_Source\PSoC4/RTC_1.h **** *  The updated date variable.
 811:Generated_Source\PSoC4/RTC_1.h **** *\endinternal
 812:Generated_Source\PSoC4/RTC_1.h **** *******************************************************************************/
 813:Generated_Source\PSoC4/RTC_1.h **** static CY_INLINE uint32 RTC_1_SetMonth(uint32 inputDate, uint32 inputMonth)
 814:Generated_Source\PSoC4/RTC_1.h **** {
 815:Generated_Source\PSoC4/RTC_1.h ****     inputDate &= ~(RTC_1_MONTH_FULL_MASK);
 816:Generated_Source\PSoC4/RTC_1.h **** 
 817:Generated_Source\PSoC4/RTC_1.h ****     inputDate |= (inputMonth / 10u) << RTC_1_10_MONTH_OFFSET;
 818:Generated_Source\PSoC4/RTC_1.h ****     inputDate |= (inputMonth % 10u) << RTC_1_MONTH_OFFSET;
 819:Generated_Source\PSoC4/RTC_1.h **** 
 820:Generated_Source\PSoC4/RTC_1.h ****     return(inputDate);
 821:Generated_Source\PSoC4/RTC_1.h **** }
 822:Generated_Source\PSoC4/RTC_1.h **** 
 823:Generated_Source\PSoC4/RTC_1.h **** 
 824:Generated_Source\PSoC4/RTC_1.h **** /*******************************************************************************
 825:Generated_Source\PSoC4/RTC_1.h **** * Function Name: RTC_1_SetYear
 826:Generated_Source\PSoC4/RTC_1.h **** ****************************************************************************//**
 827:Generated_Source\PSoC4/RTC_1.h **** *\internal
ARM GAS  C:\Users\7709\AppData\Local\Temp\ccYsxBBo.s 			page 24


 828:Generated_Source\PSoC4/RTC_1.h **** * \brief
 829:Generated_Source\PSoC4/RTC_1.h **** *  Updates the date variable with the new year value.
 830:Generated_Source\PSoC4/RTC_1.h **** *
 831:Generated_Source\PSoC4/RTC_1.h **** * \param
 832:Generated_Source\PSoC4/RTC_1.h **** * date The current date.
 833:Generated_Source\PSoC4/RTC_1.h **** * \param
 834:Generated_Source\PSoC4/RTC_1.h **** * year The year to be set to the date variable.
 835:Generated_Source\PSoC4/RTC_1.h **** *
 836:Generated_Source\PSoC4/RTC_1.h **** * \return
 837:Generated_Source\PSoC4/RTC_1.h **** * The updated date variable.
 838:Generated_Source\PSoC4/RTC_1.h **** *\endinternal
 839:Generated_Source\PSoC4/RTC_1.h **** *******************************************************************************/
 840:Generated_Source\PSoC4/RTC_1.h **** static CY_INLINE uint32 RTC_1_SetYear(uint32 inputDate, uint32 inputYear)
 841:Generated_Source\PSoC4/RTC_1.h **** {
 842:Generated_Source\PSoC4/RTC_1.h ****     inputDate  &= ~(RTC_1_YEAR_FULL_MASK);
 843:Generated_Source\PSoC4/RTC_1.h **** 
 844:Generated_Source\PSoC4/RTC_1.h ****     inputDate |= (inputYear / 1000u) << RTC_1_1000_YEAR_OFFSET;
 845:Generated_Source\PSoC4/RTC_1.h ****     inputYear %= 1000u;
 846:Generated_Source\PSoC4/RTC_1.h **** 
 847:Generated_Source\PSoC4/RTC_1.h ****     inputDate |= (inputYear / 100u) << RTC_1_100_YEAR_OFFSET;
 848:Generated_Source\PSoC4/RTC_1.h ****     inputYear %= 100u;
 849:Generated_Source\PSoC4/RTC_1.h **** 
 850:Generated_Source\PSoC4/RTC_1.h ****     inputDate |= (inputYear / 10u) << RTC_1_10_YEAR_OFFSET;
 851:Generated_Source\PSoC4/RTC_1.h ****     inputDate |= (inputYear % 10u) << RTC_1_YEAR_OFFSET;
 852:Generated_Source\PSoC4/RTC_1.h **** 
 853:Generated_Source\PSoC4/RTC_1.h ****     return(inputDate);
 854:Generated_Source\PSoC4/RTC_1.h **** }
 855:Generated_Source\PSoC4/RTC_1.h **** 
 856:Generated_Source\PSoC4/RTC_1.h **** 
 857:Generated_Source\PSoC4/RTC_1.h **** /*******************************************************************************
 858:Generated_Source\PSoC4/RTC_1.h **** * Function Name: RTC_1_GetNextMinSec
 859:Generated_Source\PSoC4/RTC_1.h **** ****************************************************************************//**
 860:Generated_Source\PSoC4/RTC_1.h **** *\internal
 861:Generated_Source\PSoC4/RTC_1.h **** * \brief
 862:Generated_Source\PSoC4/RTC_1.h **** * This is an internal function that calculates the value of the next Second/Minute
 863:Generated_Source\PSoC4/RTC_1.h **** * that follows after the current Minute/Second.
 864:Generated_Source\PSoC4/RTC_1.h **** *
 865:Generated_Source\PSoC4/RTC_1.h **** * \param
 866:Generated_Source\PSoC4/RTC_1.h **** * curVal The current Second/Minute value.
 867:Generated_Source\PSoC4/RTC_1.h **** *
 868:Generated_Source\PSoC4/RTC_1.h **** * \return
 869:Generated_Source\PSoC4/RTC_1.h **** * Returns the Second/Minute which follows after the current Second/Minute.
 870:Generated_Source\PSoC4/RTC_1.h **** *\endinternal
 871:Generated_Source\PSoC4/RTC_1.h **** *******************************************************************************/
 872:Generated_Source\PSoC4/RTC_1.h **** static CY_INLINE uint32 RTC_1_GetNextMinSec(uint32 curVal)
 873:Generated_Source\PSoC4/RTC_1.h **** {
 874:Generated_Source\PSoC4/RTC_1.h ****     return((curVal < 59u) ? (curVal + 1u) : 0u);
 875:Generated_Source\PSoC4/RTC_1.h **** }
 876:Generated_Source\PSoC4/RTC_1.h **** 
 877:Generated_Source\PSoC4/RTC_1.h **** 
 878:Generated_Source\PSoC4/RTC_1.h **** /*******************************************************************************
 879:Generated_Source\PSoC4/RTC_1.h **** * Function Name: RTC_1_GetNextHour
 880:Generated_Source\PSoC4/RTC_1.h **** ****************************************************************************//**
 881:Generated_Source\PSoC4/RTC_1.h **** *\internal
 882:Generated_Source\PSoC4/RTC_1.h **** * \brief
 883:Generated_Source\PSoC4/RTC_1.h **** *  This is an internal function that calculates the value of the next Hour
 884:Generated_Source\PSoC4/RTC_1.h **** *  that follows after the current Hour.
ARM GAS  C:\Users\7709\AppData\Local\Temp\ccYsxBBo.s 			page 25


 885:Generated_Source\PSoC4/RTC_1.h **** *
 886:Generated_Source\PSoC4/RTC_1.h **** * \param
 887:Generated_Source\PSoC4/RTC_1.h **** * curVal The current Hour value.
 888:Generated_Source\PSoC4/RTC_1.h **** *
 889:Generated_Source\PSoC4/RTC_1.h **** * \return
 890:Generated_Source\PSoC4/RTC_1.h **** *  Returns the Hour which follows after the current Hour.
 891:Generated_Source\PSoC4/RTC_1.h **** * \endinternal
 892:Generated_Source\PSoC4/RTC_1.h **** *******************************************************************************/
 893:Generated_Source\PSoC4/RTC_1.h **** static CY_INLINE uint32 RTC_1_GetNextHour(uint32 curVal)
 894:Generated_Source\PSoC4/RTC_1.h **** {
 895:Generated_Source\PSoC4/RTC_1.h ****     return((curVal < 23u) ? (curVal + 1u) : 0u);
 896:Generated_Source\PSoC4/RTC_1.h **** }
 897:Generated_Source\PSoC4/RTC_1.h **** 
 898:Generated_Source\PSoC4/RTC_1.h **** 
 899:Generated_Source\PSoC4/RTC_1.h **** /*******************************************************************************
 900:Generated_Source\PSoC4/RTC_1.h **** * Function Name: RTC_1_GetNextDay
 901:Generated_Source\PSoC4/RTC_1.h **** ****************************************************************************//**
 902:Generated_Source\PSoC4/RTC_1.h **** * \internal
 903:Generated_Source\PSoC4/RTC_1.h **** * \brief
 904:Generated_Source\PSoC4/RTC_1.h **** *  This is an internal function that calculates the value of the next Day
 905:Generated_Source\PSoC4/RTC_1.h **** *  that follows after the current Day.
 906:Generated_Source\PSoC4/RTC_1.h **** *
 907:Generated_Source\PSoC4/RTC_1.h **** * \param
 908:Generated_Source\PSoC4/RTC_1.h **** *  curYear The current year.
 909:Generated_Source\PSoC4/RTC_1.h **** * \param
 910:Generated_Source\PSoC4/RTC_1.h **** *  curMonth The current month.
 911:Generated_Source\PSoC4/RTC_1.h **** * \param
 912:Generated_Source\PSoC4/RTC_1.h **** *  curDay The current day.
 913:Generated_Source\PSoC4/RTC_1.h **** * \param
 914:Generated_Source\PSoC4/RTC_1.h **** *  alarmCfgMask Alarm Config Mask.
 915:Generated_Source\PSoC4/RTC_1.h **** *
 916:Generated_Source\PSoC4/RTC_1.h **** * \return
 917:Generated_Source\PSoC4/RTC_1.h **** *  Returns the day which follows after the current Day.
 918:Generated_Source\PSoC4/RTC_1.h **** * \endinternal
 919:Generated_Source\PSoC4/RTC_1.h **** *******************************************************************************/
 920:Generated_Source\PSoC4/RTC_1.h **** static CY_INLINE uint32 RTC_1_GetNextDay(uint32 curYear, uint32 curMonth, uint32 curDay, uint32 ala
 921:Generated_Source\PSoC4/RTC_1.h **** {
 922:Generated_Source\PSoC4/RTC_1.h ****     uint32 daysInMonth;
 923:Generated_Source\PSoC4/RTC_1.h ****     uint32 tmpVal;
 924:Generated_Source\PSoC4/RTC_1.h **** 
 925:Generated_Source\PSoC4/RTC_1.h ****     daysInMonth = RTC_1_DaysInMonth(curMonth, curYear);
 926:Generated_Source\PSoC4/RTC_1.h **** 
 927:Generated_Source\PSoC4/RTC_1.h ****     if(0u != (alarmCfgMask & RTC_1_ALARM_DAYOFWEEK_MASK))
 928:Generated_Source\PSoC4/RTC_1.h ****     {
 929:Generated_Source\PSoC4/RTC_1.h ****         tmpVal = curDay + RTC_1_DAYS_PER_WEEK;
 930:Generated_Source\PSoC4/RTC_1.h ****         tmpVal = (tmpVal > daysInMonth) ? (tmpVal - daysInMonth) : tmpVal;
 931:Generated_Source\PSoC4/RTC_1.h ****     }
 932:Generated_Source\PSoC4/RTC_1.h ****     else
 933:Generated_Source\PSoC4/RTC_1.h ****     {
 934:Generated_Source\PSoC4/RTC_1.h ****         tmpVal = (curDay < daysInMonth) ? (curDay + 1u) : 1u;
 935:Generated_Source\PSoC4/RTC_1.h ****     }
 936:Generated_Source\PSoC4/RTC_1.h **** 
 937:Generated_Source\PSoC4/RTC_1.h ****     return(tmpVal);
 938:Generated_Source\PSoC4/RTC_1.h **** }
 939:Generated_Source\PSoC4/RTC_1.h **** 
 940:Generated_Source\PSoC4/RTC_1.h **** 
 941:Generated_Source\PSoC4/RTC_1.h **** /*******************************************************************************
ARM GAS  C:\Users\7709\AppData\Local\Temp\ccYsxBBo.s 			page 26


 942:Generated_Source\PSoC4/RTC_1.h **** * Function Name: RTC_1_GetNextMonth
 943:Generated_Source\PSoC4/RTC_1.h **** ****************************************************************************//**
 944:Generated_Source\PSoC4/RTC_1.h **** * \internal
 945:Generated_Source\PSoC4/RTC_1.h **** * \brief
 946:Generated_Source\PSoC4/RTC_1.h **** *  This is an internal function that calculates the value of the next month
 947:Generated_Source\PSoC4/RTC_1.h **** *  that follows after the current month.
 948:Generated_Source\PSoC4/RTC_1.h **** *
 949:Generated_Source\PSoC4/RTC_1.h **** * \param
 950:Generated_Source\PSoC4/RTC_1.h **** *  curMonth The current month.
 951:Generated_Source\PSoC4/RTC_1.h **** *
 952:Generated_Source\PSoC4/RTC_1.h **** * \return
 953:Generated_Source\PSoC4/RTC_1.h **** *  Returns the month which follows after the current month.
 954:Generated_Source\PSoC4/RTC_1.h **** * \endinternal
 955:Generated_Source\PSoC4/RTC_1.h **** *******************************************************************************/
 956:Generated_Source\PSoC4/RTC_1.h **** static CY_INLINE uint32 RTC_1_GetNextMonth(uint32 curMonth)
 957:Generated_Source\PSoC4/RTC_1.h **** {
 958:Generated_Source\PSoC4/RTC_1.h ****     return((curMonth < 12u) ? (curMonth + 1u) : 1u);
 959:Generated_Source\PSoC4/RTC_1.h **** }
 960:Generated_Source\PSoC4/RTC_1.h **** 
 961:Generated_Source\PSoC4/RTC_1.h **** 
 962:Generated_Source\PSoC4/RTC_1.h **** /*******************************************************************************
 963:Generated_Source\PSoC4/RTC_1.h **** * Function Name: RTC_1_GetNextYear
 964:Generated_Source\PSoC4/RTC_1.h **** ****************************************************************************//**
 965:Generated_Source\PSoC4/RTC_1.h **** * \internal
 966:Generated_Source\PSoC4/RTC_1.h **** * \brief
 967:Generated_Source\PSoC4/RTC_1.h **** *  This is an internal function that calculates the value of the next year
 968:Generated_Source\PSoC4/RTC_1.h **** *  that follows after the current year.
 969:Generated_Source\PSoC4/RTC_1.h **** *
 970:Generated_Source\PSoC4/RTC_1.h **** * \param
 971:Generated_Source\PSoC4/RTC_1.h **** *  curYear The current year.
 972:Generated_Source\PSoC4/RTC_1.h **** *
 973:Generated_Source\PSoC4/RTC_1.h **** * \return
 974:Generated_Source\PSoC4/RTC_1.h **** *  Returns the year which follows after the current year.
 975:Generated_Source\PSoC4/RTC_1.h **** * \endinternal
 976:Generated_Source\PSoC4/RTC_1.h **** *******************************************************************************/
 977:Generated_Source\PSoC4/RTC_1.h **** static CY_INLINE uint32 RTC_1_GetNextYear(uint32 curYear)
 978:Generated_Source\PSoC4/RTC_1.h **** {
 979:Generated_Source\PSoC4/RTC_1.h ****     return(curYear + 1u);
 980:Generated_Source\PSoC4/RTC_1.h **** }
 981:Generated_Source\PSoC4/RTC_1.h **** 
 982:Generated_Source\PSoC4/RTC_1.h **** 
 983:Generated_Source\PSoC4/RTC_1.h **** /*******************************************************************************
 984:Generated_Source\PSoC4/RTC_1.h **** * Function Name: RTC_1_SetTimeFormat
 985:Generated_Source\PSoC4/RTC_1.h **** ****************************************************************************//**
 986:Generated_Source\PSoC4/RTC_1.h **** * \internal
 987:Generated_Source\PSoC4/RTC_1.h **** * \brief
 988:Generated_Source\PSoC4/RTC_1.h **** *  Updates the "Time Format" value in the variable that contains time in the
 989:Generated_Source\PSoC4/RTC_1.h **** *  "HH:MM:SS" format.
 990:Generated_Source\PSoC4/RTC_1.h **** *
 991:Generated_Source\PSoC4/RTC_1.h **** * \param
 992:Generated_Source\PSoC4/RTC_1.h **** *  inputTime The current value of the time in the "HH:MM:SS" format.
 993:Generated_Source\PSoC4/RTC_1.h **** *
 994:Generated_Source\PSoC4/RTC_1.h **** * \return
 995:Generated_Source\PSoC4/RTC_1.h **** *  Returns the updated value of the time in the "HH:MM:SS" format.
 996:Generated_Source\PSoC4/RTC_1.h **** * \endinternal
 997:Generated_Source\PSoC4/RTC_1.h **** *******************************************************************************/
 998:Generated_Source\PSoC4/RTC_1.h **** static CY_INLINE uint32 RTC_1_SetTimeFormat(uint32 inputTime, uint32 timeFormat)
ARM GAS  C:\Users\7709\AppData\Local\Temp\ccYsxBBo.s 			page 27


 999:Generated_Source\PSoC4/RTC_1.h **** {
1000:Generated_Source\PSoC4/RTC_1.h ****     inputTime &= ~(RTC_1_TIME_FORMAT_MASK);
1001:Generated_Source\PSoC4/RTC_1.h **** 
1002:Generated_Source\PSoC4/RTC_1.h ****     if((uint32)RTC_1_12_HOURS_FORMAT != timeFormat)
1003:Generated_Source\PSoC4/RTC_1.h ****     {
1004:Generated_Source\PSoC4/RTC_1.h ****         inputTime |= RTC_1_TIME_FORMAT_MASK;
1005:Generated_Source\PSoC4/RTC_1.h ****     }
1006:Generated_Source\PSoC4/RTC_1.h **** 
1007:Generated_Source\PSoC4/RTC_1.h ****     return(inputTime);
1008:Generated_Source\PSoC4/RTC_1.h **** }
1009:Generated_Source\PSoC4/RTC_1.h **** 
1010:Generated_Source\PSoC4/RTC_1.h **** 
1011:Generated_Source\PSoC4/RTC_1.h **** /*******************************************************************************
1012:Generated_Source\PSoC4/RTC_1.h **** * Function Name: RTC_1_GetTimeFormat
1013:Generated_Source\PSoC4/RTC_1.h **** ****************************************************************************//**
1014:Generated_Source\PSoC4/RTC_1.h **** * \internal
1015:Generated_Source\PSoC4/RTC_1.h **** * \brief
1016:Generated_Source\PSoC4/RTC_1.h **** *  Reads the time format from the variable that contains time in the
1017:Generated_Source\PSoC4/RTC_1.h **** *  "HH:MM:SS" format.
1018:Generated_Source\PSoC4/RTC_1.h **** *
1019:Generated_Source\PSoC4/RTC_1.h **** * \param
1020:Generated_Source\PSoC4/RTC_1.h **** *  inputTime The current value of the time in the "HH:MM:SS" format.
1021:Generated_Source\PSoC4/RTC_1.h **** *
1022:Generated_Source\PSoC4/RTC_1.h **** * \return
1023:Generated_Source\PSoC4/RTC_1.h **** *  Returns the time format that is stored in the variable that contains time
1024:Generated_Source\PSoC4/RTC_1.h **** *  in the "HH:MM:SS" format.
1025:Generated_Source\PSoC4/RTC_1.h **** * \endinternal
1026:Generated_Source\PSoC4/RTC_1.h **** *******************************************************************************/
1027:Generated_Source\PSoC4/RTC_1.h **** static CY_INLINE uint32 RTC_1_GetTimeFormat(uint32 inputTime)
1028:Generated_Source\PSoC4/RTC_1.h **** {
 485              		.loc 1 1028 0
 486              		.cfi_startproc
 487              		@ args = 0, pretend = 0, frame = 8
 488              		@ frame_needed = 1, uses_anonymous_args = 0
 489 0000 80B5     		push	{r7, lr}
 490              		.cfi_def_cfa_offset 8
 491              		.cfi_offset 7, -8
 492              		.cfi_offset 14, -4
 493 0002 82B0     		sub	sp, sp, #8
 494              		.cfi_def_cfa_offset 16
 495 0004 00AF     		add	r7, sp, #0
 496              		.cfi_def_cfa_register 7
 497 0006 7860     		str	r0, [r7, #4]
1029:Generated_Source\PSoC4/RTC_1.h ****     return ((0uL != (inputTime & (1uL << RTC_1_TIME_FORMAT_OFFSET))) ? (uint32)RTC_1_12_HOURS_FORMA
 498              		.loc 1 1029 0
 499 0008 7A68     		ldr	r2, [r7, #4]
 500 000a 8023     		movs	r3, #128
 501 000c 1B04     		lsls	r3, r3, #16
 502 000e 1340     		ands	r3, r2
 503 0010 01D0     		beq	.L26
 504              		.loc 1 1029 0 is_stmt 0 discriminator 1
 505 0012 0123     		movs	r3, #1
 506 0014 00E0     		b	.L28
 507              	.L26:
 508              		.loc 1 1029 0 discriminator 2
 509 0016 0023     		movs	r3, #0
 510              	.L28:
ARM GAS  C:\Users\7709\AppData\Local\Temp\ccYsxBBo.s 			page 28


1030:Generated_Source\PSoC4/RTC_1.h ****                                                                                   (uint32)RTC_1_24_
1031:Generated_Source\PSoC4/RTC_1.h **** }
 511              		.loc 1 1031 0 is_stmt 1 discriminator 5
 512 0018 1800     		movs	r0, r3
 513 001a BD46     		mov	sp, r7
 514 001c 02B0     		add	sp, sp, #8
 515              		@ sp needed
 516 001e 80BD     		pop	{r7, pc}
 517              		.cfi_endproc
 518              	.LFE24:
 519              		.size	RTC_1_GetTimeFormat, .-RTC_1_GetTimeFormat
 520              		.global	__aeabi_uidiv
 521              		.section	.text.RTC_1_ConstructTime,"ax",%progbits
 522              		.align	2
 523              		.code	16
 524              		.thumb_func
 525              		.type	RTC_1_ConstructTime, %function
 526              	RTC_1_ConstructTime:
 527              	.LFB25:
1032:Generated_Source\PSoC4/RTC_1.h **** 
1033:Generated_Source\PSoC4/RTC_1.h **** 
1034:Generated_Source\PSoC4/RTC_1.h **** /*******************************************************************************
1035:Generated_Source\PSoC4/RTC_1.h **** * Function Name: RTC_1_ConstructTime
1036:Generated_Source\PSoC4/RTC_1.h **** ****************************************************************************//**
1037:Generated_Source\PSoC4/RTC_1.h **** *
1038:Generated_Source\PSoC4/RTC_1.h **** * \brief
1039:Generated_Source\PSoC4/RTC_1.h **** *  Returns the time in the format used in APIs from individual elements
1040:Generated_Source\PSoC4/RTC_1.h **** *  passed (hour, min, sec etc)
1041:Generated_Source\PSoC4/RTC_1.h **** *
1042:Generated_Source\PSoC4/RTC_1.h **** * \param
1043:Generated_Source\PSoC4/RTC_1.h **** * timeFormat The 12/24 hours time format <br>
1044:Generated_Source\PSoC4/RTC_1.h **** * RTC_1_24_HOURS_FORMAT - The 24 hours format. <br>
1045:Generated_Source\PSoC4/RTC_1.h **** * RTC_1_12_HOURS_FORMAT - The 12 hours format.
1046:Generated_Source\PSoC4/RTC_1.h **** *
1047:Generated_Source\PSoC4/RTC_1.h **** * \param
1048:Generated_Source\PSoC4/RTC_1.h **** * stateAmPm  The AM/PM status <br>
1049:Generated_Source\PSoC4/RTC_1.h **** * RTC_1_AM - AM. <br>
1050:Generated_Source\PSoC4/RTC_1.h **** * RTC_1_PM - PM.
1051:Generated_Source\PSoC4/RTC_1.h **** *
1052:Generated_Source\PSoC4/RTC_1.h **** * \param
1053:Generated_Source\PSoC4/RTC_1.h **** *  hour The hour.
1054:Generated_Source\PSoC4/RTC_1.h **** *
1055:Generated_Source\PSoC4/RTC_1.h **** * \param
1056:Generated_Source\PSoC4/RTC_1.h **** *  min The minute.
1057:Generated_Source\PSoC4/RTC_1.h **** *
1058:Generated_Source\PSoC4/RTC_1.h **** * \param
1059:Generated_Source\PSoC4/RTC_1.h **** *  sec The second.
1060:Generated_Source\PSoC4/RTC_1.h **** *
1061:Generated_Source\PSoC4/RTC_1.h **** * \return
1062:Generated_Source\PSoC4/RTC_1.h **** *  Time in the format used in API.
1063:Generated_Source\PSoC4/RTC_1.h **** *
1064:Generated_Source\PSoC4/RTC_1.h **** *******************************************************************************/
1065:Generated_Source\PSoC4/RTC_1.h **** static CY_INLINE uint32 RTC_1_ConstructTime(uint32 timeFormat, uint32 stateAmPm, uint32 hour, uint3
1066:Generated_Source\PSoC4/RTC_1.h **** {
 528              		.loc 1 1066 0
 529              		.cfi_startproc
 530              		@ args = 4, pretend = 0, frame = 24
ARM GAS  C:\Users\7709\AppData\Local\Temp\ccYsxBBo.s 			page 29


 531              		@ frame_needed = 1, uses_anonymous_args = 0
 532 0000 80B5     		push	{r7, lr}
 533              		.cfi_def_cfa_offset 8
 534              		.cfi_offset 7, -8
 535              		.cfi_offset 14, -4
 536 0002 86B0     		sub	sp, sp, #24
 537              		.cfi_def_cfa_offset 32
 538 0004 00AF     		add	r7, sp, #0
 539              		.cfi_def_cfa_register 7
 540 0006 F860     		str	r0, [r7, #12]
 541 0008 B960     		str	r1, [r7, #8]
 542 000a 7A60     		str	r2, [r7, #4]
 543 000c 3B60     		str	r3, [r7]
1067:Generated_Source\PSoC4/RTC_1.h ****     uint32 retVal;
1068:Generated_Source\PSoC4/RTC_1.h **** 
1069:Generated_Source\PSoC4/RTC_1.h ****     retVal  = timeFormat << RTC_1_TIME_FORMAT_OFFSET;
 544              		.loc 1 1069 0
 545 000e FB68     		ldr	r3, [r7, #12]
 546 0010 DB05     		lsls	r3, r3, #23
 547 0012 7B61     		str	r3, [r7, #20]
1070:Generated_Source\PSoC4/RTC_1.h ****     retVal |= stateAmPm << RTC_1_PERIOD_OF_DAY_OFFSET;
 548              		.loc 1 1070 0
 549 0014 BB68     		ldr	r3, [r7, #8]
 550 0016 9B05     		lsls	r3, r3, #22
 551 0018 7A69     		ldr	r2, [r7, #20]
 552 001a 1343     		orrs	r3, r2
 553 001c 7B61     		str	r3, [r7, #20]
1071:Generated_Source\PSoC4/RTC_1.h **** 
1072:Generated_Source\PSoC4/RTC_1.h ****     retVal |= (hour / 10u) << RTC_1_10_HOURS_OFFSET;
 554              		.loc 1 1072 0
 555 001e 7B68     		ldr	r3, [r7, #4]
 556 0020 0A21     		movs	r1, #10
 557 0022 1800     		movs	r0, r3
 558 0024 FFF7FEFF 		bl	__aeabi_uidiv
 559 0028 0300     		movs	r3, r0
 560 002a 1B05     		lsls	r3, r3, #20
 561 002c 7A69     		ldr	r2, [r7, #20]
 562 002e 1343     		orrs	r3, r2
 563 0030 7B61     		str	r3, [r7, #20]
1073:Generated_Source\PSoC4/RTC_1.h ****     retVal |= (hour % 10u) << RTC_1_HOURS_OFFSET;
 564              		.loc 1 1073 0
 565 0032 7B68     		ldr	r3, [r7, #4]
 566 0034 0A21     		movs	r1, #10
 567 0036 1800     		movs	r0, r3
 568 0038 FFF7FEFF 		bl	__aeabi_uidivmod
 569 003c 0B00     		movs	r3, r1
 570 003e 1B04     		lsls	r3, r3, #16
 571 0040 7A69     		ldr	r2, [r7, #20]
 572 0042 1343     		orrs	r3, r2
 573 0044 7B61     		str	r3, [r7, #20]
1074:Generated_Source\PSoC4/RTC_1.h **** 
1075:Generated_Source\PSoC4/RTC_1.h ****     retVal |= (min / 10u) << RTC_1_10_MINUTES_OFFSET;
 574              		.loc 1 1075 0
 575 0046 3B68     		ldr	r3, [r7]
 576 0048 0A21     		movs	r1, #10
 577 004a 1800     		movs	r0, r3
 578 004c FFF7FEFF 		bl	__aeabi_uidiv
ARM GAS  C:\Users\7709\AppData\Local\Temp\ccYsxBBo.s 			page 30


 579 0050 0300     		movs	r3, r0
 580 0052 1B03     		lsls	r3, r3, #12
 581 0054 7A69     		ldr	r2, [r7, #20]
 582 0056 1343     		orrs	r3, r2
 583 0058 7B61     		str	r3, [r7, #20]
1076:Generated_Source\PSoC4/RTC_1.h ****     retVal |= (min % 10u) << RTC_1_MINUTES_OFFSET;
 584              		.loc 1 1076 0
 585 005a 3B68     		ldr	r3, [r7]
 586 005c 0A21     		movs	r1, #10
 587 005e 1800     		movs	r0, r3
 588 0060 FFF7FEFF 		bl	__aeabi_uidivmod
 589 0064 0B00     		movs	r3, r1
 590 0066 1B02     		lsls	r3, r3, #8
 591 0068 7A69     		ldr	r2, [r7, #20]
 592 006a 1343     		orrs	r3, r2
 593 006c 7B61     		str	r3, [r7, #20]
1077:Generated_Source\PSoC4/RTC_1.h **** 
1078:Generated_Source\PSoC4/RTC_1.h ****     retVal |= (sec / 10u) << RTC_1_10_SECONDS_OFFSET;
 594              		.loc 1 1078 0
 595 006e 3B6A     		ldr	r3, [r7, #32]
 596 0070 0A21     		movs	r1, #10
 597 0072 1800     		movs	r0, r3
 598 0074 FFF7FEFF 		bl	__aeabi_uidiv
 599 0078 0300     		movs	r3, r0
 600 007a 1B01     		lsls	r3, r3, #4
 601 007c 7A69     		ldr	r2, [r7, #20]
 602 007e 1343     		orrs	r3, r2
 603 0080 7B61     		str	r3, [r7, #20]
1079:Generated_Source\PSoC4/RTC_1.h ****     retVal |= (sec % 10u) << RTC_1_SECONDS_OFFSET;
 604              		.loc 1 1079 0
 605 0082 3B6A     		ldr	r3, [r7, #32]
 606 0084 0A21     		movs	r1, #10
 607 0086 1800     		movs	r0, r3
 608 0088 FFF7FEFF 		bl	__aeabi_uidivmod
 609 008c 0B00     		movs	r3, r1
 610 008e 1A00     		movs	r2, r3
 611 0090 7B69     		ldr	r3, [r7, #20]
 612 0092 1343     		orrs	r3, r2
 613 0094 7B61     		str	r3, [r7, #20]
1080:Generated_Source\PSoC4/RTC_1.h **** 
1081:Generated_Source\PSoC4/RTC_1.h ****     return (retVal);
 614              		.loc 1 1081 0
 615 0096 7B69     		ldr	r3, [r7, #20]
1082:Generated_Source\PSoC4/RTC_1.h **** }
 616              		.loc 1 1082 0
 617 0098 1800     		movs	r0, r3
 618 009a BD46     		mov	sp, r7
 619 009c 06B0     		add	sp, sp, #24
 620              		@ sp needed
 621 009e 80BD     		pop	{r7, pc}
 622              		.cfi_endproc
 623              	.LFE25:
 624              		.size	RTC_1_ConstructTime, .-RTC_1_ConstructTime
 625              		.section	.text.RTC_1_ConstructDate,"ax",%progbits
 626              		.align	2
 627              		.code	16
 628              		.thumb_func
ARM GAS  C:\Users\7709\AppData\Local\Temp\ccYsxBBo.s 			page 31


 629              		.type	RTC_1_ConstructDate, %function
 630              	RTC_1_ConstructDate:
 631              	.LFB26:
1083:Generated_Source\PSoC4/RTC_1.h **** 
1084:Generated_Source\PSoC4/RTC_1.h **** 
1085:Generated_Source\PSoC4/RTC_1.h **** /*******************************************************************************
1086:Generated_Source\PSoC4/RTC_1.h **** * Function Name: RTC_1_ConstructDate
1087:Generated_Source\PSoC4/RTC_1.h **** ****************************************************************************//**
1088:Generated_Source\PSoC4/RTC_1.h **** *
1089:Generated_Source\PSoC4/RTC_1.h **** * \brief
1090:Generated_Source\PSoC4/RTC_1.h **** *  Returns the date in the format used in APIs from individual elements
1091:Generated_Source\PSoC4/RTC_1.h **** *  passed (day. Month and year)
1092:Generated_Source\PSoC4/RTC_1.h **** *
1093:Generated_Source\PSoC4/RTC_1.h **** * \param
1094:Generated_Source\PSoC4/RTC_1.h **** *  month The month.
1095:Generated_Source\PSoC4/RTC_1.h **** *
1096:Generated_Source\PSoC4/RTC_1.h **** * \param
1097:Generated_Source\PSoC4/RTC_1.h **** *  day The day.
1098:Generated_Source\PSoC4/RTC_1.h **** *
1099:Generated_Source\PSoC4/RTC_1.h **** * \param
1100:Generated_Source\PSoC4/RTC_1.h **** *  year The year.
1101:Generated_Source\PSoC4/RTC_1.h **** *
1102:Generated_Source\PSoC4/RTC_1.h **** * \return
1103:Generated_Source\PSoC4/RTC_1.h **** *  The date in the format used in API.
1104:Generated_Source\PSoC4/RTC_1.h **** *
1105:Generated_Source\PSoC4/RTC_1.h **** *******************************************************************************/
1106:Generated_Source\PSoC4/RTC_1.h **** static CY_INLINE uint32 RTC_1_ConstructDate(uint32 month, uint32 day, uint32 year)
1107:Generated_Source\PSoC4/RTC_1.h **** {
 632              		.loc 1 1107 0
 633              		.cfi_startproc
 634              		@ args = 0, pretend = 0, frame = 24
 635              		@ frame_needed = 1, uses_anonymous_args = 0
 636 0000 80B5     		push	{r7, lr}
 637              		.cfi_def_cfa_offset 8
 638              		.cfi_offset 7, -8
 639              		.cfi_offset 14, -4
 640 0002 86B0     		sub	sp, sp, #24
 641              		.cfi_def_cfa_offset 32
 642 0004 00AF     		add	r7, sp, #0
 643              		.cfi_def_cfa_register 7
 644 0006 F860     		str	r0, [r7, #12]
 645 0008 B960     		str	r1, [r7, #8]
 646 000a 7A60     		str	r2, [r7, #4]
1108:Generated_Source\PSoC4/RTC_1.h ****     uint32 retVal;
1109:Generated_Source\PSoC4/RTC_1.h ****     uint32 tmpVal = year;
 647              		.loc 1 1109 0
 648 000c 7B68     		ldr	r3, [r7, #4]
 649 000e 7B61     		str	r3, [r7, #20]
1110:Generated_Source\PSoC4/RTC_1.h **** 
1111:Generated_Source\PSoC4/RTC_1.h ****     retVal  = (month / 10u) << RTC_1_10_MONTH_OFFSET;
 650              		.loc 1 1111 0
 651 0010 FB68     		ldr	r3, [r7, #12]
 652 0012 0A21     		movs	r1, #10
 653 0014 1800     		movs	r0, r3
 654 0016 FFF7FEFF 		bl	__aeabi_uidiv
 655 001a 0300     		movs	r3, r0
 656 001c 1B05     		lsls	r3, r3, #20
ARM GAS  C:\Users\7709\AppData\Local\Temp\ccYsxBBo.s 			page 32


 657 001e 3B61     		str	r3, [r7, #16]
1112:Generated_Source\PSoC4/RTC_1.h ****     retVal |= (month % 10u) << RTC_1_MONTH_OFFSET;
 658              		.loc 1 1112 0
 659 0020 FB68     		ldr	r3, [r7, #12]
 660 0022 0A21     		movs	r1, #10
 661 0024 1800     		movs	r0, r3
 662 0026 FFF7FEFF 		bl	__aeabi_uidivmod
 663 002a 0B00     		movs	r3, r1
 664 002c 1B04     		lsls	r3, r3, #16
 665 002e 3A69     		ldr	r2, [r7, #16]
 666 0030 1343     		orrs	r3, r2
 667 0032 3B61     		str	r3, [r7, #16]
1113:Generated_Source\PSoC4/RTC_1.h **** 
1114:Generated_Source\PSoC4/RTC_1.h ****     retVal |= (day / 10u) << RTC_1_10_DAY_OFFSET;
 668              		.loc 1 1114 0
 669 0034 BB68     		ldr	r3, [r7, #8]
 670 0036 0A21     		movs	r1, #10
 671 0038 1800     		movs	r0, r3
 672 003a FFF7FEFF 		bl	__aeabi_uidiv
 673 003e 0300     		movs	r3, r0
 674 0040 1B07     		lsls	r3, r3, #28
 675 0042 3A69     		ldr	r2, [r7, #16]
 676 0044 1343     		orrs	r3, r2
 677 0046 3B61     		str	r3, [r7, #16]
1115:Generated_Source\PSoC4/RTC_1.h ****     retVal |= (day % 10u) << RTC_1_DAY_OFFSET;
 678              		.loc 1 1115 0
 679 0048 BB68     		ldr	r3, [r7, #8]
 680 004a 0A21     		movs	r1, #10
 681 004c 1800     		movs	r0, r3
 682 004e FFF7FEFF 		bl	__aeabi_uidivmod
 683 0052 0B00     		movs	r3, r1
 684 0054 1B06     		lsls	r3, r3, #24
 685 0056 3A69     		ldr	r2, [r7, #16]
 686 0058 1343     		orrs	r3, r2
 687 005a 3B61     		str	r3, [r7, #16]
1116:Generated_Source\PSoC4/RTC_1.h **** 
1117:Generated_Source\PSoC4/RTC_1.h ****     retVal |= (year / 1000u) << RTC_1_1000_YEAR_OFFSET;
 688              		.loc 1 1117 0
 689 005c 7A68     		ldr	r2, [r7, #4]
 690 005e FA23     		movs	r3, #250
 691 0060 9900     		lsls	r1, r3, #2
 692 0062 1000     		movs	r0, r2
 693 0064 FFF7FEFF 		bl	__aeabi_uidiv
 694 0068 0300     		movs	r3, r0
 695 006a 1B03     		lsls	r3, r3, #12
 696 006c 3A69     		ldr	r2, [r7, #16]
 697 006e 1343     		orrs	r3, r2
 698 0070 3B61     		str	r3, [r7, #16]
1118:Generated_Source\PSoC4/RTC_1.h ****     tmpVal %= 1000u;
 699              		.loc 1 1118 0
 700 0072 7A69     		ldr	r2, [r7, #20]
 701 0074 FA23     		movs	r3, #250
 702 0076 9900     		lsls	r1, r3, #2
 703 0078 1000     		movs	r0, r2
 704 007a FFF7FEFF 		bl	__aeabi_uidivmod
 705 007e 0B00     		movs	r3, r1
 706 0080 7B61     		str	r3, [r7, #20]
ARM GAS  C:\Users\7709\AppData\Local\Temp\ccYsxBBo.s 			page 33


1119:Generated_Source\PSoC4/RTC_1.h **** 
1120:Generated_Source\PSoC4/RTC_1.h ****     retVal |= (tmpVal / 100u) << RTC_1_100_YEAR_OFFSET;
 707              		.loc 1 1120 0
 708 0082 7B69     		ldr	r3, [r7, #20]
 709 0084 6421     		movs	r1, #100
 710 0086 1800     		movs	r0, r3
 711 0088 FFF7FEFF 		bl	__aeabi_uidiv
 712 008c 0300     		movs	r3, r0
 713 008e 1B02     		lsls	r3, r3, #8
 714 0090 3A69     		ldr	r2, [r7, #16]
 715 0092 1343     		orrs	r3, r2
 716 0094 3B61     		str	r3, [r7, #16]
1121:Generated_Source\PSoC4/RTC_1.h ****     tmpVal %= 100u;
 717              		.loc 1 1121 0
 718 0096 7B69     		ldr	r3, [r7, #20]
 719 0098 6421     		movs	r1, #100
 720 009a 1800     		movs	r0, r3
 721 009c FFF7FEFF 		bl	__aeabi_uidivmod
 722 00a0 0B00     		movs	r3, r1
 723 00a2 7B61     		str	r3, [r7, #20]
1122:Generated_Source\PSoC4/RTC_1.h **** 
1123:Generated_Source\PSoC4/RTC_1.h ****     retVal |= (tmpVal / 10u) << RTC_1_10_YEAR_OFFSET;
 724              		.loc 1 1123 0
 725 00a4 7B69     		ldr	r3, [r7, #20]
 726 00a6 0A21     		movs	r1, #10
 727 00a8 1800     		movs	r0, r3
 728 00aa FFF7FEFF 		bl	__aeabi_uidiv
 729 00ae 0300     		movs	r3, r0
 730 00b0 1B01     		lsls	r3, r3, #4
 731 00b2 3A69     		ldr	r2, [r7, #16]
 732 00b4 1343     		orrs	r3, r2
 733 00b6 3B61     		str	r3, [r7, #16]
1124:Generated_Source\PSoC4/RTC_1.h ****     retVal |= (tmpVal % 10u) << RTC_1_YEAR_OFFSET;
 734              		.loc 1 1124 0
 735 00b8 7B69     		ldr	r3, [r7, #20]
 736 00ba 0A21     		movs	r1, #10
 737 00bc 1800     		movs	r0, r3
 738 00be FFF7FEFF 		bl	__aeabi_uidivmod
 739 00c2 0B00     		movs	r3, r1
 740 00c4 1A00     		movs	r2, r3
 741 00c6 3B69     		ldr	r3, [r7, #16]
 742 00c8 1343     		orrs	r3, r2
 743 00ca 3B61     		str	r3, [r7, #16]
1125:Generated_Source\PSoC4/RTC_1.h **** 
1126:Generated_Source\PSoC4/RTC_1.h ****     return (retVal);
 744              		.loc 1 1126 0
 745 00cc 3B69     		ldr	r3, [r7, #16]
1127:Generated_Source\PSoC4/RTC_1.h **** }
 746              		.loc 1 1127 0
 747 00ce 1800     		movs	r0, r3
 748 00d0 BD46     		mov	sp, r7
 749 00d2 06B0     		add	sp, sp, #24
 750              		@ sp needed
 751 00d4 80BD     		pop	{r7, pc}
 752              		.cfi_endproc
 753              	.LFE26:
 754              		.size	RTC_1_ConstructDate, .-RTC_1_ConstructDate
ARM GAS  C:\Users\7709\AppData\Local\Temp\ccYsxBBo.s 			page 34


 755              		.section	.text.RTC_1_GetDayOfWeek,"ax",%progbits
 756              		.align	2
 757              		.code	16
 758              		.thumb_func
 759              		.type	RTC_1_GetDayOfWeek, %function
 760              	RTC_1_GetDayOfWeek:
 761              	.LFB27:
1128:Generated_Source\PSoC4/RTC_1.h **** 
1129:Generated_Source\PSoC4/RTC_1.h **** 
1130:Generated_Source\PSoC4/RTC_1.h **** /*******************************************************************************
1131:Generated_Source\PSoC4/RTC_1.h **** * Function Name: RTC_1_GetDayOfWeek
1132:Generated_Source\PSoC4/RTC_1.h **** ****************************************************************************//**
1133:Generated_Source\PSoC4/RTC_1.h **** * \internal
1134:Generated_Source\PSoC4/RTC_1.h **** *
1135:Generated_Source\PSoC4/RTC_1.h **** * \brief
1136:Generated_Source\PSoC4/RTC_1.h **** *  Returns a day of the week for a year, month, and day of month that are passed
1137:Generated_Source\PSoC4/RTC_1.h **** *  through parameters. Zeller's congruence is used to calculate the day of
1138:Generated_Source\PSoC4/RTC_1.h **** *  the week.
1139:Generated_Source\PSoC4/RTC_1.h **** *
1140:Generated_Source\PSoC4/RTC_1.h **** *  For the Georgian calendar, Zeller's congruence is:
1141:Generated_Source\PSoC4/RTC_1.h **** *  h = (q + [13 * (m + 1)] + K + [K/4] + [J/4] - 2J) mod 7
1142:Generated_Source\PSoC4/RTC_1.h **** *
1143:Generated_Source\PSoC4/RTC_1.h **** *  h - The day of the week (0 = Saturday, 1 = Sunday, 2 = Monday, ..., 6 = Friday).
1144:Generated_Source\PSoC4/RTC_1.h **** *  q - The day of the month.
1145:Generated_Source\PSoC4/RTC_1.h **** *  m - The month (3 = March, 4 = April, 5 = May, ..., 14 = February)
1146:Generated_Source\PSoC4/RTC_1.h **** *  K - The year of the century (year \mod 100).
1147:Generated_Source\PSoC4/RTC_1.h **** *  J - The zero-based century (actually [year/100]) For example, the zero-based
1148:Generated_Source\PSoC4/RTC_1.h **** *  centuries for 1995 and 2000 are 19 and 20 respectively (not to be
1149:Generated_Source\PSoC4/RTC_1.h **** *  confused with the common ordinal century enumeration which indicates
1150:Generated_Source\PSoC4/RTC_1.h **** *  20th for both cases).
1151:Generated_Source\PSoC4/RTC_1.h **** *
1152:Generated_Source\PSoC4/RTC_1.h **** * \note In this algorithm January and February are counted as months 13 and 14
1153:Generated_Source\PSoC4/RTC_1.h **** * of the previous year.
1154:Generated_Source\PSoC4/RTC_1.h **** *
1155:Generated_Source\PSoC4/RTC_1.h **** * \param
1156:Generated_Source\PSoC4/RTC_1.h **** *  day The day of the month(1..31)
1157:Generated_Source\PSoC4/RTC_1.h **** *
1158:Generated_Source\PSoC4/RTC_1.h **** * \param
1159:Generated_Source\PSoC4/RTC_1.h **** *  month The month of the year
1160:Generated_Source\PSoC4/RTC_1.h **** * RTC_1_JANUARY <br>
1161:Generated_Source\PSoC4/RTC_1.h **** * RTC_1_FEBRUARY <br>
1162:Generated_Source\PSoC4/RTC_1.h **** * RTC_1_MARCH <br>
1163:Generated_Source\PSoC4/RTC_1.h **** * RTC_1_APRIL <br>
1164:Generated_Source\PSoC4/RTC_1.h **** * RTC_1_MAY <br>
1165:Generated_Source\PSoC4/RTC_1.h **** * RTC_1_JUNE <br>
1166:Generated_Source\PSoC4/RTC_1.h **** * RTC_1_JULY <br>
1167:Generated_Source\PSoC4/RTC_1.h **** * RTC_1_AUGUST <br>
1168:Generated_Source\PSoC4/RTC_1.h **** * RTC_1_SEPTEMBER <br>
1169:Generated_Source\PSoC4/RTC_1.h **** * RTC_1_OCTOBER <br>
1170:Generated_Source\PSoC4/RTC_1.h **** * RTC_1_NOVEMBER <br>
1171:Generated_Source\PSoC4/RTC_1.h **** * RTC_1_DECEMBER <br>
1172:Generated_Source\PSoC4/RTC_1.h **** *
1173:Generated_Source\PSoC4/RTC_1.h **** * \param
1174:Generated_Source\PSoC4/RTC_1.h **** *  year The year value.
1175:Generated_Source\PSoC4/RTC_1.h **** *
1176:Generated_Source\PSoC4/RTC_1.h **** * \return
1177:Generated_Source\PSoC4/RTC_1.h **** * Returns a day of the week
ARM GAS  C:\Users\7709\AppData\Local\Temp\ccYsxBBo.s 			page 35


1178:Generated_Source\PSoC4/RTC_1.h **** * RTC_1_SUNDAY <br>
1179:Generated_Source\PSoC4/RTC_1.h **** * RTC_1_MONDAY <br>
1180:Generated_Source\PSoC4/RTC_1.h **** * RTC_1_TUESDAY <br>
1181:Generated_Source\PSoC4/RTC_1.h **** * RTC_1_WEDNESDAY <br>
1182:Generated_Source\PSoC4/RTC_1.h **** * RTC_1_THURSDAY <br>
1183:Generated_Source\PSoC4/RTC_1.h **** * RTC_1_FRIDAY <br>
1184:Generated_Source\PSoC4/RTC_1.h **** * RTC_1_SATURDAY <br>
1185:Generated_Source\PSoC4/RTC_1.h **** *
1186:Generated_Source\PSoC4/RTC_1.h **** * \endinternal
1187:Generated_Source\PSoC4/RTC_1.h **** *******************************************************************************/
1188:Generated_Source\PSoC4/RTC_1.h **** static CY_INLINE uint32 RTC_1_GetDayOfWeek(uint32 day, uint32 month, uint32 year)
1189:Generated_Source\PSoC4/RTC_1.h **** {
 762              		.loc 1 1189 0
 763              		.cfi_startproc
 764              		@ args = 0, pretend = 0, frame = 24
 765              		@ frame_needed = 1, uses_anonymous_args = 0
 766 0000 90B5     		push	{r4, r7, lr}
 767              		.cfi_def_cfa_offset 12
 768              		.cfi_offset 4, -12
 769              		.cfi_offset 7, -8
 770              		.cfi_offset 14, -4
 771 0002 87B0     		sub	sp, sp, #28
 772              		.cfi_def_cfa_offset 40
 773 0004 00AF     		add	r7, sp, #0
 774              		.cfi_def_cfa_register 7
 775 0006 F860     		str	r0, [r7, #12]
 776 0008 B960     		str	r1, [r7, #8]
 777 000a 7A60     		str	r2, [r7, #4]
1190:Generated_Source\PSoC4/RTC_1.h ****     uint32 retVal;
1191:Generated_Source\PSoC4/RTC_1.h **** 
1192:Generated_Source\PSoC4/RTC_1.h ****     /* Converts month number from regular convention
1193:Generated_Source\PSoC4/RTC_1.h ****      * (1=January,..., 12=December) to convention required for this
1194:Generated_Source\PSoC4/RTC_1.h ****      * algorithm(January and February are counted as months 13 and 14 of
1195:Generated_Source\PSoC4/RTC_1.h ****      * previous year).
1196:Generated_Source\PSoC4/RTC_1.h ****     */
1197:Generated_Source\PSoC4/RTC_1.h ****     if(month < (uint32)RTC_1_MARCH)
 778              		.loc 1 1197 0
 779 000c BB68     		ldr	r3, [r7, #8]
 780 000e 022B     		cmp	r3, #2
 781 0010 05D8     		bhi	.L34
1198:Generated_Source\PSoC4/RTC_1.h ****     {
1199:Generated_Source\PSoC4/RTC_1.h ****         month = 12u + month;
 782              		.loc 1 1199 0
 783 0012 BB68     		ldr	r3, [r7, #8]
 784 0014 0C33     		adds	r3, r3, #12
 785 0016 BB60     		str	r3, [r7, #8]
1200:Generated_Source\PSoC4/RTC_1.h ****         year--;
 786              		.loc 1 1200 0
 787 0018 7B68     		ldr	r3, [r7, #4]
 788 001a 013B     		subs	r3, r3, #1
 789 001c 7B60     		str	r3, [r7, #4]
 790              	.L34:
1201:Generated_Source\PSoC4/RTC_1.h ****     }
1202:Generated_Source\PSoC4/RTC_1.h **** 
1203:Generated_Source\PSoC4/RTC_1.h ****     /* Calculates Day of Week using Zeller's congruence algorithms.
1204:Generated_Source\PSoC4/RTC_1.h ****     */
1205:Generated_Source\PSoC4/RTC_1.h ****     retVal = (day + (((month + 1u) * 26u) / 10u) + year + (year / 4u) + (6u * (year / 100u)) + (yea
ARM GAS  C:\Users\7709\AppData\Local\Temp\ccYsxBBo.s 			page 36


 791              		.loc 1 1205 0
 792 001e BB68     		ldr	r3, [r7, #8]
 793 0020 0133     		adds	r3, r3, #1
 794 0022 1A22     		movs	r2, #26
 795 0024 5343     		muls	r3, r2
 796 0026 0A21     		movs	r1, #10
 797 0028 1800     		movs	r0, r3
 798 002a FFF7FEFF 		bl	__aeabi_uidiv
 799 002e 0300     		movs	r3, r0
 800 0030 1A00     		movs	r2, r3
 801 0032 FB68     		ldr	r3, [r7, #12]
 802 0034 D218     		adds	r2, r2, r3
 803 0036 7B68     		ldr	r3, [r7, #4]
 804 0038 D218     		adds	r2, r2, r3
 805 003a 7B68     		ldr	r3, [r7, #4]
 806 003c 9B08     		lsrs	r3, r3, #2
 807 003e D418     		adds	r4, r2, r3
 808 0040 7B68     		ldr	r3, [r7, #4]
 809 0042 6421     		movs	r1, #100
 810 0044 1800     		movs	r0, r3
 811 0046 FFF7FEFF 		bl	__aeabi_uidiv
 812 004a 0300     		movs	r3, r0
 813 004c 1A00     		movs	r2, r3
 814 004e 1300     		movs	r3, r2
 815 0050 5B00     		lsls	r3, r3, #1
 816 0052 9B18     		adds	r3, r3, r2
 817 0054 5B00     		lsls	r3, r3, #1
 818 0056 E418     		adds	r4, r4, r3
 819 0058 7A68     		ldr	r2, [r7, #4]
 820 005a C823     		movs	r3, #200
 821 005c 5900     		lsls	r1, r3, #1
 822 005e 1000     		movs	r0, r2
 823 0060 FFF7FEFF 		bl	__aeabi_uidiv
 824 0064 0300     		movs	r3, r0
 825 0066 E318     		adds	r3, r4, r3
 826 0068 0721     		movs	r1, #7
 827 006a 1800     		movs	r0, r3
 828 006c FFF7FEFF 		bl	__aeabi_uidivmod
 829 0070 0B00     		movs	r3, r1
 830 0072 7B61     		str	r3, [r7, #20]
1206:Generated_Source\PSoC4/RTC_1.h **** 
1207:Generated_Source\PSoC4/RTC_1.h ****     /* Makes correction for Saturday. Saturday number should be 7 instead of 0. */
1208:Generated_Source\PSoC4/RTC_1.h ****     if(0u == retVal)
 831              		.loc 1 1208 0
 832 0074 7B69     		ldr	r3, [r7, #20]
 833 0076 002B     		cmp	r3, #0
 834 0078 01D1     		bne	.L35
1209:Generated_Source\PSoC4/RTC_1.h ****     {
1210:Generated_Source\PSoC4/RTC_1.h ****         retVal = (uint32)RTC_1_SATURDAY;
 835              		.loc 1 1210 0
 836 007a 0723     		movs	r3, #7
 837 007c 7B61     		str	r3, [r7, #20]
 838              	.L35:
1211:Generated_Source\PSoC4/RTC_1.h ****     }
1212:Generated_Source\PSoC4/RTC_1.h **** 
1213:Generated_Source\PSoC4/RTC_1.h ****     return(retVal);
 839              		.loc 1 1213 0
ARM GAS  C:\Users\7709\AppData\Local\Temp\ccYsxBBo.s 			page 37


 840 007e 7B69     		ldr	r3, [r7, #20]
1214:Generated_Source\PSoC4/RTC_1.h **** }
 841              		.loc 1 1214 0
 842 0080 1800     		movs	r0, r3
 843 0082 BD46     		mov	sp, r7
 844 0084 07B0     		add	sp, sp, #28
 845              		@ sp needed
 846 0086 90BD     		pop	{r4, r7, pc}
 847              		.cfi_endproc
 848              	.LFE27:
 849              		.size	RTC_1_GetDayOfWeek, .-RTC_1_GetDayOfWeek
 850              		.section	.text.RTC_1_CySysRtcSetCallback,"ax",%progbits
 851              		.align	2
 852              		.code	16
 853              		.thumb_func
 854              		.type	RTC_1_CySysRtcSetCallback, %function
 855              	RTC_1_CySysRtcSetCallback:
 856              	.LFB28:
1215:Generated_Source\PSoC4/RTC_1.h **** 
1216:Generated_Source\PSoC4/RTC_1.h **** 
1217:Generated_Source\PSoC4/RTC_1.h **** #if defined(CYDEV_RTC_SOURCE_WDT)
1218:Generated_Source\PSoC4/RTC_1.h ****     #if((0u != CYDEV_WDT_GENERATE_ISR) && (0u == RTC_1_INITIAL_UPDATE_MODE))
1219:Generated_Source\PSoC4/RTC_1.h **** 
1220:Generated_Source\PSoC4/RTC_1.h ****         /*******************************************************************************
1221:Generated_Source\PSoC4/RTC_1.h ****         * Function Name: RTC_1_CySysRtcSetCallback
1222:Generated_Source\PSoC4/RTC_1.h ****         ****************************************************************************//**
1223:Generated_Source\PSoC4/RTC_1.h ****         * \internal
1224:Generated_Source\PSoC4/RTC_1.h ****         * \brief
1225:Generated_Source\PSoC4/RTC_1.h ****         *  This is an internal function that registers a callback for the
1226:Generated_Source\PSoC4/RTC_1.h ****         *  RTC_1_Update() function by address "0".
1227:Generated_Source\PSoC4/RTC_1.h ****         *
1228:Generated_Source\PSoC4/RTC_1.h ****         * \param
1229:Generated_Source\PSoC4/RTC_1.h ****         *  wdtNumber The number of the WDT or WCO timer to be used to pull the
1230:Generated_Source\PSoC4/RTC_1.h ****         *  RTC_1_Update() function.
1231:Generated_Source\PSoC4/RTC_1.h ****         *
1232:Generated_Source\PSoC4/RTC_1.h ****         *  The callback registered before by address "0" is replaced
1233:Generated_Source\PSoC4/RTC_1.h ****         *  by the RTC_1_Update() function.
1234:Generated_Source\PSoC4/RTC_1.h ****         * \endinternal
1235:Generated_Source\PSoC4/RTC_1.h ****         *******************************************************************************/
1236:Generated_Source\PSoC4/RTC_1.h ****         static CY_INLINE void RTC_1_CySysRtcSetCallback(uint32 wdtNumber)
1237:Generated_Source\PSoC4/RTC_1.h ****         {
 857              		.loc 1 1237 0
 858              		.cfi_startproc
 859              		@ args = 0, pretend = 0, frame = 8
 860              		@ frame_needed = 1, uses_anonymous_args = 0
 861 0000 80B5     		push	{r7, lr}
 862              		.cfi_def_cfa_offset 8
 863              		.cfi_offset 7, -8
 864              		.cfi_offset 14, -4
 865 0002 82B0     		sub	sp, sp, #8
 866              		.cfi_def_cfa_offset 16
 867 0004 00AF     		add	r7, sp, #0
 868              		.cfi_def_cfa_register 7
 869 0006 7860     		str	r0, [r7, #4]
1238:Generated_Source\PSoC4/RTC_1.h ****             #if((0u != CY_IP_WCO_WDT_EN) && (0u != CY_IP_SRSSLT))
1239:Generated_Source\PSoC4/RTC_1.h ****                 (void)CySysTimerSetInterruptCallback(wdtNumber, RTC_1_Update);
1240:Generated_Source\PSoC4/RTC_1.h ****             #else
ARM GAS  C:\Users\7709\AppData\Local\Temp\ccYsxBBo.s 			page 38


1241:Generated_Source\PSoC4/RTC_1.h ****                 (void)CySysWdtSetIsrCallback(wdtNumber, RTC_1_Update);
 870              		.loc 1 1241 0
 871 0008 044A     		ldr	r2, .L38
 872 000a 7B68     		ldr	r3, [r7, #4]
 873 000c 1100     		movs	r1, r2
 874 000e 1800     		movs	r0, r3
 875 0010 FFF7FEFF 		bl	CySysWdtSetInterruptCallback
1242:Generated_Source\PSoC4/RTC_1.h ****             #endif /* ((0u != CY_IP_WCO_WDT_EN) && (0u != CY_IP_SRSSLT)) */
1243:Generated_Source\PSoC4/RTC_1.h ****         }
 876              		.loc 1 1243 0
 877 0014 C046     		nop
 878 0016 BD46     		mov	sp, r7
 879 0018 02B0     		add	sp, sp, #8
 880              		@ sp needed
 881 001a 80BD     		pop	{r7, pc}
 882              	.L39:
 883              		.align	2
 884              	.L38:
 885 001c 00000000 		.word	RTC_1_Update
 886              		.cfi_endproc
 887              	.LFE28:
 888              		.size	RTC_1_CySysRtcSetCallback, .-RTC_1_CySysRtcSetCallback
 889              		.section	.text.RTC_1_CySysRtcResetCallback,"ax",%progbits
 890              		.align	2
 891              		.code	16
 892              		.thumb_func
 893              		.type	RTC_1_CySysRtcResetCallback, %function
 894              	RTC_1_CySysRtcResetCallback:
 895              	.LFB29:
1244:Generated_Source\PSoC4/RTC_1.h **** 
1245:Generated_Source\PSoC4/RTC_1.h **** 
1246:Generated_Source\PSoC4/RTC_1.h ****         /*******************************************************************************
1247:Generated_Source\PSoC4/RTC_1.h ****         * Function Name: RTC_1_CySysRtcResetCallback
1248:Generated_Source\PSoC4/RTC_1.h ****         ****************************************************************************//**
1249:Generated_Source\PSoC4/RTC_1.h ****         * \internal
1250:Generated_Source\PSoC4/RTC_1.h ****         * \brief
1251:Generated_Source\PSoC4/RTC_1.h ****         *  This is an internal function that clears a callback by address "0".
1252:Generated_Source\PSoC4/RTC_1.h ****         *
1253:Generated_Source\PSoC4/RTC_1.h ****         * \param
1254:Generated_Source\PSoC4/RTC_1.h ****         *  wdtNumber The number of the WDT or WCO timer to be cleared callback for.
1255:Generated_Source\PSoC4/RTC_1.h ****         *
1256:Generated_Source\PSoC4/RTC_1.h ****         *  The callback registered before by address "0" is replaced
1257:Generated_Source\PSoC4/RTC_1.h ****         *  by the NULL pointer.
1258:Generated_Source\PSoC4/RTC_1.h ****         * \endinternal
1259:Generated_Source\PSoC4/RTC_1.h ****         *******************************************************************************/
1260:Generated_Source\PSoC4/RTC_1.h ****         static CY_INLINE void RTC_1_CySysRtcResetCallback(uint32 wdtNumber)
1261:Generated_Source\PSoC4/RTC_1.h ****         {
 896              		.loc 1 1261 0
 897              		.cfi_startproc
 898              		@ args = 0, pretend = 0, frame = 8
 899              		@ frame_needed = 1, uses_anonymous_args = 0
 900 0000 80B5     		push	{r7, lr}
 901              		.cfi_def_cfa_offset 8
 902              		.cfi_offset 7, -8
 903              		.cfi_offset 14, -4
 904 0002 82B0     		sub	sp, sp, #8
 905              		.cfi_def_cfa_offset 16
ARM GAS  C:\Users\7709\AppData\Local\Temp\ccYsxBBo.s 			page 39


 906 0004 00AF     		add	r7, sp, #0
 907              		.cfi_def_cfa_register 7
 908 0006 7860     		str	r0, [r7, #4]
1262:Generated_Source\PSoC4/RTC_1.h ****             #if((0u != CY_IP_WCO_WDT_EN) && (0u != CY_IP_SRSSLT))
1263:Generated_Source\PSoC4/RTC_1.h ****                 (void)CySysTimerSetInterruptCallback(wdtNumber, (void *)0);
1264:Generated_Source\PSoC4/RTC_1.h ****             #else
1265:Generated_Source\PSoC4/RTC_1.h ****                 (void)CySysWdtSetIsrCallback(wdtNumber, (void *)0);
 909              		.loc 1 1265 0
 910 0008 7B68     		ldr	r3, [r7, #4]
 911 000a 0021     		movs	r1, #0
 912 000c 1800     		movs	r0, r3
 913 000e FFF7FEFF 		bl	CySysWdtSetInterruptCallback
1266:Generated_Source\PSoC4/RTC_1.h ****             #endif /* ((0u != CY_IP_WCO_WDT_EN) && (0u != CY_IP_SRSSLT)) */
1267:Generated_Source\PSoC4/RTC_1.h ****         }
 914              		.loc 1 1267 0
 915 0012 C046     		nop
 916 0014 BD46     		mov	sp, r7
 917 0016 02B0     		add	sp, sp, #8
 918              		@ sp needed
 919 0018 80BD     		pop	{r7, pc}
 920              		.cfi_endproc
 921              	.LFE29:
 922              		.size	RTC_1_CySysRtcResetCallback, .-RTC_1_CySysRtcResetCallback
 923              		.comm	RTC_1_initVar,1,1
 924              		.comm	RTC_1_unixTime,8,8
 925              		.comm	RTC_1_currentTimeDate,16,4
 926 001a C046     		.bss
 927              		.align	2
 928              	RTC_1_updateTimePeriod:
 929 0000 00000000 		.space	4
 930              		.align	2
 931              	RTC_1_tickRefOneSec:
 932 0004 00000000 		.space	4
 933              		.comm	RTC_1_dstStatus,1,1
 934              		.align	2
 935              	RTC_1_dstTimeOffset:
 936 0008 00000000 		.space	4
 937              		.comm	RTC_1_alarmCurStatus,4,4
 938              		.global	RTC_1_daysBeforeMonthTbl
 939              		.section	.rodata
 940              		.align	2
 941              		.type	RTC_1_daysBeforeMonthTbl, %object
 942              		.size	RTC_1_daysBeforeMonthTbl, 24
 943              	RTC_1_daysBeforeMonthTbl:
 944 0000 0000     		.short	0
 945 0002 1F00     		.short	31
 946 0004 3B00     		.short	59
 947 0006 5A00     		.short	90
 948 0008 7800     		.short	120
 949 000a 9700     		.short	151
 950 000c B500     		.short	181
 951 000e D400     		.short	212
 952 0010 F300     		.short	243
 953 0012 1101     		.short	273
 954 0014 3001     		.short	304
 955 0016 4E01     		.short	334
 956              		.global	RTC_1_daysInMonthTbl
ARM GAS  C:\Users\7709\AppData\Local\Temp\ccYsxBBo.s 			page 40


 957              		.align	2
 958              		.type	RTC_1_daysInMonthTbl, %object
 959              		.size	RTC_1_daysInMonthTbl, 12
 960              	RTC_1_daysInMonthTbl:
 961 0018 1F       		.byte	31
 962 0019 1C       		.byte	28
 963 001a 1F       		.byte	31
 964 001b 1E       		.byte	30
 965 001c 1F       		.byte	31
 966 001d 1E       		.byte	30
 967 001e 1F       		.byte	31
 968 001f 1F       		.byte	31
 969 0020 1E       		.byte	30
 970 0021 1F       		.byte	31
 971 0022 1E       		.byte	30
 972 0023 1F       		.byte	31
 973              		.section	.text.RTC_1_Start,"ax",%progbits
 974              		.align	2
 975              		.global	RTC_1_Start
 976              		.code	16
 977              		.thumb_func
 978              		.type	RTC_1_Start, %function
 979              	RTC_1_Start:
 980              	.LFB30:
 981              		.file 2 "Generated_Source\\PSoC4\\RTC_1.c"
   1:Generated_Source\PSoC4/RTC_1.c **** /***************************************************************************//**
   2:Generated_Source\PSoC4/RTC_1.c **** * \file Name: RTC_1.c
   3:Generated_Source\PSoC4/RTC_1.c **** * \version 1.10
   4:Generated_Source\PSoC4/RTC_1.c **** *
   5:Generated_Source\PSoC4/RTC_1.c **** * \brief
   6:Generated_Source\PSoC4/RTC_1.c **** *  This file provides the source code to the API for the RTC_P4 Component.
   7:Generated_Source\PSoC4/RTC_1.c **** *
   8:Generated_Source\PSoC4/RTC_1.c **** ********************************************************************************
   9:Generated_Source\PSoC4/RTC_1.c **** * \copyright
  10:Generated_Source\PSoC4/RTC_1.c **** * Copyright 2015-2016, Cypress Semiconductor Corporation. All rights reserved.
  11:Generated_Source\PSoC4/RTC_1.c **** * You may use this file only in accordance with the license, terms, conditions,
  12:Generated_Source\PSoC4/RTC_1.c **** * disclaimers, and limitations in the end user license agreement accompanying
  13:Generated_Source\PSoC4/RTC_1.c **** * the software package with which this file was provided.
  14:Generated_Source\PSoC4/RTC_1.c **** *******************************************************************************/
  15:Generated_Source\PSoC4/RTC_1.c **** 
  16:Generated_Source\PSoC4/RTC_1.c **** #include "RTC_1.h"
  17:Generated_Source\PSoC4/RTC_1.c **** 
  18:Generated_Source\PSoC4/RTC_1.c **** uint8  RTC_1_initVar;
  19:Generated_Source\PSoC4/RTC_1.c **** 
  20:Generated_Source\PSoC4/RTC_1.c **** volatile uint64 RTC_1_unixTime;
  21:Generated_Source\PSoC4/RTC_1.c **** RTC_1_DATE_TIME RTC_1_currentTimeDate;
  22:Generated_Source\PSoC4/RTC_1.c **** 
  23:Generated_Source\PSoC4/RTC_1.c **** static uint32 RTC_1_updateTimePeriod;
  24:Generated_Source\PSoC4/RTC_1.c **** static uint32 RTC_1_tickRefOneSec;
  25:Generated_Source\PSoC4/RTC_1.c **** 
  26:Generated_Source\PSoC4/RTC_1.c **** uint8  RTC_1_dstStatus;
  27:Generated_Source\PSoC4/RTC_1.c **** static uint32 RTC_1_dstTimeOffset;
  28:Generated_Source\PSoC4/RTC_1.c **** #if(0u != RTC_1_INITIAL_DST_STATUS)
  29:Generated_Source\PSoC4/RTC_1.c ****     static volatile uint64 RTC_1_unixTimeDstStart;
  30:Generated_Source\PSoC4/RTC_1.c ****     static volatile uint64 RTC_1_unixTimeDstStop;
  31:Generated_Source\PSoC4/RTC_1.c ****     RTC_1_DST_TIME RTC_1_dstStartTime;
  32:Generated_Source\PSoC4/RTC_1.c ****     RTC_1_DST_TIME RTC_1_dstStopTime;
ARM GAS  C:\Users\7709\AppData\Local\Temp\ccYsxBBo.s 			page 41


  33:Generated_Source\PSoC4/RTC_1.c **** #endif /* (0u != RTC_1_INITIAL_DST_STATUS) */
  34:Generated_Source\PSoC4/RTC_1.c **** 
  35:Generated_Source\PSoC4/RTC_1.c **** uint32 RTC_1_alarmCurStatus;
  36:Generated_Source\PSoC4/RTC_1.c **** #if(0u != RTC_1_INITIAL_ALARM_STATUS)
  37:Generated_Source\PSoC4/RTC_1.c ****     uint32  RTC_1_alarmCfgMask = 0xFFu;
  38:Generated_Source\PSoC4/RTC_1.c ****     static volatile uint64 RTC_1_unixTimeAlarm;
  39:Generated_Source\PSoC4/RTC_1.c ****     RTC_1_DATE_TIME RTC_1_alarmCfgTimeDate;
  40:Generated_Source\PSoC4/RTC_1.c ****     void (*RTC_1_alarmCallbackPtr)(void) = (void *)0;
  41:Generated_Source\PSoC4/RTC_1.c **** #endif /* (0u != RTC_1_INITIAL_ALARM_STATUS) */
  42:Generated_Source\PSoC4/RTC_1.c **** 
  43:Generated_Source\PSoC4/RTC_1.c **** const uint16 RTC_1_daysBeforeMonthTbl[RTC_1_MONTHS_PER_YEAR] = {
  44:Generated_Source\PSoC4/RTC_1.c ****                                                  (0u), /* JANUARY */
  45:Generated_Source\PSoC4/RTC_1.c ****                                                  (0u + 31u), /* FEBRUARY */
  46:Generated_Source\PSoC4/RTC_1.c ****                                                  (0u + 31u + 28u), /* MARCH */
  47:Generated_Source\PSoC4/RTC_1.c ****                                                  (0u + 31u + 28u + 31u), /* APRIL */
  48:Generated_Source\PSoC4/RTC_1.c ****                                                  (0u + 31u + 28u + 31u + 30u), /* MAY */
  49:Generated_Source\PSoC4/RTC_1.c ****                                                  (0u + 31u + 28u + 31u + 30u + 31u), /* JUNE */
  50:Generated_Source\PSoC4/RTC_1.c ****                                                  (0u + 31u + 28u + 31u + 30u + 31u + 30u), /* JULY 
  51:Generated_Source\PSoC4/RTC_1.c ****                                                  (0u + 31u + 28u + 31u + 30u + 31u + 30u + 31u), /*
  52:Generated_Source\PSoC4/RTC_1.c ****                                                  (0u + 31u + 28u + 31u + 30u + 31u + 30u + 31u + 31
  53:Generated_Source\PSoC4/RTC_1.c ****                                                  (0u + 31u + 28u + 31u + 30u + 31u + 30u + 31u + 31
  54:Generated_Source\PSoC4/RTC_1.c ****                                                  (0u + 31u + 28u + 31u + 30u + 31u + 30u + 31u + 31
  55:Generated_Source\PSoC4/RTC_1.c ****                                                  (0u + 31u + 28u + 31u + 30u + 31u + 30u + 31u + 31
  56:Generated_Source\PSoC4/RTC_1.c **** 
  57:Generated_Source\PSoC4/RTC_1.c **** const uint8 RTC_1_daysInMonthTbl[RTC_1_MONTHS_PER_YEAR] = {RTC_1_DAYS_IN_JANUARY,
  58:Generated_Source\PSoC4/RTC_1.c ****                                                                                  RTC_1_DAYS_IN_FEBR
  59:Generated_Source\PSoC4/RTC_1.c ****                                                                                  RTC_1_DAYS_IN_MARC
  60:Generated_Source\PSoC4/RTC_1.c ****                                                                                  RTC_1_DAYS_IN_APRI
  61:Generated_Source\PSoC4/RTC_1.c ****                                                                                  RTC_1_DAYS_IN_MAY,
  62:Generated_Source\PSoC4/RTC_1.c ****                                                                                  RTC_1_DAYS_IN_JUNE
  63:Generated_Source\PSoC4/RTC_1.c ****                                                                                  RTC_1_DAYS_IN_JULY
  64:Generated_Source\PSoC4/RTC_1.c ****                                                                                  RTC_1_DAYS_IN_AUGU
  65:Generated_Source\PSoC4/RTC_1.c ****                                                                                  RTC_1_DAYS_IN_SEPT
  66:Generated_Source\PSoC4/RTC_1.c ****                                                                                  RTC_1_DAYS_IN_OCTO
  67:Generated_Source\PSoC4/RTC_1.c ****                                                                                  RTC_1_DAYS_IN_NOVE
  68:Generated_Source\PSoC4/RTC_1.c ****                                                                                  RTC_1_DAYS_IN_DECE
  69:Generated_Source\PSoC4/RTC_1.c **** 
  70:Generated_Source\PSoC4/RTC_1.c **** 
  71:Generated_Source\PSoC4/RTC_1.c **** /*******************************************************************************
  72:Generated_Source\PSoC4/RTC_1.c **** * Function Name: RTC_1_Start
  73:Generated_Source\PSoC4/RTC_1.c **** ****************************************************************************//**
  74:Generated_Source\PSoC4/RTC_1.c **** *
  75:Generated_Source\PSoC4/RTC_1.c **** * \brief
  76:Generated_Source\PSoC4/RTC_1.c **** *  Performs all the required calculations for the time and date registers and
  77:Generated_Source\PSoC4/RTC_1.c **** *  initializes the component along with the date and time selected in the
  78:Generated_Source\PSoC4/RTC_1.c **** *  customizer. 
  79:Generated_Source\PSoC4/RTC_1.c **** *
  80:Generated_Source\PSoC4/RTC_1.c **** *  If "Implement RTC update manually" is disabled in the customizer
  81:Generated_Source\PSoC4/RTC_1.c **** *  and if WDT or WCO timer is selected as a source in the clocks configuration 
  82:Generated_Source\PSoC4/RTC_1.c **** *  window (low frequency clocks tab), attaches RTC_Update API to a corresponding
  83:Generated_Source\PSoC4/RTC_1.c **** *  WDT's or WCO's ISR callback.
  84:Generated_Source\PSoC4/RTC_1.c **** *
  85:Generated_Source\PSoC4/RTC_1.c **** * \note "Implement RTC update manually" checkbox is available for PSoC 4200L / 
  86:Generated_Source\PSoC4/RTC_1.c **** * PSoC 4100M / PSoC 4200M / PSoC 4100 BLE / PSoC 4200 BLE / PSoC 4000S / PSoC 
  87:Generated_Source\PSoC4/RTC_1.c **** * 4100S and Analog Coprocessor.
  88:Generated_Source\PSoC4/RTC_1.c **** *
  89:Generated_Source\PSoC4/RTC_1.c **** *******************************************************************************/
ARM GAS  C:\Users\7709\AppData\Local\Temp\ccYsxBBo.s 			page 42


  90:Generated_Source\PSoC4/RTC_1.c **** void RTC_1_Start(void)
  91:Generated_Source\PSoC4/RTC_1.c **** {
 982              		.loc 2 91 0
 983              		.cfi_startproc
 984              		@ args = 0, pretend = 0, frame = 0
 985              		@ frame_needed = 1, uses_anonymous_args = 0
 986 0000 80B5     		push	{r7, lr}
 987              		.cfi_def_cfa_offset 8
 988              		.cfi_offset 7, -8
 989              		.cfi_offset 14, -4
 990 0002 00AF     		add	r7, sp, #0
 991              		.cfi_def_cfa_register 7
  92:Generated_Source\PSoC4/RTC_1.c ****     if(0u == RTC_1_initVar)
 992              		.loc 2 92 0
 993 0004 054B     		ldr	r3, .L43
 994 0006 1B78     		ldrb	r3, [r3]
 995 0008 002B     		cmp	r3, #0
 996 000a 01D1     		bne	.L42
  93:Generated_Source\PSoC4/RTC_1.c ****     {
  94:Generated_Source\PSoC4/RTC_1.c ****         RTC_1_Init();
 997              		.loc 2 94 0
 998 000c FFF7FEFF 		bl	RTC_1_Init
 999              	.L42:
  95:Generated_Source\PSoC4/RTC_1.c ****     }
  96:Generated_Source\PSoC4/RTC_1.c **** 
  97:Generated_Source\PSoC4/RTC_1.c ****     #if defined(CYDEV_RTC_SOURCE_WDT)
  98:Generated_Source\PSoC4/RTC_1.c ****         #if((0u != CYDEV_WDT_GENERATE_ISR) && (0u == RTC_1_INITIAL_UPDATE_MODE))
  99:Generated_Source\PSoC4/RTC_1.c ****             RTC_1_CySysRtcSetCallback(CYDEV_RTC_SOURCE_WDT);
 1000              		.loc 2 99 0
 1001 0010 0020     		movs	r0, #0
 1002 0012 FFF7FEFF 		bl	RTC_1_CySysRtcSetCallback
 100:Generated_Source\PSoC4/RTC_1.c ****         #endif /* ((0u != CYDEV_WDT_GENERATE_ISR) && (0u == RTC_1_INITIAL_UPDATE_MODE)) */
 101:Generated_Source\PSoC4/RTC_1.c ****     #endif /* (CYDEV_RTC_SOURCE_WDT) */
 102:Generated_Source\PSoC4/RTC_1.c **** }
 1003              		.loc 2 102 0
 1004 0016 C046     		nop
 1005 0018 BD46     		mov	sp, r7
 1006              		@ sp needed
 1007 001a 80BD     		pop	{r7, pc}
 1008              	.L44:
 1009              		.align	2
 1010              	.L43:
 1011 001c 00000000 		.word	RTC_1_initVar
 1012              		.cfi_endproc
 1013              	.LFE30:
 1014              		.size	RTC_1_Start, .-RTC_1_Start
 1015              		.section	.text.RTC_1_Stop,"ax",%progbits
 1016              		.align	2
 1017              		.global	RTC_1_Stop
 1018              		.code	16
 1019              		.thumb_func
 1020              		.type	RTC_1_Stop, %function
 1021              	RTC_1_Stop:
 1022              	.LFB31:
 103:Generated_Source\PSoC4/RTC_1.c **** 
 104:Generated_Source\PSoC4/RTC_1.c **** 
 105:Generated_Source\PSoC4/RTC_1.c **** /*******************************************************************************
ARM GAS  C:\Users\7709\AppData\Local\Temp\ccYsxBBo.s 			page 43


 106:Generated_Source\PSoC4/RTC_1.c **** * Function Name: RTC_1_Stop
 107:Generated_Source\PSoC4/RTC_1.c **** ****************************************************************************//**
 108:Generated_Source\PSoC4/RTC_1.c **** *
 109:Generated_Source\PSoC4/RTC_1.c **** * \brief
 110:Generated_Source\PSoC4/RTC_1.c **** *  Stops the time and date updates.
 111:Generated_Source\PSoC4/RTC_1.c **** *
 112:Generated_Source\PSoC4/RTC_1.c **** *******************************************************************************/
 113:Generated_Source\PSoC4/RTC_1.c **** void RTC_1_Stop(void)
 114:Generated_Source\PSoC4/RTC_1.c **** {
 1023              		.loc 2 114 0
 1024              		.cfi_startproc
 1025              		@ args = 0, pretend = 0, frame = 0
 1026              		@ frame_needed = 1, uses_anonymous_args = 0
 1027 0000 80B5     		push	{r7, lr}
 1028              		.cfi_def_cfa_offset 8
 1029              		.cfi_offset 7, -8
 1030              		.cfi_offset 14, -4
 1031 0002 00AF     		add	r7, sp, #0
 1032              		.cfi_def_cfa_register 7
 115:Generated_Source\PSoC4/RTC_1.c ****     #if defined(CYDEV_RTC_SOURCE_WDT)
 116:Generated_Source\PSoC4/RTC_1.c ****         #if((0u != CYDEV_WDT_GENERATE_ISR) && (0u == RTC_1_INITIAL_UPDATE_MODE))
 117:Generated_Source\PSoC4/RTC_1.c ****             RTC_1_CySysRtcResetCallback(CYDEV_RTC_SOURCE_WDT);
 1033              		.loc 2 117 0
 1034 0004 0020     		movs	r0, #0
 1035 0006 FFF7FEFF 		bl	RTC_1_CySysRtcResetCallback
 118:Generated_Source\PSoC4/RTC_1.c ****         #endif /* ((0u != CYDEV_WDT_GENERATE_ISR) && (0u == RTC_1_INITIAL_UPDATE_MODE)) */
 119:Generated_Source\PSoC4/RTC_1.c ****     #endif /* (CYDEV_RTC_SOURCE_WDT) */
 120:Generated_Source\PSoC4/RTC_1.c **** }
 1036              		.loc 2 120 0
 1037 000a C046     		nop
 1038 000c BD46     		mov	sp, r7
 1039              		@ sp needed
 1040 000e 80BD     		pop	{r7, pc}
 1041              		.cfi_endproc
 1042              	.LFE31:
 1043              		.size	RTC_1_Stop, .-RTC_1_Stop
 1044              		.section	.text.RTC_1_Init,"ax",%progbits
 1045              		.align	2
 1046              		.global	RTC_1_Init
 1047              		.code	16
 1048              		.thumb_func
 1049              		.type	RTC_1_Init, %function
 1050              	RTC_1_Init:
 1051              	.LFB32:
 121:Generated_Source\PSoC4/RTC_1.c **** 
 122:Generated_Source\PSoC4/RTC_1.c **** 
 123:Generated_Source\PSoC4/RTC_1.c **** /*******************************************************************************
 124:Generated_Source\PSoC4/RTC_1.c **** * Function Name: RTC_1_Init
 125:Generated_Source\PSoC4/RTC_1.c **** ****************************************************************************//**
 126:Generated_Source\PSoC4/RTC_1.c **** *
 127:Generated_Source\PSoC4/RTC_1.c **** * \brief
 128:Generated_Source\PSoC4/RTC_1.c **** *  Initializes or restores the component according to the customizer Configure
 129:Generated_Source\PSoC4/RTC_1.c **** *  dialog settings. 
 130:Generated_Source\PSoC4/RTC_1.c **** *
 131:Generated_Source\PSoC4/RTC_1.c **** * It is not necessary to call RTC_Init() because
 132:Generated_Source\PSoC4/RTC_1.c **** *  RTC_Start() API calls this function and is the preferred method to begin
 133:Generated_Source\PSoC4/RTC_1.c **** *  component operation.
ARM GAS  C:\Users\7709\AppData\Local\Temp\ccYsxBBo.s 			page 44


 134:Generated_Source\PSoC4/RTC_1.c **** *
 135:Generated_Source\PSoC4/RTC_1.c **** *  All registers are set to values according to the customizer Configure
 136:Generated_Source\PSoC4/RTC_1.c **** *  dialog. The default date value, if not set by the user before this function 
 137:Generated_Source\PSoC4/RTC_1.c **** *  call, is 12:00:00 AM January 1, 2000.
 138:Generated_Source\PSoC4/RTC_1.c **** *
 139:Generated_Source\PSoC4/RTC_1.c **** *******************************************************************************/
 140:Generated_Source\PSoC4/RTC_1.c **** void RTC_1_Init(void)
 141:Generated_Source\PSoC4/RTC_1.c **** {
 1052              		.loc 2 141 0
 1053              		.cfi_startproc
 1054              		@ args = 0, pretend = 0, frame = 8
 1055              		@ frame_needed = 1, uses_anonymous_args = 0
 1056 0000 80B5     		push	{r7, lr}
 1057              		.cfi_def_cfa_offset 8
 1058              		.cfi_offset 7, -8
 1059              		.cfi_offset 14, -4
 1060 0002 84B0     		sub	sp, sp, #16
 1061              		.cfi_def_cfa_offset 24
 1062 0004 02AF     		add	r7, sp, #8
 1063              		.cfi_def_cfa 7, 16
 142:Generated_Source\PSoC4/RTC_1.c ****     uint32 tmpDate;
 143:Generated_Source\PSoC4/RTC_1.c ****     uint32 tmpTime;
 144:Generated_Source\PSoC4/RTC_1.c **** 
 145:Generated_Source\PSoC4/RTC_1.c ****     #if(0u != RTC_1_INITIAL_DST_STATUS)
 146:Generated_Source\PSoC4/RTC_1.c ****         RTC_1_DST_TIME dstTimeTmp;
 147:Generated_Source\PSoC4/RTC_1.c ****     #endif /* (0u != RTC_1_INITIAL_DST_STATUS) */
 148:Generated_Source\PSoC4/RTC_1.c **** 
 149:Generated_Source\PSoC4/RTC_1.c ****     RTC_1_initVar = 1u;
 1064              		.loc 2 149 0
 1065 0006 154B     		ldr	r3, .L47
 1066 0008 0122     		movs	r2, #1
 1067 000a 1A70     		strb	r2, [r3]
 150:Generated_Source\PSoC4/RTC_1.c ****     RTC_1_dstTimeOffset = 0uL;
 1068              		.loc 2 150 0
 1069 000c 144B     		ldr	r3, .L47+4
 1070 000e 0022     		movs	r2, #0
 1071 0010 1A60     		str	r2, [r3]
 151:Generated_Source\PSoC4/RTC_1.c ****     RTC_1_currentTimeDate.status = 0uL;
 1072              		.loc 2 151 0
 1073 0012 144B     		ldr	r3, .L47+8
 1074 0014 0022     		movs	r2, #0
 1075 0016 DA60     		str	r2, [r3, #12]
 152:Generated_Source\PSoC4/RTC_1.c **** 
 153:Generated_Source\PSoC4/RTC_1.c ****     RTC_1_dstStatus      = RTC_1_INITIAL_DST_STATUS;
 1076              		.loc 2 153 0
 1077 0018 134B     		ldr	r3, .L47+12
 1078 001a 0022     		movs	r2, #0
 1079 001c 1A70     		strb	r2, [r3]
 154:Generated_Source\PSoC4/RTC_1.c ****     RTC_1_alarmCurStatus = RTC_1_INITIAL_ALARM_STATUS;
 1080              		.loc 2 154 0
 1081 001e 134B     		ldr	r3, .L47+16
 1082 0020 0022     		movs	r2, #0
 1083 0022 1A60     		str	r2, [r3]
 155:Generated_Source\PSoC4/RTC_1.c **** 
 156:Generated_Source\PSoC4/RTC_1.c ****     tmpDate = RTC_1_ConstructDate(RTC_1_INITIAL_MONTH,
 1084              		.loc 2 156 0
 1085 0024 124B     		ldr	r3, .L47+20
ARM GAS  C:\Users\7709\AppData\Local\Temp\ccYsxBBo.s 			page 45


 1086 0026 1A00     		movs	r2, r3
 1087 0028 0421     		movs	r1, #4
 1088 002a 0C20     		movs	r0, #12
 1089 002c FFF7FEFF 		bl	RTC_1_ConstructDate
 1090 0030 0300     		movs	r3, r0
 1091 0032 7B60     		str	r3, [r7, #4]
 157:Generated_Source\PSoC4/RTC_1.c ****                                           RTC_1_INITIAL_DAY,
 158:Generated_Source\PSoC4/RTC_1.c ****                                           RTC_1_INITIAL_YEAR);
 159:Generated_Source\PSoC4/RTC_1.c **** 
 160:Generated_Source\PSoC4/RTC_1.c ****     tmpTime = RTC_1_ConstructTime(RTC_1_INITIAL_TIME_FORMAT,
 1092              		.loc 2 160 0
 1093 0034 0023     		movs	r3, #0
 1094 0036 0093     		str	r3, [sp]
 1095 0038 0023     		movs	r3, #0
 1096 003a 0C22     		movs	r2, #12
 1097 003c 0021     		movs	r1, #0
 1098 003e 0020     		movs	r0, #0
 1099 0040 FFF7FEFF 		bl	RTC_1_ConstructTime
 1100 0044 0300     		movs	r3, r0
 1101 0046 3B60     		str	r3, [r7]
 161:Generated_Source\PSoC4/RTC_1.c ****                                           0u,
 162:Generated_Source\PSoC4/RTC_1.c ****                                           RTC_1_INITIAL_HOUR,
 163:Generated_Source\PSoC4/RTC_1.c ****                                           RTC_1_INITIAL_MINUTE,
 164:Generated_Source\PSoC4/RTC_1.c ****                                           RTC_1_INITIAL_SECOND);
 165:Generated_Source\PSoC4/RTC_1.c **** 
 166:Generated_Source\PSoC4/RTC_1.c ****     #if(0u != RTC_1_INITIAL_DST_STATUS)
 167:Generated_Source\PSoC4/RTC_1.c ****         RTC_1_dstStatus = 0u;
 168:Generated_Source\PSoC4/RTC_1.c ****         RTC_1_currentTimeDate.status = (1uL << RTC_1_STATUS_DST_OFFSET);
 169:Generated_Source\PSoC4/RTC_1.c **** 
 170:Generated_Source\PSoC4/RTC_1.c ****         dstTimeTmp.timeFormat    = RTC_1_INITIAL_DST_DATE_TYPE;
 171:Generated_Source\PSoC4/RTC_1.c ****         dstTimeTmp.hour          = RTC_1_INITIAL_DST_START_HRS;
 172:Generated_Source\PSoC4/RTC_1.c ****         dstTimeTmp.dayOfWeek     = RTC_1_INITIAL_DST_START_DOW;
 173:Generated_Source\PSoC4/RTC_1.c ****         dstTimeTmp.weekOfMonth   = RTC_1_INITIAL_DST_START_WOM;
 174:Generated_Source\PSoC4/RTC_1.c ****         dstTimeTmp.dayOfMonth    = RTC_1_INITIAL_DST_START_DOM;
 175:Generated_Source\PSoC4/RTC_1.c ****         dstTimeTmp.month         = RTC_1_INITIAL_DST_START_MONTH;
 176:Generated_Source\PSoC4/RTC_1.c ****         RTC_1_SetDSTStartTime(&dstTimeTmp, (RTC_1_DST_DATETYPE_ENUM)RTC_1_INITIAL_DST_DATE_TYPE);
 177:Generated_Source\PSoC4/RTC_1.c **** 
 178:Generated_Source\PSoC4/RTC_1.c ****         dstTimeTmp.timeFormat    = RTC_1_INITIAL_DST_DATE_TYPE;
 179:Generated_Source\PSoC4/RTC_1.c ****         dstTimeTmp.hour          = RTC_1_INITIAL_DST_STOP_HRS;
 180:Generated_Source\PSoC4/RTC_1.c ****         dstTimeTmp.dayOfWeek     = RTC_1_INITIAL_DST_STOP_DOW;
 181:Generated_Source\PSoC4/RTC_1.c ****         dstTimeTmp.weekOfMonth   = RTC_1_INITIAL_DST_STOP_WOM;
 182:Generated_Source\PSoC4/RTC_1.c ****         dstTimeTmp.dayOfMonth    = RTC_1_INITIAL_DST_STOP_DOM;
 183:Generated_Source\PSoC4/RTC_1.c ****         dstTimeTmp.month         = RTC_1_INITIAL_DST_STOP_MONTH;
 184:Generated_Source\PSoC4/RTC_1.c ****         RTC_1_SetDSTStopTime(&dstTimeTmp, (RTC_1_DST_DATETYPE_ENUM)RTC_1_INITIAL_DST_DATE_TYPE);
 185:Generated_Source\PSoC4/RTC_1.c **** 
 186:Generated_Source\PSoC4/RTC_1.c ****         RTC_1_unixTimeDstStart = RTC_1_GetDstUnixTime(&RTC_1_dstStartTime);
 187:Generated_Source\PSoC4/RTC_1.c ****         RTC_1_unixTimeDstStop  = RTC_1_GetDstUnixTime(&RTC_1_dstStopTime);
 188:Generated_Source\PSoC4/RTC_1.c **** 
 189:Generated_Source\PSoC4/RTC_1.c ****         if((RTC_1_unixTime >= RTC_1_unixTimeDstStart) &&
 190:Generated_Source\PSoC4/RTC_1.c ****            (RTC_1_unixTime <= RTC_1_unixTimeDstStop))
 191:Generated_Source\PSoC4/RTC_1.c ****         {
 192:Generated_Source\PSoC4/RTC_1.c ****             RTC_1_dstStatus = 1u;
 193:Generated_Source\PSoC4/RTC_1.c ****             RTC_1_dstTimeOffset = RTC_1_SECONDS_PER_HOUR;
 194:Generated_Source\PSoC4/RTC_1.c ****         }
 195:Generated_Source\PSoC4/RTC_1.c ****     #endif /* (0u != RTC_1_INITIAL_DST_STATUS) */
 196:Generated_Source\PSoC4/RTC_1.c **** 
 197:Generated_Source\PSoC4/RTC_1.c ****     RTC_1_SetDateAndTime(tmpTime, tmpDate);
ARM GAS  C:\Users\7709\AppData\Local\Temp\ccYsxBBo.s 			page 46


 1102              		.loc 2 197 0
 1103 0048 7A68     		ldr	r2, [r7, #4]
 1104 004a 3B68     		ldr	r3, [r7]
 1105 004c 1100     		movs	r1, r2
 1106 004e 1800     		movs	r0, r3
 1107 0050 FFF7FEFF 		bl	RTC_1_SetDateAndTime
 198:Generated_Source\PSoC4/RTC_1.c **** }
 1108              		.loc 2 198 0
 1109 0054 C046     		nop
 1110 0056 BD46     		mov	sp, r7
 1111 0058 02B0     		add	sp, sp, #8
 1112              		@ sp needed
 1113 005a 80BD     		pop	{r7, pc}
 1114              	.L48:
 1115              		.align	2
 1116              	.L47:
 1117 005c 00000000 		.word	RTC_1_initVar
 1118 0060 08000000 		.word	RTC_1_dstTimeOffset
 1119 0064 00000000 		.word	RTC_1_currentTimeDate
 1120 0068 00000000 		.word	RTC_1_dstStatus
 1121 006c 00000000 		.word	RTC_1_alarmCurStatus
 1122 0070 E1070000 		.word	2017
 1123              		.cfi_endproc
 1124              	.LFE32:
 1125              		.size	RTC_1_Init, .-RTC_1_Init
 1126              		.section	.text.RTC_1_SetDateAndTime,"ax",%progbits
 1127              		.align	2
 1128              		.global	RTC_1_SetDateAndTime
 1129              		.code	16
 1130              		.thumb_func
 1131              		.type	RTC_1_SetDateAndTime, %function
 1132              	RTC_1_SetDateAndTime:
 1133              	.LFB33:
 199:Generated_Source\PSoC4/RTC_1.c **** 
 200:Generated_Source\PSoC4/RTC_1.c **** 
 201:Generated_Source\PSoC4/RTC_1.c **** /*******************************************************************************
 202:Generated_Source\PSoC4/RTC_1.c **** * Function Name: RTC_1_SetDateAndTime
 203:Generated_Source\PSoC4/RTC_1.c **** ****************************************************************************//**
 204:Generated_Source\PSoC4/RTC_1.c **** *
 205:Generated_Source\PSoC4/RTC_1.c **** * \brief
 206:Generated_Source\PSoC4/RTC_1.c **** * Sets the time and date values as the current time and date.
 207:Generated_Source\PSoC4/RTC_1.c **** *
 208:Generated_Source\PSoC4/RTC_1.c **** * \param
 209:Generated_Source\PSoC4/RTC_1.c **** * inputTime The time value in the HH:MM:SS format. <br>
 210:Generated_Source\PSoC4/RTC_1.c **** * "HH"- The 2nd 8-bit MSB that denotes the hour value.
 211:Generated_Source\PSoC4/RTC_1.c **** * (0-23 for the 24-hour format and 1-12 for the 12-hour format. The MSB bit of the
 212:Generated_Source\PSoC4/RTC_1.c **** * value denotes AM/PM for the 12-hour format (0-AM and 1-PM). <br>
 213:Generated_Source\PSoC4/RTC_1.c **** * "MM" - The 3nd 8-bit MSB denotes the minutes value, the valid entries -> 0-59.<br>
 214:Generated_Source\PSoC4/RTC_1.c **** * "SS" - The 8-bit LSB denotes the seconds value, the valid entries -> 0-59.
 215:Generated_Source\PSoC4/RTC_1.c **** * Each byte is in the BCD format. Invalid time entries retain the
 216:Generated_Source\PSoC4/RTC_1.c **** * previously set values.
 217:Generated_Source\PSoC4/RTC_1.c **** *
 218:Generated_Source\PSoC4/RTC_1.c **** * \param
 219:Generated_Source\PSoC4/RTC_1.c **** *  inputDate The date value in the format selected in the customizer.
 220:Generated_Source\PSoC4/RTC_1.c **** * For the MM/DD/YYYY format: <br>
 221:Generated_Source\PSoC4/RTC_1.c **** * "MM" - The 8-bit MSB denotes the month value in BCD, the valid entries -> 1-12<br>
 222:Generated_Source\PSoC4/RTC_1.c **** * "DD" - The 2nd 8-bit MSB denotes a day of the month value in BCD, the valid
ARM GAS  C:\Users\7709\AppData\Local\Temp\ccYsxBBo.s 			page 47


 223:Generated_Source\PSoC4/RTC_1.c **** * entries -> 1-31.<br>
 224:Generated_Source\PSoC4/RTC_1.c **** * "YYYY" - The 16-bit LSB denotes a year in BCD, the valid entries -> 1900-2200.
 225:Generated_Source\PSoC4/RTC_1.c **** * Each byte is in the BCD format. Invalid date entries retain the
 226:Generated_Source\PSoC4/RTC_1.c **** * previously set values.
 227:Generated_Source\PSoC4/RTC_1.c **** *
 228:Generated_Source\PSoC4/RTC_1.c **** *******************************************************************************/
 229:Generated_Source\PSoC4/RTC_1.c **** void RTC_1_SetDateAndTime(uint32 inputTime, uint32 inputDate)
 230:Generated_Source\PSoC4/RTC_1.c **** {
 1134              		.loc 2 230 0
 1135              		.cfi_startproc
 1136              		@ args = 0, pretend = 0, frame = 24
 1137              		@ frame_needed = 1, uses_anonymous_args = 0
 1138 0000 90B5     		push	{r4, r7, lr}
 1139              		.cfi_def_cfa_offset 12
 1140              		.cfi_offset 4, -12
 1141              		.cfi_offset 7, -8
 1142              		.cfi_offset 14, -4
 1143 0002 87B0     		sub	sp, sp, #28
 1144              		.cfi_def_cfa_offset 40
 1145 0004 00AF     		add	r7, sp, #0
 1146              		.cfi_def_cfa_register 7
 1147 0006 7860     		str	r0, [r7, #4]
 1148 0008 3960     		str	r1, [r7]
 231:Generated_Source\PSoC4/RTC_1.c ****     uint32 tmpDay;
 232:Generated_Source\PSoC4/RTC_1.c ****     uint32 tmpMonth;
 233:Generated_Source\PSoC4/RTC_1.c ****     uint32 tmpYear;
 234:Generated_Source\PSoC4/RTC_1.c **** 
 235:Generated_Source\PSoC4/RTC_1.c ****     tmpDay   = RTC_1_GetDay(inputDate);
 1149              		.loc 2 235 0
 1150 000a 3B68     		ldr	r3, [r7]
 1151 000c 1800     		movs	r0, r3
 1152 000e FFF7FEFF 		bl	RTC_1_GetDay
 1153 0012 0300     		movs	r3, r0
 1154 0014 7B61     		str	r3, [r7, #20]
 236:Generated_Source\PSoC4/RTC_1.c ****     tmpMonth = RTC_1_GetMonth(inputDate);
 1155              		.loc 2 236 0
 1156 0016 3B68     		ldr	r3, [r7]
 1157 0018 1800     		movs	r0, r3
 1158 001a FFF7FEFF 		bl	RTC_1_GetMonth
 1159 001e 0300     		movs	r3, r0
 1160 0020 3B61     		str	r3, [r7, #16]
 237:Generated_Source\PSoC4/RTC_1.c ****     tmpYear  = RTC_1_GetYear(inputDate);
 1161              		.loc 2 237 0
 1162 0022 3B68     		ldr	r3, [r7]
 1163 0024 1800     		movs	r0, r3
 1164 0026 FFF7FEFF 		bl	RTC_1_GetYear
 1165 002a 0300     		movs	r3, r0
 1166 002c FB60     		str	r3, [r7, #12]
 238:Generated_Source\PSoC4/RTC_1.c **** 
 239:Generated_Source\PSoC4/RTC_1.c ****     RTC_1_unixTime = RTC_1_DateTimeToUnix(inputDate, inputTime);
 1167              		.loc 2 239 0
 1168 002e 7A68     		ldr	r2, [r7, #4]
 1169 0030 3B68     		ldr	r3, [r7]
 1170 0032 1100     		movs	r1, r2
 1171 0034 1800     		movs	r0, r3
 1172 0036 FFF7FEFF 		bl	RTC_1_DateTimeToUnix
 1173 003a 0300     		movs	r3, r0
ARM GAS  C:\Users\7709\AppData\Local\Temp\ccYsxBBo.s 			page 48


 1174 003c 0C00     		movs	r4, r1
 1175 003e 0B4A     		ldr	r2, .L50
 1176 0040 1360     		str	r3, [r2]
 1177 0042 5460     		str	r4, [r2, #4]
 240:Generated_Source\PSoC4/RTC_1.c ****     RTC_1_currentTimeDate.date = inputDate;
 1178              		.loc 2 240 0
 1179 0044 0A4B     		ldr	r3, .L50+4
 1180 0046 3A68     		ldr	r2, [r7]
 1181 0048 5A60     		str	r2, [r3, #4]
 241:Generated_Source\PSoC4/RTC_1.c ****     RTC_1_currentTimeDate.time = inputTime;
 1182              		.loc 2 241 0
 1183 004a 094B     		ldr	r3, .L50+4
 1184 004c 7A68     		ldr	r2, [r7, #4]
 1185 004e 1A60     		str	r2, [r3]
 242:Generated_Source\PSoC4/RTC_1.c ****     RTC_1_currentTimeDate.dayOfWeek = RTC_1_GetDayOfWeek(tmpDay, tmpMonth, tmpYear);
 1186              		.loc 2 242 0
 1187 0050 FA68     		ldr	r2, [r7, #12]
 1188 0052 3969     		ldr	r1, [r7, #16]
 1189 0054 7B69     		ldr	r3, [r7, #20]
 1190 0056 1800     		movs	r0, r3
 1191 0058 FFF7FEFF 		bl	RTC_1_GetDayOfWeek
 1192 005c 0200     		movs	r2, r0
 1193 005e 044B     		ldr	r3, .L50+4
 1194 0060 9A60     		str	r2, [r3, #8]
 243:Generated_Source\PSoC4/RTC_1.c **** 
 244:Generated_Source\PSoC4/RTC_1.c ****     #if(0u != RTC_1_INITIAL_DST_STATUS)
 245:Generated_Source\PSoC4/RTC_1.c ****         RTC_1_unixTimeDstStart = RTC_1_GetDstUnixTime(&RTC_1_dstStartTime);
 246:Generated_Source\PSoC4/RTC_1.c ****         RTC_1_unixTimeDstStop  = RTC_1_GetDstUnixTime(&RTC_1_dstStopTime);
 247:Generated_Source\PSoC4/RTC_1.c **** 
 248:Generated_Source\PSoC4/RTC_1.c ****         if((RTC_1_unixTime >= RTC_1_unixTimeDstStart) &&
 249:Generated_Source\PSoC4/RTC_1.c ****            (RTC_1_unixTime <= RTC_1_unixTimeDstStop))
 250:Generated_Source\PSoC4/RTC_1.c ****         {
 251:Generated_Source\PSoC4/RTC_1.c ****             RTC_1_dstStatus = 1u;
 252:Generated_Source\PSoC4/RTC_1.c ****             RTC_1_dstTimeOffset = RTC_1_SECONDS_PER_HOUR;
 253:Generated_Source\PSoC4/RTC_1.c ****             RTC_1_unixTime -= RTC_1_dstTimeOffset;
 254:Generated_Source\PSoC4/RTC_1.c ****         }
 255:Generated_Source\PSoC4/RTC_1.c ****         else
 256:Generated_Source\PSoC4/RTC_1.c ****         {
 257:Generated_Source\PSoC4/RTC_1.c ****             RTC_1_dstStatus = 0u;
 258:Generated_Source\PSoC4/RTC_1.c ****             RTC_1_dstTimeOffset = 0uL;
 259:Generated_Source\PSoC4/RTC_1.c ****         }
 260:Generated_Source\PSoC4/RTC_1.c ****     #endif /* (0u != RTC_1_INITIAL_DST_STATUS) */
 261:Generated_Source\PSoC4/RTC_1.c **** 
 262:Generated_Source\PSoC4/RTC_1.c ****     #if(0u != RTC_1_INITIAL_ALARM_STATUS)
 263:Generated_Source\PSoC4/RTC_1.c ****         RTC_1_unixTimeAlarm = RTC_1_ConstructUnixAlarmTime(&RTC_1_alarmCfgTimeDate,
 264:Generated_Source\PSoC4/RTC_1.c ****                                                                                  (uint8)RTC_1_alarm
 265:Generated_Source\PSoC4/RTC_1.c ****     #endif /* (0u != RTC_1_INITIAL_ALARM_STATUS) */
 266:Generated_Source\PSoC4/RTC_1.c **** }
 1195              		.loc 2 266 0
 1196 0062 C046     		nop
 1197 0064 BD46     		mov	sp, r7
 1198 0066 07B0     		add	sp, sp, #28
 1199              		@ sp needed
 1200 0068 90BD     		pop	{r4, r7, pc}
 1201              	.L51:
 1202 006a C046     		.align	2
 1203              	.L50:
ARM GAS  C:\Users\7709\AppData\Local\Temp\ccYsxBBo.s 			page 49


 1204 006c 00000000 		.word	RTC_1_unixTime
 1205 0070 00000000 		.word	RTC_1_currentTimeDate
 1206              		.cfi_endproc
 1207              	.LFE33:
 1208              		.size	RTC_1_SetDateAndTime, .-RTC_1_SetDateAndTime
 1209              		.section	.text.RTC_1_SetUnixTime,"ax",%progbits
 1210              		.align	2
 1211              		.global	RTC_1_SetUnixTime
 1212              		.code	16
 1213              		.thumb_func
 1214              		.type	RTC_1_SetUnixTime, %function
 1215              	RTC_1_SetUnixTime:
 1216              	.LFB34:
 267:Generated_Source\PSoC4/RTC_1.c **** 
 268:Generated_Source\PSoC4/RTC_1.c **** 
 269:Generated_Source\PSoC4/RTC_1.c **** /*******************************************************************************
 270:Generated_Source\PSoC4/RTC_1.c **** * Function Name: RTC_1_SetUnixTime
 271:Generated_Source\PSoC4/RTC_1.c **** ****************************************************************************//**
 272:Generated_Source\PSoC4/RTC_1.c **** *
 273:Generated_Source\PSoC4/RTC_1.c **** * \brief
 274:Generated_Source\PSoC4/RTC_1.c **** * Sets the time in the Unix/Epoch time format - the number of seconds elapsed 
 275:Generated_Source\PSoC4/RTC_1.c **** *  from January 1, 1970 UTC 00:00 hrs.
 276:Generated_Source\PSoC4/RTC_1.c **** *
 277:Generated_Source\PSoC4/RTC_1.c **** * \param
 278:Generated_Source\PSoC4/RTC_1.c **** *  time The time value in the Unix time/Epoch time format.
 279:Generated_Source\PSoC4/RTC_1.c **** *
 280:Generated_Source\PSoC4/RTC_1.c **** *******************************************************************************/
 281:Generated_Source\PSoC4/RTC_1.c **** void RTC_1_SetUnixTime(uint64 unixTime)
 282:Generated_Source\PSoC4/RTC_1.c **** {
 1217              		.loc 2 282 0
 1218              		.cfi_startproc
 1219              		@ args = 0, pretend = 0, frame = 24
 1220              		@ frame_needed = 1, uses_anonymous_args = 0
 1221 0000 90B5     		push	{r4, r7, lr}
 1222              		.cfi_def_cfa_offset 12
 1223              		.cfi_offset 4, -12
 1224              		.cfi_offset 7, -8
 1225              		.cfi_offset 14, -4
 1226 0002 89B0     		sub	sp, sp, #36
 1227              		.cfi_def_cfa_offset 48
 1228 0004 02AF     		add	r7, sp, #8
 1229              		.cfi_def_cfa 7, 40
 1230 0006 3860     		str	r0, [r7]
 1231 0008 7960     		str	r1, [r7, #4]
 283:Generated_Source\PSoC4/RTC_1.c ****     RTC_1_DATE_TIME tmpDateTime;
 284:Generated_Source\PSoC4/RTC_1.c **** 
 285:Generated_Source\PSoC4/RTC_1.c ****     RTC_1_unixTime = unixTime;
 1232              		.loc 2 285 0
 1233 000a 0A4A     		ldr	r2, .L53
 1234 000c 3B68     		ldr	r3, [r7]
 1235 000e 7C68     		ldr	r4, [r7, #4]
 1236 0010 1360     		str	r3, [r2]
 1237 0012 5460     		str	r4, [r2, #4]
 286:Generated_Source\PSoC4/RTC_1.c ****     RTC_1_UnixToDateTime(&tmpDateTime, unixTime, (uint32)RTC_1_24_HOURS_FORMAT);
 1238              		.loc 2 286 0
 1239 0014 3B68     		ldr	r3, [r7]
 1240 0016 7C68     		ldr	r4, [r7, #4]
ARM GAS  C:\Users\7709\AppData\Local\Temp\ccYsxBBo.s 			page 50


 1241 0018 0822     		movs	r2, #8
 1242 001a B918     		adds	r1, r7, r2
 1243 001c 0022     		movs	r2, #0
 1244 001e 0092     		str	r2, [sp]
 1245 0020 1A00     		movs	r2, r3
 1246 0022 2300     		movs	r3, r4
 1247 0024 0800     		movs	r0, r1
 1248 0026 FFF7FEFF 		bl	RTC_1_UnixToDateTime
 287:Generated_Source\PSoC4/RTC_1.c **** 
 288:Generated_Source\PSoC4/RTC_1.c ****     #if(0u != RTC_1_INITIAL_DST_STATUS)
 289:Generated_Source\PSoC4/RTC_1.c ****         RTC_1_unixTimeDstStart = RTC_1_GetDstUnixTime(&RTC_1_dstStartTime);
 290:Generated_Source\PSoC4/RTC_1.c ****         RTC_1_unixTimeDstStop  = RTC_1_GetDstUnixTime(&RTC_1_dstStopTime);
 291:Generated_Source\PSoC4/RTC_1.c **** 
 292:Generated_Source\PSoC4/RTC_1.c ****         if((RTC_1_unixTime >= RTC_1_unixTimeDstStart) &&
 293:Generated_Source\PSoC4/RTC_1.c ****            (RTC_1_unixTime <= RTC_1_unixTimeDstStop))
 294:Generated_Source\PSoC4/RTC_1.c ****         {
 295:Generated_Source\PSoC4/RTC_1.c ****             RTC_1_dstStatus = 1u;
 296:Generated_Source\PSoC4/RTC_1.c ****             RTC_1_dstTimeOffset = RTC_1_SECONDS_PER_HOUR;
 297:Generated_Source\PSoC4/RTC_1.c ****         }
 298:Generated_Source\PSoC4/RTC_1.c ****         else
 299:Generated_Source\PSoC4/RTC_1.c ****         {
 300:Generated_Source\PSoC4/RTC_1.c ****             RTC_1_dstStatus = 0u;
 301:Generated_Source\PSoC4/RTC_1.c ****             RTC_1_dstTimeOffset = 0uL;
 302:Generated_Source\PSoC4/RTC_1.c ****         }
 303:Generated_Source\PSoC4/RTC_1.c ****     #endif /* (0u != RTC_1_INITIAL_DST_STATUS) */
 304:Generated_Source\PSoC4/RTC_1.c **** }
 1249              		.loc 2 304 0
 1250 002a C046     		nop
 1251 002c BD46     		mov	sp, r7
 1252 002e 07B0     		add	sp, sp, #28
 1253              		@ sp needed
 1254 0030 90BD     		pop	{r4, r7, pc}
 1255              	.L54:
 1256 0032 C046     		.align	2
 1257              	.L53:
 1258 0034 00000000 		.word	RTC_1_unixTime
 1259              		.cfi_endproc
 1260              	.LFE34:
 1261              		.size	RTC_1_SetUnixTime, .-RTC_1_SetUnixTime
 1262              		.section	.text.RTC_1_GetUnixTime,"ax",%progbits
 1263              		.align	2
 1264              		.global	RTC_1_GetUnixTime
 1265              		.code	16
 1266              		.thumb_func
 1267              		.type	RTC_1_GetUnixTime, %function
 1268              	RTC_1_GetUnixTime:
 1269              	.LFB35:
 305:Generated_Source\PSoC4/RTC_1.c **** 
 306:Generated_Source\PSoC4/RTC_1.c **** 
 307:Generated_Source\PSoC4/RTC_1.c **** /*******************************************************************************
 308:Generated_Source\PSoC4/RTC_1.c **** * Function Name: RTC_1_GetUnixTime
 309:Generated_Source\PSoC4/RTC_1.c **** ****************************************************************************//**
 310:Generated_Source\PSoC4/RTC_1.c **** *
 311:Generated_Source\PSoC4/RTC_1.c **** * \brief
 312:Generated_Source\PSoC4/RTC_1.c **** *  Returns the time in the Unix/Epoch time format - the number of seconds 
 313:Generated_Source\PSoC4/RTC_1.c **** * elapsed from January 1, 1970 UTC 00:00 hrs.
 314:Generated_Source\PSoC4/RTC_1.c **** *
ARM GAS  C:\Users\7709\AppData\Local\Temp\ccYsxBBo.s 			page 51


 315:Generated_Source\PSoC4/RTC_1.c **** * \return time The time value in the Unix time/Epoch time format.
 316:Generated_Source\PSoC4/RTC_1.c **** *
 317:Generated_Source\PSoC4/RTC_1.c **** *******************************************************************************/
 318:Generated_Source\PSoC4/RTC_1.c **** uint64 RTC_1_GetUnixTime(void)
 319:Generated_Source\PSoC4/RTC_1.c **** {
 1270              		.loc 2 319 0
 1271              		.cfi_startproc
 1272              		@ args = 0, pretend = 0, frame = 0
 1273              		@ frame_needed = 1, uses_anonymous_args = 0
 1274 0000 90B5     		push	{r4, r7, lr}
 1275              		.cfi_def_cfa_offset 12
 1276              		.cfi_offset 4, -12
 1277              		.cfi_offset 7, -8
 1278              		.cfi_offset 14, -4
 1279 0002 00AF     		add	r7, sp, #0
 1280              		.cfi_def_cfa_register 7
 320:Generated_Source\PSoC4/RTC_1.c ****     return (RTC_1_unixTime);
 1281              		.loc 2 320 0
 1282 0004 034B     		ldr	r3, .L57
 1283 0006 5C68     		ldr	r4, [r3, #4]
 1284 0008 1B68     		ldr	r3, [r3]
 321:Generated_Source\PSoC4/RTC_1.c **** }
 1285              		.loc 2 321 0
 1286 000a 1800     		movs	r0, r3
 1287 000c 2100     		movs	r1, r4
 1288 000e BD46     		mov	sp, r7
 1289              		@ sp needed
 1290 0010 90BD     		pop	{r4, r7, pc}
 1291              	.L58:
 1292 0012 C046     		.align	2
 1293              	.L57:
 1294 0014 00000000 		.word	RTC_1_unixTime
 1295              		.cfi_endproc
 1296              	.LFE35:
 1297              		.size	RTC_1_GetUnixTime, .-RTC_1_GetUnixTime
 1298              		.section	.text.RTC_1_SetPeriod,"ax",%progbits
 1299              		.align	2
 1300              		.global	RTC_1_SetPeriod
 1301              		.code	16
 1302              		.thumb_func
 1303              		.type	RTC_1_SetPeriod, %function
 1304              	RTC_1_SetPeriod:
 1305              	.LFB36:
 322:Generated_Source\PSoC4/RTC_1.c **** 
 323:Generated_Source\PSoC4/RTC_1.c **** 
 324:Generated_Source\PSoC4/RTC_1.c **** /*******************************************************************************
 325:Generated_Source\PSoC4/RTC_1.c **** * Function Name: RTC_1_SetPeriod
 326:Generated_Source\PSoC4/RTC_1.c **** ****************************************************************************//**
 327:Generated_Source\PSoC4/RTC_1.c **** *
 328:Generated_Source\PSoC4/RTC_1.c **** * \brief
 329:Generated_Source\PSoC4/RTC_1.c **** *  Sets the RTC time update API period.
 330:Generated_Source\PSoC4/RTC_1.c **** *
 331:Generated_Source\PSoC4/RTC_1.c **** *  The user needs to pass the period as
 332:Generated_Source\PSoC4/RTC_1.c **** *  a number of ticks and also a reference number of ticks taken by the same clock
 333:Generated_Source\PSoC4/RTC_1.c **** *  source for one second. For instance, for a 32 kHz clock source and RTC
 334:Generated_Source\PSoC4/RTC_1.c **** *  period of 100 ms, the "ticks" value is 3200 and the "refOneSecTicks" value
 335:Generated_Source\PSoC4/RTC_1.c **** *  is 32000. This value is used to increment the time every time
ARM GAS  C:\Users\7709\AppData\Local\Temp\ccYsxBBo.s 			page 52


 336:Generated_Source\PSoC4/RTC_1.c **** *  RTC_1_Update() API is called.
 337:Generated_Source\PSoC4/RTC_1.c **** *
 338:Generated_Source\PSoC4/RTC_1.c **** * \param
 339:Generated_Source\PSoC4/RTC_1.c **** *  ticks The clock period taken as a number of ticks.
 340:Generated_Source\PSoC4/RTC_1.c **** *
 341:Generated_Source\PSoC4/RTC_1.c **** * \param
 342:Generated_Source\PSoC4/RTC_1.c **** * refOneSecTicks The reference number of ticks taken by the same clock source
 343:Generated_Source\PSoC4/RTC_1.c **** *  for one second (the input clock frequency in Hz).
 344:Generated_Source\PSoC4/RTC_1.c **** *
 345:Generated_Source\PSoC4/RTC_1.c **** *******************************************************************************/
 346:Generated_Source\PSoC4/RTC_1.c **** void RTC_1_SetPeriod(uint32 ticks, uint32 refOneSecTicks)
 347:Generated_Source\PSoC4/RTC_1.c **** {
 1306              		.loc 2 347 0
 1307              		.cfi_startproc
 1308              		@ args = 0, pretend = 0, frame = 8
 1309              		@ frame_needed = 1, uses_anonymous_args = 0
 1310 0000 80B5     		push	{r7, lr}
 1311              		.cfi_def_cfa_offset 8
 1312              		.cfi_offset 7, -8
 1313              		.cfi_offset 14, -4
 1314 0002 82B0     		sub	sp, sp, #8
 1315              		.cfi_def_cfa_offset 16
 1316 0004 00AF     		add	r7, sp, #0
 1317              		.cfi_def_cfa_register 7
 1318 0006 7860     		str	r0, [r7, #4]
 1319 0008 3960     		str	r1, [r7]
 348:Generated_Source\PSoC4/RTC_1.c ****     RTC_1_updateTimePeriod = ticks;
 1320              		.loc 2 348 0
 1321 000a 054B     		ldr	r3, .L60
 1322 000c 7A68     		ldr	r2, [r7, #4]
 1323 000e 1A60     		str	r2, [r3]
 349:Generated_Source\PSoC4/RTC_1.c ****     RTC_1_tickRefOneSec    = refOneSecTicks;
 1324              		.loc 2 349 0
 1325 0010 044B     		ldr	r3, .L60+4
 1326 0012 3A68     		ldr	r2, [r7]
 1327 0014 1A60     		str	r2, [r3]
 350:Generated_Source\PSoC4/RTC_1.c **** }
 1328              		.loc 2 350 0
 1329 0016 C046     		nop
 1330 0018 BD46     		mov	sp, r7
 1331 001a 02B0     		add	sp, sp, #8
 1332              		@ sp needed
 1333 001c 80BD     		pop	{r7, pc}
 1334              	.L61:
 1335 001e C046     		.align	2
 1336              	.L60:
 1337 0020 00000000 		.word	RTC_1_updateTimePeriod
 1338 0024 04000000 		.word	RTC_1_tickRefOneSec
 1339              		.cfi_endproc
 1340              	.LFE36:
 1341              		.size	RTC_1_SetPeriod, .-RTC_1_SetPeriod
 1342              		.section	.text.RTC_1_GetPeriod,"ax",%progbits
 1343              		.align	2
 1344              		.global	RTC_1_GetPeriod
 1345              		.code	16
 1346              		.thumb_func
 1347              		.type	RTC_1_GetPeriod, %function
ARM GAS  C:\Users\7709\AppData\Local\Temp\ccYsxBBo.s 			page 53


 1348              	RTC_1_GetPeriod:
 1349              	.LFB37:
 351:Generated_Source\PSoC4/RTC_1.c **** 
 352:Generated_Source\PSoC4/RTC_1.c **** 
 353:Generated_Source\PSoC4/RTC_1.c **** /*******************************************************************************
 354:Generated_Source\PSoC4/RTC_1.c **** * Function Name: RTC_1_SetPeriod
 355:Generated_Source\PSoC4/RTC_1.c **** ****************************************************************************//**
 356:Generated_Source\PSoC4/RTC_1.c **** *
 357:Generated_Source\PSoC4/RTC_1.c **** * \brief
 358:Generated_Source\PSoC4/RTC_1.c **** *  Gets the RTC time update API period.
 359:Generated_Source\PSoC4/RTC_1.c **** *
 360:Generated_Source\PSoC4/RTC_1.c **** * \return period The clock period taken as a number of ticks.
 361:Generated_Source\PSoC4/RTC_1.c **** *
 362:Generated_Source\PSoC4/RTC_1.c **** *******************************************************************************/
 363:Generated_Source\PSoC4/RTC_1.c **** uint32 RTC_1_GetPeriod(void)
 364:Generated_Source\PSoC4/RTC_1.c **** {
 1350              		.loc 2 364 0
 1351              		.cfi_startproc
 1352              		@ args = 0, pretend = 0, frame = 0
 1353              		@ frame_needed = 1, uses_anonymous_args = 0
 1354 0000 80B5     		push	{r7, lr}
 1355              		.cfi_def_cfa_offset 8
 1356              		.cfi_offset 7, -8
 1357              		.cfi_offset 14, -4
 1358 0002 00AF     		add	r7, sp, #0
 1359              		.cfi_def_cfa_register 7
 365:Generated_Source\PSoC4/RTC_1.c ****     return(RTC_1_updateTimePeriod);
 1360              		.loc 2 365 0
 1361 0004 024B     		ldr	r3, .L64
 1362 0006 1B68     		ldr	r3, [r3]
 366:Generated_Source\PSoC4/RTC_1.c **** }
 1363              		.loc 2 366 0
 1364 0008 1800     		movs	r0, r3
 1365 000a BD46     		mov	sp, r7
 1366              		@ sp needed
 1367 000c 80BD     		pop	{r7, pc}
 1368              	.L65:
 1369 000e C046     		.align	2
 1370              	.L64:
 1371 0010 00000000 		.word	RTC_1_updateTimePeriod
 1372              		.cfi_endproc
 1373              	.LFE37:
 1374              		.size	RTC_1_GetPeriod, .-RTC_1_GetPeriod
 1375              		.section	.text.RTC_1_GetRefOneSec,"ax",%progbits
 1376              		.align	2
 1377              		.global	RTC_1_GetRefOneSec
 1378              		.code	16
 1379              		.thumb_func
 1380              		.type	RTC_1_GetRefOneSec, %function
 1381              	RTC_1_GetRefOneSec:
 1382              	.LFB38:
 367:Generated_Source\PSoC4/RTC_1.c **** 
 368:Generated_Source\PSoC4/RTC_1.c **** 
 369:Generated_Source\PSoC4/RTC_1.c **** /*******************************************************************************
 370:Generated_Source\PSoC4/RTC_1.c **** * Function Name: RTC_1_GetRefOneSec
 371:Generated_Source\PSoC4/RTC_1.c **** ****************************************************************************//**
 372:Generated_Source\PSoC4/RTC_1.c **** * \brief
ARM GAS  C:\Users\7709\AppData\Local\Temp\ccYsxBBo.s 			page 54


 373:Generated_Source\PSoC4/RTC_1.c **** * Gets the RTC time update API period.
 374:Generated_Source\PSoC4/RTC_1.c **** *
 375:Generated_Source\PSoC4/RTC_1.c **** * \return
 376:Generated_Source\PSoC4/RTC_1.c **** * period The reference number of ticks taken by the RTC clock source for one
 377:Generated_Source\PSoC4/RTC_1.c **** * second.
 378:Generated_Source\PSoC4/RTC_1.c **** *
 379:Generated_Source\PSoC4/RTC_1.c **** *******************************************************************************/
 380:Generated_Source\PSoC4/RTC_1.c **** uint32 RTC_1_GetRefOneSec(void)
 381:Generated_Source\PSoC4/RTC_1.c **** {
 1383              		.loc 2 381 0
 1384              		.cfi_startproc
 1385              		@ args = 0, pretend = 0, frame = 0
 1386              		@ frame_needed = 1, uses_anonymous_args = 0
 1387 0000 80B5     		push	{r7, lr}
 1388              		.cfi_def_cfa_offset 8
 1389              		.cfi_offset 7, -8
 1390              		.cfi_offset 14, -4
 1391 0002 00AF     		add	r7, sp, #0
 1392              		.cfi_def_cfa_register 7
 382:Generated_Source\PSoC4/RTC_1.c ****     return(RTC_1_tickRefOneSec);
 1393              		.loc 2 382 0
 1394 0004 024B     		ldr	r3, .L68
 1395 0006 1B68     		ldr	r3, [r3]
 383:Generated_Source\PSoC4/RTC_1.c **** }
 1396              		.loc 2 383 0
 1397 0008 1800     		movs	r0, r3
 1398 000a BD46     		mov	sp, r7
 1399              		@ sp needed
 1400 000c 80BD     		pop	{r7, pc}
 1401              	.L69:
 1402 000e C046     		.align	2
 1403              	.L68:
 1404 0010 04000000 		.word	RTC_1_tickRefOneSec
 1405              		.cfi_endproc
 1406              	.LFE38:
 1407              		.size	RTC_1_GetRefOneSec, .-RTC_1_GetRefOneSec
 1408              		.section	.text.RTC_1_GetDateAndTime,"ax",%progbits
 1409              		.align	2
 1410              		.global	RTC_1_GetDateAndTime
 1411              		.code	16
 1412              		.thumb_func
 1413              		.type	RTC_1_GetDateAndTime, %function
 1414              	RTC_1_GetDateAndTime:
 1415              	.LFB39:
 384:Generated_Source\PSoC4/RTC_1.c **** 
 385:Generated_Source\PSoC4/RTC_1.c **** 
 386:Generated_Source\PSoC4/RTC_1.c **** /*******************************************************************************
 387:Generated_Source\PSoC4/RTC_1.c **** * Function Name: RTC_1_GetDateAndTime
 388:Generated_Source\PSoC4/RTC_1.c **** ****************************************************************************//**
 389:Generated_Source\PSoC4/RTC_1.c **** *
 390:Generated_Source\PSoC4/RTC_1.c **** * Reads the current time and date.
 391:Generated_Source\PSoC4/RTC_1.c **** *
 392:Generated_Source\PSoC4/RTC_1.c **** * \param dateTime The pointer to the RTC_date_time structure to which time and 
 393:Generated_Source\PSoC4/RTC_1.c **** * date is returned.
 394:Generated_Source\PSoC4/RTC_1.c **** *
 395:Generated_Source\PSoC4/RTC_1.c **** *******************************************************************************/
 396:Generated_Source\PSoC4/RTC_1.c **** void RTC_1_GetDateAndTime(RTC_1_DATE_TIME* dateTime)
ARM GAS  C:\Users\7709\AppData\Local\Temp\ccYsxBBo.s 			page 55


 397:Generated_Source\PSoC4/RTC_1.c **** {
 1416              		.loc 2 397 0
 1417              		.cfi_startproc
 1418              		@ args = 0, pretend = 0, frame = 8
 1419              		@ frame_needed = 1, uses_anonymous_args = 0
 1420 0000 90B5     		push	{r4, r7, lr}
 1421              		.cfi_def_cfa_offset 12
 1422              		.cfi_offset 4, -12
 1423              		.cfi_offset 7, -8
 1424              		.cfi_offset 14, -4
 1425 0002 85B0     		sub	sp, sp, #20
 1426              		.cfi_def_cfa_offset 32
 1427 0004 02AF     		add	r7, sp, #8
 1428              		.cfi_def_cfa 7, 24
 1429 0006 7860     		str	r0, [r7, #4]
 398:Generated_Source\PSoC4/RTC_1.c ****     RTC_1_UnixToDateTime(dateTime, (RTC_1_unixTime  + RTC_1_dstTimeOffset),
 1430              		.loc 2 398 0
 1431 0008 0A4B     		ldr	r3, .L71
 1432 000a 1B68     		ldr	r3, [r3]
 1433 000c 1900     		movs	r1, r3
 1434 000e 0023     		movs	r3, #0
 1435 0010 1A00     		movs	r2, r3
 1436 0012 094B     		ldr	r3, .L71+4
 1437 0014 5C68     		ldr	r4, [r3, #4]
 1438 0016 1B68     		ldr	r3, [r3]
 1439 0018 5B18     		adds	r3, r3, r1
 1440 001a 5441     		adcs	r4, r4, r2
 1441 001c 7968     		ldr	r1, [r7, #4]
 1442 001e 0022     		movs	r2, #0
 1443 0020 0092     		str	r2, [sp]
 1444 0022 1A00     		movs	r2, r3
 1445 0024 2300     		movs	r3, r4
 1446 0026 0800     		movs	r0, r1
 1447 0028 FFF7FEFF 		bl	RTC_1_UnixToDateTime
 399:Generated_Source\PSoC4/RTC_1.c ****                                                                             RTC_1_INITIAL_TIME_FORM
 400:Generated_Source\PSoC4/RTC_1.c **** }
 1448              		.loc 2 400 0
 1449 002c C046     		nop
 1450 002e BD46     		mov	sp, r7
 1451 0030 03B0     		add	sp, sp, #12
 1452              		@ sp needed
 1453 0032 90BD     		pop	{r4, r7, pc}
 1454              	.L72:
 1455              		.align	2
 1456              	.L71:
 1457 0034 08000000 		.word	RTC_1_dstTimeOffset
 1458 0038 00000000 		.word	RTC_1_unixTime
 1459              		.cfi_endproc
 1460              	.LFE39:
 1461              		.size	RTC_1_GetDateAndTime, .-RTC_1_GetDateAndTime
 1462              		.section	.text.RTC_1_GetTime,"ax",%progbits
 1463              		.align	2
 1464              		.global	RTC_1_GetTime
 1465              		.code	16
 1466              		.thumb_func
 1467              		.type	RTC_1_GetTime, %function
 1468              	RTC_1_GetTime:
ARM GAS  C:\Users\7709\AppData\Local\Temp\ccYsxBBo.s 			page 56


 1469              	.LFB40:
 401:Generated_Source\PSoC4/RTC_1.c **** 
 402:Generated_Source\PSoC4/RTC_1.c **** 
 403:Generated_Source\PSoC4/RTC_1.c **** /*******************************************************************************
 404:Generated_Source\PSoC4/RTC_1.c **** * Function Name: RTC_1_GetTime
 405:Generated_Source\PSoC4/RTC_1.c **** ****************************************************************************//**
 406:Generated_Source\PSoC4/RTC_1.c **** * \brief
 407:Generated_Source\PSoC4/RTC_1.c **** * Reads the current time.
 408:Generated_Source\PSoC4/RTC_1.c **** *
 409:Generated_Source\PSoC4/RTC_1.c **** * \return
 410:Generated_Source\PSoC4/RTC_1.c **** * date The value of date in the user selected format. The date value is 
 411:Generated_Source\PSoC4/RTC_1.c **** * available in the BCD format.
 412:Generated_Source\PSoC4/RTC_1.c **** *
 413:Generated_Source\PSoC4/RTC_1.c **** * \warning
 414:Generated_Source\PSoC4/RTC_1.c **** *  Using RTC_1_GetTime and RTC_GetDate API separately might result
 415:Generated_Source\PSoC4/RTC_1.c **** *  in errors when the time wraps around the end of the day. To avoid this,
 416:Generated_Source\PSoC4/RTC_1.c **** *  use RTC_1_GetDateAndTime API.
 417:Generated_Source\PSoC4/RTC_1.c **** *
 418:Generated_Source\PSoC4/RTC_1.c **** *******************************************************************************/
 419:Generated_Source\PSoC4/RTC_1.c **** uint32 RTC_1_GetTime(void)
 420:Generated_Source\PSoC4/RTC_1.c **** {
 1470              		.loc 2 420 0
 1471              		.cfi_startproc
 1472              		@ args = 0, pretend = 0, frame = 0
 1473              		@ frame_needed = 1, uses_anonymous_args = 0
 1474 0000 90B5     		push	{r4, r7, lr}
 1475              		.cfi_def_cfa_offset 12
 1476              		.cfi_offset 4, -12
 1477              		.cfi_offset 7, -8
 1478              		.cfi_offset 14, -4
 1479 0002 83B0     		sub	sp, sp, #12
 1480              		.cfi_def_cfa_offset 24
 1481 0004 02AF     		add	r7, sp, #8
 1482              		.cfi_def_cfa 7, 16
 421:Generated_Source\PSoC4/RTC_1.c ****     RTC_1_UnixToDateTime(&RTC_1_currentTimeDate,
 1483              		.loc 2 421 0
 1484 0006 0C4B     		ldr	r3, .L75
 1485 0008 1B68     		ldr	r3, [r3]
 1486 000a 1900     		movs	r1, r3
 1487 000c 0023     		movs	r3, #0
 1488 000e 1A00     		movs	r2, r3
 1489 0010 0A4B     		ldr	r3, .L75+4
 1490 0012 5C68     		ldr	r4, [r3, #4]
 1491 0014 1B68     		ldr	r3, [r3]
 1492 0016 5B18     		adds	r3, r3, r1
 1493 0018 5441     		adcs	r4, r4, r2
 1494 001a 0949     		ldr	r1, .L75+8
 1495 001c 0022     		movs	r2, #0
 1496 001e 0092     		str	r2, [sp]
 1497 0020 1A00     		movs	r2, r3
 1498 0022 2300     		movs	r3, r4
 1499 0024 0800     		movs	r0, r1
 1500 0026 FFF7FEFF 		bl	RTC_1_UnixToDateTime
 422:Generated_Source\PSoC4/RTC_1.c ****                                     (RTC_1_unixTime  + RTC_1_dstTimeOffset),
 423:Generated_Source\PSoC4/RTC_1.c ****                                      RTC_1_INITIAL_TIME_FORMAT);
 424:Generated_Source\PSoC4/RTC_1.c **** 
 425:Generated_Source\PSoC4/RTC_1.c ****     return(RTC_1_currentTimeDate.time);
ARM GAS  C:\Users\7709\AppData\Local\Temp\ccYsxBBo.s 			page 57


 1501              		.loc 2 425 0
 1502 002a 054B     		ldr	r3, .L75+8
 1503 002c 1B68     		ldr	r3, [r3]
 426:Generated_Source\PSoC4/RTC_1.c **** }
 1504              		.loc 2 426 0
 1505 002e 1800     		movs	r0, r3
 1506 0030 BD46     		mov	sp, r7
 1507 0032 01B0     		add	sp, sp, #4
 1508              		@ sp needed
 1509 0034 90BD     		pop	{r4, r7, pc}
 1510              	.L76:
 1511 0036 C046     		.align	2
 1512              	.L75:
 1513 0038 08000000 		.word	RTC_1_dstTimeOffset
 1514 003c 00000000 		.word	RTC_1_unixTime
 1515 0040 00000000 		.word	RTC_1_currentTimeDate
 1516              		.cfi_endproc
 1517              	.LFE40:
 1518              		.size	RTC_1_GetTime, .-RTC_1_GetTime
 1519              		.section	.text.RTC_1_GetDate,"ax",%progbits
 1520              		.align	2
 1521              		.global	RTC_1_GetDate
 1522              		.code	16
 1523              		.thumb_func
 1524              		.type	RTC_1_GetDate, %function
 1525              	RTC_1_GetDate:
 1526              	.LFB41:
 427:Generated_Source\PSoC4/RTC_1.c **** 
 428:Generated_Source\PSoC4/RTC_1.c **** 
 429:Generated_Source\PSoC4/RTC_1.c **** /*******************************************************************************
 430:Generated_Source\PSoC4/RTC_1.c **** * Function Name: RTC_1_GetDate
 431:Generated_Source\PSoC4/RTC_1.c **** ****************************************************************************//**
 432:Generated_Source\PSoC4/RTC_1.c **** *
 433:Generated_Source\PSoC4/RTC_1.c **** * \brief Reads the current time.
 434:Generated_Source\PSoC4/RTC_1.c **** *
 435:Generated_Source\PSoC4/RTC_1.c **** * \return
 436:Generated_Source\PSoC4/RTC_1.c **** * time The time value in the format selected by the user (12/24 hr);
 437:Generated_Source\PSoC4/RTC_1.c **** * The time value is available in the BCD format.
 438:Generated_Source\PSoC4/RTC_1.c **** *
 439:Generated_Source\PSoC4/RTC_1.c **** * \note
 440:Generated_Source\PSoC4/RTC_1.c **** *  Using RTC_1_GetTime and RTC_1_GetDate API separately
 441:Generated_Source\PSoC4/RTC_1.c **** *  might result in errors when the time wraps around the end of the day. To
 442:Generated_Source\PSoC4/RTC_1.c **** *  avoid this, use RTC_1_GetDateAndTime API.
 443:Generated_Source\PSoC4/RTC_1.c **** *
 444:Generated_Source\PSoC4/RTC_1.c **** *******************************************************************************/
 445:Generated_Source\PSoC4/RTC_1.c **** uint32 RTC_1_GetDate(void)
 446:Generated_Source\PSoC4/RTC_1.c **** {
 1527              		.loc 2 446 0
 1528              		.cfi_startproc
 1529              		@ args = 0, pretend = 0, frame = 0
 1530              		@ frame_needed = 1, uses_anonymous_args = 0
 1531 0000 90B5     		push	{r4, r7, lr}
 1532              		.cfi_def_cfa_offset 12
 1533              		.cfi_offset 4, -12
 1534              		.cfi_offset 7, -8
 1535              		.cfi_offset 14, -4
 1536 0002 83B0     		sub	sp, sp, #12
ARM GAS  C:\Users\7709\AppData\Local\Temp\ccYsxBBo.s 			page 58


 1537              		.cfi_def_cfa_offset 24
 1538 0004 02AF     		add	r7, sp, #8
 1539              		.cfi_def_cfa 7, 16
 447:Generated_Source\PSoC4/RTC_1.c ****     RTC_1_UnixToDateTime(&RTC_1_currentTimeDate,
 1540              		.loc 2 447 0
 1541 0006 0C4B     		ldr	r3, .L79
 1542 0008 1B68     		ldr	r3, [r3]
 1543 000a 1900     		movs	r1, r3
 1544 000c 0023     		movs	r3, #0
 1545 000e 1A00     		movs	r2, r3
 1546 0010 0A4B     		ldr	r3, .L79+4
 1547 0012 5C68     		ldr	r4, [r3, #4]
 1548 0014 1B68     		ldr	r3, [r3]
 1549 0016 5B18     		adds	r3, r3, r1
 1550 0018 5441     		adcs	r4, r4, r2
 1551 001a 0949     		ldr	r1, .L79+8
 1552 001c 0022     		movs	r2, #0
 1553 001e 0092     		str	r2, [sp]
 1554 0020 1A00     		movs	r2, r3
 1555 0022 2300     		movs	r3, r4
 1556 0024 0800     		movs	r0, r1
 1557 0026 FFF7FEFF 		bl	RTC_1_UnixToDateTime
 448:Generated_Source\PSoC4/RTC_1.c ****                                     (RTC_1_unixTime  + RTC_1_dstTimeOffset),
 449:Generated_Source\PSoC4/RTC_1.c ****                                      RTC_1_INITIAL_TIME_FORMAT);
 450:Generated_Source\PSoC4/RTC_1.c **** 
 451:Generated_Source\PSoC4/RTC_1.c ****     return(RTC_1_currentTimeDate.date);
 1558              		.loc 2 451 0
 1559 002a 054B     		ldr	r3, .L79+8
 1560 002c 5B68     		ldr	r3, [r3, #4]
 452:Generated_Source\PSoC4/RTC_1.c **** }
 1561              		.loc 2 452 0
 1562 002e 1800     		movs	r0, r3
 1563 0030 BD46     		mov	sp, r7
 1564 0032 01B0     		add	sp, sp, #4
 1565              		@ sp needed
 1566 0034 90BD     		pop	{r4, r7, pc}
 1567              	.L80:
 1568 0036 C046     		.align	2
 1569              	.L79:
 1570 0038 08000000 		.word	RTC_1_dstTimeOffset
 1571 003c 00000000 		.word	RTC_1_unixTime
 1572 0040 00000000 		.word	RTC_1_currentTimeDate
 1573              		.cfi_endproc
 1574              	.LFE41:
 1575              		.size	RTC_1_GetDate, .-RTC_1_GetDate
 1576              		.section	.text.RTC_1_ReadStatus,"ax",%progbits
 1577              		.align	2
 1578              		.global	RTC_1_ReadStatus
 1579              		.code	16
 1580              		.thumb_func
 1581              		.type	RTC_1_ReadStatus, %function
 1582              	RTC_1_ReadStatus:
 1583              	.LFB42:
 453:Generated_Source\PSoC4/RTC_1.c **** 
 454:Generated_Source\PSoC4/RTC_1.c **** 
 455:Generated_Source\PSoC4/RTC_1.c **** #if(0u != RTC_1_INITIAL_ALARM_STATUS)
 456:Generated_Source\PSoC4/RTC_1.c ****     /*******************************************************************************
ARM GAS  C:\Users\7709\AppData\Local\Temp\ccYsxBBo.s 			page 59


 457:Generated_Source\PSoC4/RTC_1.c ****     * Function Name: RTC_1_SetAlarmDateAndTime
 458:Generated_Source\PSoC4/RTC_1.c ****     ****************************************************************************//**
 459:Generated_Source\PSoC4/RTC_1.c ****     *
 460:Generated_Source\PSoC4/RTC_1.c ****     * \brief
 461:Generated_Source\PSoC4/RTC_1.c ****     *  Writes the time and date values as the current alarm time and date.
 462:Generated_Source\PSoC4/RTC_1.c ****     *
 463:Generated_Source\PSoC4/RTC_1.c ****     * \param
 464:Generated_Source\PSoC4/RTC_1.c ****     *  alarmTime The pointer to the RTC_1_date_time global structure where
 465:Generated_Source\PSoC4/RTC_1.c ****     *  new values of the alarm time and date are stored.
 466:Generated_Source\PSoC4/RTC_1.c ****     *
 467:Generated_Source\PSoC4/RTC_1.c ****     * \note
 468:Generated_Source\PSoC4/RTC_1.c ****     *  Invalid time entries are written with "00:00:00:00" for the 24-hour format and
 469:Generated_Source\PSoC4/RTC_1.c ****     *  "AM 12:00:00:00" for the 12-hour format. Invalid date entries are written with
 470:Generated_Source\PSoC4/RTC_1.c ****     *  a date equivalent to 01-JAN-2000.
 471:Generated_Source\PSoC4/RTC_1.c ****     *
 472:Generated_Source\PSoC4/RTC_1.c ****     *******************************************************************************/
 473:Generated_Source\PSoC4/RTC_1.c ****     void RTC_1_SetAlarmDateAndTime(const RTC_1_DATE_TIME* alarmTime)
 474:Generated_Source\PSoC4/RTC_1.c ****     {
 475:Generated_Source\PSoC4/RTC_1.c ****         RTC_1_alarmCfgTimeDate = *alarmTime;
 476:Generated_Source\PSoC4/RTC_1.c ****         RTC_1_unixTimeAlarm = RTC_1_ConstructUnixAlarmTime(alarmTime, (uint8)RTC_1_alarmCfgMask);
 477:Generated_Source\PSoC4/RTC_1.c ****     }
 478:Generated_Source\PSoC4/RTC_1.c **** 
 479:Generated_Source\PSoC4/RTC_1.c **** 
 480:Generated_Source\PSoC4/RTC_1.c ****     /*******************************************************************************
 481:Generated_Source\PSoC4/RTC_1.c ****     * Function Name: RTC_1_GetAlarmDateAndTime
 482:Generated_Source\PSoC4/RTC_1.c ****     ****************************************************************************//**
 483:Generated_Source\PSoC4/RTC_1.c ****     *
 484:Generated_Source\PSoC4/RTC_1.c ****     * \brief
 485:Generated_Source\PSoC4/RTC_1.c ****     *  Reads the current alarm time and date.
 486:Generated_Source\PSoC4/RTC_1.c ****     *
 487:Generated_Source\PSoC4/RTC_1.c ****     * \param
 488:Generated_Source\PSoC4/RTC_1.c ****     *  alarmTimeDate The pointer to the RTC_1_date_time structure to which
 489:Generated_Source\PSoC4/RTC_1.c ****     *  the alarm date and time are returned.
 490:Generated_Source\PSoC4/RTC_1.c ****     *
 491:Generated_Source\PSoC4/RTC_1.c ****     *******************************************************************************/
 492:Generated_Source\PSoC4/RTC_1.c ****     void RTC_1_GetAlarmDateAndTime(RTC_1_DATE_TIME* alarmTimeDate)
 493:Generated_Source\PSoC4/RTC_1.c ****     {
 494:Generated_Source\PSoC4/RTC_1.c ****         *alarmTimeDate = RTC_1_alarmCfgTimeDate;
 495:Generated_Source\PSoC4/RTC_1.c ****     }
 496:Generated_Source\PSoC4/RTC_1.c **** 
 497:Generated_Source\PSoC4/RTC_1.c **** 
 498:Generated_Source\PSoC4/RTC_1.c ****     /*******************************************************************************
 499:Generated_Source\PSoC4/RTC_1.c ****     * Function Name: RTC_1_SetAlarmMask
 500:Generated_Source\PSoC4/RTC_1.c ****     ****************************************************************************//**
 501:Generated_Source\PSoC4/RTC_1.c ****     *
 502:Generated_Source\PSoC4/RTC_1.c ****     * \brief
 503:Generated_Source\PSoC4/RTC_1.c ****     *  Writes the Alarm Mask software register with one bit per time/date entry.
 504:Generated_Source\PSoC4/RTC_1.c ****     *  The alarm is true when all masked time/date values match the Alarm values.
 505:Generated_Source\PSoC4/RTC_1.c ****     *  Generated only if the alarm functionality is enabled.
 506:Generated_Source\PSoC4/RTC_1.c ****     *
 507:Generated_Source\PSoC4/RTC_1.c ****     * \param
 508:Generated_Source\PSoC4/RTC_1.c ****     *  mask The Alarm Mask software register value. The values shown below can be
 509:Generated_Source\PSoC4/RTC_1.c ****     *  OR'ed and passed as an argument as well.
 510:Generated_Source\PSoC4/RTC_1.c ****     * \param
 511:Generated_Source\PSoC4/RTC_1.c ****     *  RTC_1_ALARM_SEC_MASK The second alarm mask allows
 512:Generated_Source\PSoC4/RTC_1.c ****     *  matching the alarm second register with the current second register.
 513:Generated_Source\PSoC4/RTC_1.c ****     * \param
ARM GAS  C:\Users\7709\AppData\Local\Temp\ccYsxBBo.s 			page 60


 514:Generated_Source\PSoC4/RTC_1.c ****     *  RTC_1_ALARM_MIN_MASK The minute alarm mask allows matching the
 515:Generated_Source\PSoC4/RTC_1.c ****     *  alarm minute register with the current minute register.
 516:Generated_Source\PSoC4/RTC_1.c ****     * \param
 517:Generated_Source\PSoC4/RTC_1.c ****     *  RTC_1_ALARM_HOUR_MASK The hour alarm mask allows
 518:Generated_Source\PSoC4/RTC_1.c ****     * matching the alarm hour register with the current hour register.
 519:Generated_Source\PSoC4/RTC_1.c ****     * \param
 520:Generated_Source\PSoC4/RTC_1.c ****     *  RTC_1_ALARM_DAYOFWEEK_MASK The day of the week alarm mask 
 521:Generated_Source\PSoC4/RTC_1.c ****     * allows matching the alarm day of the week register with the current day of
 522:Generated_Source\PSoC4/RTC_1.c ****     * the week register.
 523:Generated_Source\PSoC4/RTC_1.c ****     * \param
 524:Generated_Source\PSoC4/RTC_1.c ****     * RTC_1_ALARM_DAYOFMONTH_MASK The day of the month alarm mask
 525:Generated_Source\PSoC4/RTC_1.c ****     * allows matching the alarm day of the month register with the current day 
 526:Generated_Source\PSoC4/RTC_1.c ****     * of the month register.
 527:Generated_Source\PSoC4/RTC_1.c ****     * \param
 528:Generated_Source\PSoC4/RTC_1.c ****     * RTC_1_ALARM_MONTH_MASK The month alarm mask allows matching 
 529:Generated_Source\PSoC4/RTC_1.c ****     * the alarm month register with the current month register.
 530:Generated_Source\PSoC4/RTC_1.c ****     * \param
 531:Generated_Source\PSoC4/RTC_1.c ****     * RTC_1_ALARM_YEAR_MASK The year alarm mask allows matching the
 532:Generated_Source\PSoC4/RTC_1.c ****     *  alarm year register with the current year register.
 533:Generated_Source\PSoC4/RTC_1.c ****     *
 534:Generated_Source\PSoC4/RTC_1.c ****     *******************************************************************************/
 535:Generated_Source\PSoC4/RTC_1.c ****     void RTC_1_SetAlarmMask(uint32 mask)
 536:Generated_Source\PSoC4/RTC_1.c ****     {
 537:Generated_Source\PSoC4/RTC_1.c ****         RTC_1_alarmCfgMask = (uint8)mask;
 538:Generated_Source\PSoC4/RTC_1.c ****         RTC_1_unixTimeAlarm = RTC_1_ConstructUnixAlarmTime(&RTC_1_alarmCfgTimeDate, (uint8)mask);
 539:Generated_Source\PSoC4/RTC_1.c ****     }
 540:Generated_Source\PSoC4/RTC_1.c **** 
 541:Generated_Source\PSoC4/RTC_1.c **** 
 542:Generated_Source\PSoC4/RTC_1.c ****     /*******************************************************************************
 543:Generated_Source\PSoC4/RTC_1.c ****     * Function Name: RTC_1_GetAlarmMask
 544:Generated_Source\PSoC4/RTC_1.c ****     ****************************************************************************//**
 545:Generated_Source\PSoC4/RTC_1.c ****     *
 546:Generated_Source\PSoC4/RTC_1.c ****     * \brief
 547:Generated_Source\PSoC4/RTC_1.c ****     *  Reads the Alarm Mask software register. Generated only if the alarm 
 548:Generated_Source\PSoC4/RTC_1.c ****     * functionality is enabled.
 549:Generated_Source\PSoC4/RTC_1.c ****     *
 550:Generated_Source\PSoC4/RTC_1.c ****     * \return
 551:Generated_Source\PSoC4/RTC_1.c ****     *  The Alarm Mask value with each bit representing the status of the alarm 
 552:Generated_Source\PSoC4/RTC_1.c ****     * time/date match enable.
 553:Generated_Source\PSoC4/RTC_1.c ****     *
 554:Generated_Source\PSoC4/RTC_1.c ****     * \return
 555:Generated_Source\PSoC4/RTC_1.c ****     *  RTC_1_ALARM_SEC_MASK - The second alarm mask allows matching the
 556:Generated_Source\PSoC4/RTC_1.c ****     * alarm second register with the current second register.
 557:Generated_Source\PSoC4/RTC_1.c ****     *
 558:Generated_Source\PSoC4/RTC_1.c ****     * \return
 559:Generated_Source\PSoC4/RTC_1.c ****     * RTC_1_ALARM_MIN_MASK - The minute alarm mask allows matching the 
 560:Generated_Source\PSoC4/RTC_1.c ****     * alarm minute register with the current minute register.
 561:Generated_Source\PSoC4/RTC_1.c ****     *
 562:Generated_Source\PSoC4/RTC_1.c ****     * \return
 563:Generated_Source\PSoC4/RTC_1.c ****     *  RTC_1_ALARM_HOUR_MASK - The hour alarm mask allows matching the 
 564:Generated_Source\PSoC4/RTC_1.c ****     * alarm hour register with the current hour register.
 565:Generated_Source\PSoC4/RTC_1.c ****     *
 566:Generated_Source\PSoC4/RTC_1.c ****     * \return
 567:Generated_Source\PSoC4/RTC_1.c ****     *  RTC_1_ALARM_DAYOFWEEK_MASK - The day of the week alarm mask allows
 568:Generated_Source\PSoC4/RTC_1.c ****     * matching the alarm day of the week register with the current day of the 
 569:Generated_Source\PSoC4/RTC_1.c ****     * week register.
 570:Generated_Source\PSoC4/RTC_1.c ****     *
ARM GAS  C:\Users\7709\AppData\Local\Temp\ccYsxBBo.s 			page 61


 571:Generated_Source\PSoC4/RTC_1.c ****     * \return
 572:Generated_Source\PSoC4/RTC_1.c ****     *  RTC_1_ALARM_DAYOFMONTH_MASK - The day of the month alarm mask 
 573:Generated_Source\PSoC4/RTC_1.c ****     * allows matching the alarm day of the month register with the current day of 
 574:Generated_Source\PSoC4/RTC_1.c ****     * the month register.
 575:Generated_Source\PSoC4/RTC_1.c ****     *
 576:Generated_Source\PSoC4/RTC_1.c ****     * \return
 577:Generated_Source\PSoC4/RTC_1.c ****     *  RTC_1_ALARM_MONTH_MASK - The month alarm mask allows matching 
 578:Generated_Source\PSoC4/RTC_1.c ****     * the alarm month register with the current month register.
 579:Generated_Source\PSoC4/RTC_1.c ****     *
 580:Generated_Source\PSoC4/RTC_1.c ****     * \return
 581:Generated_Source\PSoC4/RTC_1.c ****     *  RTC_1_ALARM_YEAR_MASK - The year alarm mask allows matching the
 582:Generated_Source\PSoC4/RTC_1.c ****     * alarm year register with the current year register.
 583:Generated_Source\PSoC4/RTC_1.c ****     *
 584:Generated_Source\PSoC4/RTC_1.c ****     *******************************************************************************/
 585:Generated_Source\PSoC4/RTC_1.c ****     uint32 RTC_1_GetAlarmMask(void)
 586:Generated_Source\PSoC4/RTC_1.c ****     {
 587:Generated_Source\PSoC4/RTC_1.c ****         return((uint32)RTC_1_alarmCfgMask);
 588:Generated_Source\PSoC4/RTC_1.c ****     }
 589:Generated_Source\PSoC4/RTC_1.c **** 
 590:Generated_Source\PSoC4/RTC_1.c **** 
 591:Generated_Source\PSoC4/RTC_1.c ****     /*******************************************************************************
 592:Generated_Source\PSoC4/RTC_1.c ****     * Function Name: RTC_1_GetAlarmStatus
 593:Generated_Source\PSoC4/RTC_1.c ****     ****************************************************************************//**
 594:Generated_Source\PSoC4/RTC_1.c ****     *
 595:Generated_Source\PSoC4/RTC_1.c ****     * \brief
 596:Generated_Source\PSoC4/RTC_1.c ****     *  Returns the alarm status of RTC.
 597:Generated_Source\PSoC4/RTC_1.c ****     *
 598:Generated_Source\PSoC4/RTC_1.c ****     * \return
 599:Generated_Source\PSoC4/RTC_1.c ****     *  The Alarm active status. This bit is high when the current time and date match the alarm
 600:Generated_Source\PSoC4/RTC_1.c ****     *  time and date.
 601:Generated_Source\PSoC4/RTC_1.c ****     *
 602:Generated_Source\PSoC4/RTC_1.c ****     * \return
 603:Generated_Source\PSoC4/RTC_1.c ****     *  0 - The Alarm status is not active.
 604:Generated_Source\PSoC4/RTC_1.c ****     * \return
 605:Generated_Source\PSoC4/RTC_1.c ****     *  1 - The Alarm status is active.
 606:Generated_Source\PSoC4/RTC_1.c ****     *
 607:Generated_Source\PSoC4/RTC_1.c ****     *******************************************************************************/
 608:Generated_Source\PSoC4/RTC_1.c ****     uint32 RTC_1_GetAlarmStatus(void)
 609:Generated_Source\PSoC4/RTC_1.c ****     {
 610:Generated_Source\PSoC4/RTC_1.c ****         return((0uL != (RTC_1_currentTimeDate.status & (1uL << RTC_1_STATUS_ALARM_OFFSET))) ? 1uL :
 611:Generated_Source\PSoC4/RTC_1.c ****     }
 612:Generated_Source\PSoC4/RTC_1.c **** 
 613:Generated_Source\PSoC4/RTC_1.c **** 
 614:Generated_Source\PSoC4/RTC_1.c ****     /*******************************************************************************
 615:Generated_Source\PSoC4/RTC_1.c ****     * Function Name: RTC_1_ClearAlarmStatus
 616:Generated_Source\PSoC4/RTC_1.c ****     ****************************************************************************//**
 617:Generated_Source\PSoC4/RTC_1.c ****     *
 618:Generated_Source\PSoC4/RTC_1.c ****     * \brief
 619:Generated_Source\PSoC4/RTC_1.c ****     *  Clears the alarm status of RTC.
 620:Generated_Source\PSoC4/RTC_1.c ****     *
 621:Generated_Source\PSoC4/RTC_1.c ****     * \note
 622:Generated_Source\PSoC4/RTC_1.c ****     * The Alarm active (AA) flag clears after read. This bit will be set in the next
 623:Generated_Source\PSoC4/RTC_1.c ****     * alarm match event only. If Alarm is set on only minutes and the alarm
 624:Generated_Source\PSoC4/RTC_1.c ****     * minutes is 20 minutes - the alarm triggers once every 20th minute of
 625:Generated_Source\PSoC4/RTC_1.c ****     * every hour.
 626:Generated_Source\PSoC4/RTC_1.c ****     *
 627:Generated_Source\PSoC4/RTC_1.c ****     *******************************************************************************/
ARM GAS  C:\Users\7709\AppData\Local\Temp\ccYsxBBo.s 			page 62


 628:Generated_Source\PSoC4/RTC_1.c ****     void RTC_1_ClearAlarmStatus(void)
 629:Generated_Source\PSoC4/RTC_1.c ****     {
 630:Generated_Source\PSoC4/RTC_1.c ****         RTC_1_currentTimeDate.status &= (~(1uL << RTC_1_STATUS_ALARM_OFFSET));
 631:Generated_Source\PSoC4/RTC_1.c ****         RTC_1_alarmCurStatus = 0u;
 632:Generated_Source\PSoC4/RTC_1.c ****     }
 633:Generated_Source\PSoC4/RTC_1.c **** 
 634:Generated_Source\PSoC4/RTC_1.c **** 
 635:Generated_Source\PSoC4/RTC_1.c ****     /*******************************************************************************
 636:Generated_Source\PSoC4/RTC_1.c ****     * Function Name: RTC_1_SetAlarmHandler
 637:Generated_Source\PSoC4/RTC_1.c ****     ****************************************************************************//**
 638:Generated_Source\PSoC4/RTC_1.c ****     *
 639:Generated_Source\PSoC4/RTC_1.c ****     * \brief
 640:Generated_Source\PSoC4/RTC_1.c ****     *  This API sets the function to be called when the alarm goes off / triggers.
 641:Generated_Source\PSoC4/RTC_1.c ****     *  This API is generated only if the alarm functionality is enabled in the
 642:Generated_Source\PSoC4/RTC_1.c ****     *  customizer.
 643:Generated_Source\PSoC4/RTC_1.c ****     *
 644:Generated_Source\PSoC4/RTC_1.c ****     * \param
 645:Generated_Source\PSoC4/RTC_1.c ****     *  CallbackFunction The callback function address.
 646:Generated_Source\PSoC4/RTC_1.c ****     *
 647:Generated_Source\PSoC4/RTC_1.c ****     * \return
 648:Generated_Source\PSoC4/RTC_1.c ****     *  A previous callback function address.
 649:Generated_Source\PSoC4/RTC_1.c ****     *
 650:Generated_Source\PSoC4/RTC_1.c ****     *******************************************************************************/
 651:Generated_Source\PSoC4/RTC_1.c ****     void* RTC_1_SetAlarmHandler(void (*CallbackFunction)(void))
 652:Generated_Source\PSoC4/RTC_1.c ****     {
 653:Generated_Source\PSoC4/RTC_1.c ****         void (*tmpCallbackPtr)(void);
 654:Generated_Source\PSoC4/RTC_1.c **** 
 655:Generated_Source\PSoC4/RTC_1.c ****         tmpCallbackPtr = RTC_1_alarmCallbackPtr;
 656:Generated_Source\PSoC4/RTC_1.c ****         RTC_1_alarmCallbackPtr = CallbackFunction;
 657:Generated_Source\PSoC4/RTC_1.c **** 
 658:Generated_Source\PSoC4/RTC_1.c ****         return((void*)tmpCallbackPtr);
 659:Generated_Source\PSoC4/RTC_1.c ****     }
 660:Generated_Source\PSoC4/RTC_1.c **** 
 661:Generated_Source\PSoC4/RTC_1.c **** 
 662:Generated_Source\PSoC4/RTC_1.c ****     /*******************************************************************************
 663:Generated_Source\PSoC4/RTC_1.c ****     * Function Name: RTC_1_GetNexAlarmTime
 664:Generated_Source\PSoC4/RTC_1.c ****     ****************************************************************************//**
 665:Generated_Source\PSoC4/RTC_1.c ****     *
 666:Generated_Source\PSoC4/RTC_1.c ****     * \brief
 667:Generated_Source\PSoC4/RTC_1.c ****     *  This is an internal function that calculates the time of the next alarm
 668:Generated_Source\PSoC4/RTC_1.c ****     *  in the UNIX format taking into account the current "Alarm Config Mask".
 669:Generated_Source\PSoC4/RTC_1.c ****     *
 670:Generated_Source\PSoC4/RTC_1.c ****     * \param
 671:Generated_Source\PSoC4/RTC_1.c ****     *  curUnixTime The current time value in the UNIX format.
 672:Generated_Source\PSoC4/RTC_1.c ****     *
 673:Generated_Source\PSoC4/RTC_1.c ****     * \param
 674:Generated_Source\PSoC4/RTC_1.c ****     *  alarmCfgMask The current Alarm Config Mask.
 675:Generated_Source\PSoC4/RTC_1.c ****     *
 676:Generated_Source\PSoC4/RTC_1.c ****     * \return Returns time of the next alarm in the UNIX format.
 677:Generated_Source\PSoC4/RTC_1.c ****     *
 678:Generated_Source\PSoC4/RTC_1.c ****     *******************************************************************************/
 679:Generated_Source\PSoC4/RTC_1.c ****     uint64 RTC_1_GetNexAlarmTime(uint64 curUnixTime, uint8 alarmCfgMask)
 680:Generated_Source\PSoC4/RTC_1.c ****     {
 681:Generated_Source\PSoC4/RTC_1.c ****         uint32 prevVal;
 682:Generated_Source\PSoC4/RTC_1.c ****         uint32 nextVal;
 683:Generated_Source\PSoC4/RTC_1.c ****         uint32 carryFlag;
 684:Generated_Source\PSoC4/RTC_1.c ****         uint32 daysInMonth;
ARM GAS  C:\Users\7709\AppData\Local\Temp\ccYsxBBo.s 			page 63


 685:Generated_Source\PSoC4/RTC_1.c ****         RTC_1_DATE_TIME curDateTime;
 686:Generated_Source\PSoC4/RTC_1.c **** 
 687:Generated_Source\PSoC4/RTC_1.c ****         carryFlag = 1u;
 688:Generated_Source\PSoC4/RTC_1.c ****         RTC_1_UnixToDateTime(&curDateTime, curUnixTime, (uint32)RTC_1_24_HOURS_FORMAT);
 689:Generated_Source\PSoC4/RTC_1.c **** 
 690:Generated_Source\PSoC4/RTC_1.c ****         /* Calculates Second value of next alarm time based on current time and Alarm Config Mask. 
 691:Generated_Source\PSoC4/RTC_1.c ****         if(0uL != ((~((uint32)alarmCfgMask)) & RTC_1_ALARM_SEC_MASK))
 692:Generated_Source\PSoC4/RTC_1.c ****         {
 693:Generated_Source\PSoC4/RTC_1.c ****             prevVal = RTC_1_GetSecond(curDateTime.time);
 694:Generated_Source\PSoC4/RTC_1.c ****             nextVal = RTC_1_GetNextMinSec(prevVal);
 695:Generated_Source\PSoC4/RTC_1.c ****             curDateTime.time = RTC_1_SetSecond(curDateTime.time, nextVal);
 696:Generated_Source\PSoC4/RTC_1.c ****             carryFlag = (nextVal < prevVal) ? 1u : 0u;
 697:Generated_Source\PSoC4/RTC_1.c ****         }
 698:Generated_Source\PSoC4/RTC_1.c **** 
 699:Generated_Source\PSoC4/RTC_1.c ****         /* Calculates Minute value of next alarm time based on current time and Alarm Config Mask. 
 700:Generated_Source\PSoC4/RTC_1.c ****         if((0uL != carryFlag) && (0uL != ((~((uint32)alarmCfgMask)) & RTC_1_ALARM_MIN_MASK)))
 701:Generated_Source\PSoC4/RTC_1.c ****         {
 702:Generated_Source\PSoC4/RTC_1.c ****             prevVal = RTC_1_GetMinutes(curDateTime.time);
 703:Generated_Source\PSoC4/RTC_1.c ****             nextVal = RTC_1_GetNextMinSec(prevVal);
 704:Generated_Source\PSoC4/RTC_1.c ****             curDateTime.time = RTC_1_SetMinutes(curDateTime.time, nextVal);
 705:Generated_Source\PSoC4/RTC_1.c ****             carryFlag = (nextVal < prevVal) ? 1u : 0u;
 706:Generated_Source\PSoC4/RTC_1.c ****         }
 707:Generated_Source\PSoC4/RTC_1.c **** 
 708:Generated_Source\PSoC4/RTC_1.c ****         /* Calculates Hour value of next alarm time based on current time and Alarm Config Mask. */
 709:Generated_Source\PSoC4/RTC_1.c ****         if((0uL != carryFlag) && (0uL != ((~((uint32)alarmCfgMask)) & RTC_1_ALARM_HOUR_MASK)))
 710:Generated_Source\PSoC4/RTC_1.c ****         {
 711:Generated_Source\PSoC4/RTC_1.c ****             prevVal = RTC_1_GetHours(curDateTime.time);
 712:Generated_Source\PSoC4/RTC_1.c ****             nextVal = RTC_1_GetNextHour(prevVal);
 713:Generated_Source\PSoC4/RTC_1.c ****             curDateTime.time = RTC_1_SetHours(curDateTime.time, nextVal);
 714:Generated_Source\PSoC4/RTC_1.c ****             carryFlag = (nextVal < prevVal) ? 1u : 0u;
 715:Generated_Source\PSoC4/RTC_1.c ****         }
 716:Generated_Source\PSoC4/RTC_1.c **** 
 717:Generated_Source\PSoC4/RTC_1.c ****         /* Calculates Day value of next alarm time based on current time and Alarm Config Mask. */
 718:Generated_Source\PSoC4/RTC_1.c ****         if((0uL != carryFlag) && (0uL != ((~((uint32)alarmCfgMask)) & RTC_1_ALARM_DAYOFMONTH_MASK))
 719:Generated_Source\PSoC4/RTC_1.c ****         {
 720:Generated_Source\PSoC4/RTC_1.c ****             prevVal = RTC_1_GetDay(curDateTime.date);
 721:Generated_Source\PSoC4/RTC_1.c ****             if(0u != (alarmCfgMask & RTC_1_ALARM_DAYOFWEEK_MASK))
 722:Generated_Source\PSoC4/RTC_1.c ****             {
 723:Generated_Source\PSoC4/RTC_1.c ****                 daysInMonth = RTC_1_DaysInMonth(RTC_1_GetMonth(curDateTime.date),
 724:Generated_Source\PSoC4/RTC_1.c ****                                                            RTC_1_GetYear(curDateTime.date));
 725:Generated_Source\PSoC4/RTC_1.c ****                 nextVal = prevVal + RTC_1_DAYS_PER_WEEK;
 726:Generated_Source\PSoC4/RTC_1.c ****                 nextVal = (nextVal > daysInMonth) ? (nextVal - daysInMonth) : nextVal;
 727:Generated_Source\PSoC4/RTC_1.c ****             }
 728:Generated_Source\PSoC4/RTC_1.c ****             else
 729:Generated_Source\PSoC4/RTC_1.c ****             {
 730:Generated_Source\PSoC4/RTC_1.c ****                 nextVal = RTC_1_GetNextDay(RTC_1_GetYear(curDateTime.date),
 731:Generated_Source\PSoC4/RTC_1.c ****                                                       RTC_1_GetMonth(curDateTime.date),
 732:Generated_Source\PSoC4/RTC_1.c ****                                                       RTC_1_GetDay(curDateTime.date),
 733:Generated_Source\PSoC4/RTC_1.c ****                                                       (~((uint32)alarmCfgMask)));
 734:Generated_Source\PSoC4/RTC_1.c ****             }
 735:Generated_Source\PSoC4/RTC_1.c ****             curDateTime.date = RTC_1_SetDay(curDateTime.date, nextVal);
 736:Generated_Source\PSoC4/RTC_1.c ****             carryFlag = (nextVal < prevVal) ? 1u : 0u;
 737:Generated_Source\PSoC4/RTC_1.c ****         }
 738:Generated_Source\PSoC4/RTC_1.c **** 
 739:Generated_Source\PSoC4/RTC_1.c ****         /* Calculates Month value of next alarm time based on current time and Alarm Config Mask. *
 740:Generated_Source\PSoC4/RTC_1.c ****         if((0uL != carryFlag) && (0uL != ((~((uint32)alarmCfgMask)) & RTC_1_ALARM_MONTH_MASK)))
 741:Generated_Source\PSoC4/RTC_1.c ****         {
ARM GAS  C:\Users\7709\AppData\Local\Temp\ccYsxBBo.s 			page 64


 742:Generated_Source\PSoC4/RTC_1.c ****             prevVal = RTC_1_GetMonth(curDateTime.date);
 743:Generated_Source\PSoC4/RTC_1.c ****             nextVal = RTC_1_GetNextMonth(prevVal);
 744:Generated_Source\PSoC4/RTC_1.c ****             curDateTime.date = RTC_1_SetMonth(curDateTime.date, nextVal);
 745:Generated_Source\PSoC4/RTC_1.c ****             carryFlag = (nextVal < prevVal) ? 1u : 0u;
 746:Generated_Source\PSoC4/RTC_1.c ****         }
 747:Generated_Source\PSoC4/RTC_1.c **** 
 748:Generated_Source\PSoC4/RTC_1.c ****         /* Calculates Year value of next alarm time based on current time and Alarm Config Mask. */
 749:Generated_Source\PSoC4/RTC_1.c ****         if((0uL != carryFlag) && (0uL != ((~((uint32)alarmCfgMask)) & RTC_1_ALARM_YEAR_MASK)))
 750:Generated_Source\PSoC4/RTC_1.c ****         {
 751:Generated_Source\PSoC4/RTC_1.c ****             prevVal = RTC_1_GetYear(curDateTime.date);
 752:Generated_Source\PSoC4/RTC_1.c ****             nextVal = RTC_1_GetNextYear(prevVal);
 753:Generated_Source\PSoC4/RTC_1.c ****             curDateTime.date = RTC_1_SetYear(curDateTime.date, nextVal);
 754:Generated_Source\PSoC4/RTC_1.c ****         }
 755:Generated_Source\PSoC4/RTC_1.c **** 
 756:Generated_Source\PSoC4/RTC_1.c ****         return(RTC_1_DateTimeToUnix(curDateTime.date, curDateTime.time));
 757:Generated_Source\PSoC4/RTC_1.c ****     }
 758:Generated_Source\PSoC4/RTC_1.c **** 
 759:Generated_Source\PSoC4/RTC_1.c **** 
 760:Generated_Source\PSoC4/RTC_1.c ****     /*******************************************************************************
 761:Generated_Source\PSoC4/RTC_1.c ****     * Function Name: RTC_1_ConstructUnixAlarmTime
 762:Generated_Source\PSoC4/RTC_1.c ****     ****************************************************************************//**
 763:Generated_Source\PSoC4/RTC_1.c ****     *
 764:Generated_Source\PSoC4/RTC_1.c ****     * \brief
 765:Generated_Source\PSoC4/RTC_1.c ****     *  This is an internal function that calculates the time of the first alarm
 766:Generated_Source\PSoC4/RTC_1.c ****     *  in the UNIX format taking into account the current "Alarm Config Mask".
 767:Generated_Source\PSoC4/RTC_1.c ****     *
 768:Generated_Source\PSoC4/RTC_1.c ****     * \param
 769:Generated_Source\PSoC4/RTC_1.c ****     *  alarmTime Desired alarm time in the regular time format.
 770:Generated_Source\PSoC4/RTC_1.c ****     *
 771:Generated_Source\PSoC4/RTC_1.c ****     * \param
 772:Generated_Source\PSoC4/RTC_1.c ****     *  alarmCfgMask The current Alarm Config Mask.
 773:Generated_Source\PSoC4/RTC_1.c ****     *
 774:Generated_Source\PSoC4/RTC_1.c ****     * \return
 775:Generated_Source\PSoC4/RTC_1.c ****     *  time of the first alarm in the UNIX format.
 776:Generated_Source\PSoC4/RTC_1.c ****     *
 777:Generated_Source\PSoC4/RTC_1.c ****     *******************************************************************************/
 778:Generated_Source\PSoC4/RTC_1.c ****     uint64 RTC_1_ConstructUnixAlarmTime(const RTC_1_DATE_TIME* alarmTime, uint8 alarmCfgMask)
 779:Generated_Source\PSoC4/RTC_1.c ****     {
 780:Generated_Source\PSoC4/RTC_1.c ****         uint32 tmpCurVal;
 781:Generated_Source\PSoC4/RTC_1.c ****         uint32 tmpNextVal;
 782:Generated_Source\PSoC4/RTC_1.c ****         uint32 carryFlag;
 783:Generated_Source\PSoC4/RTC_1.c ****         uint32 tmpAlarmDate;
 784:Generated_Source\PSoC4/RTC_1.c ****         uint32 tmpAlarmTime;
 785:Generated_Source\PSoC4/RTC_1.c ****         uint32 daysInMonth;
 786:Generated_Source\PSoC4/RTC_1.c ****         RTC_1_DATE_TIME curDateTime;
 787:Generated_Source\PSoC4/RTC_1.c **** 
 788:Generated_Source\PSoC4/RTC_1.c ****         tmpAlarmDate = 0u;
 789:Generated_Source\PSoC4/RTC_1.c ****         tmpAlarmTime = 0u;
 790:Generated_Source\PSoC4/RTC_1.c ****         RTC_1_UnixToDateTime(&curDateTime, RTC_1_unixTime, (uint32)RTC_1_24_HOURS_FORMAT);
 791:Generated_Source\PSoC4/RTC_1.c **** 
 792:Generated_Source\PSoC4/RTC_1.c ****         /* Calculates Seconds value of first Alarm based on current time and Alarm Config Mask. */
 793:Generated_Source\PSoC4/RTC_1.c ****         tmpCurVal =  RTC_1_GetSecond(curDateTime.time);
 794:Generated_Source\PSoC4/RTC_1.c ****         tmpNextVal = RTC_1_GetSecond(alarmTime->time);
 795:Generated_Source\PSoC4/RTC_1.c ****         carryFlag = (tmpCurVal > tmpNextVal) ? 1u : 0u;
 796:Generated_Source\PSoC4/RTC_1.c ****         if(0u != ((~((uint32)alarmCfgMask)) & RTC_1_ALARM_SEC_MASK))
 797:Generated_Source\PSoC4/RTC_1.c ****         {
 798:Generated_Source\PSoC4/RTC_1.c ****             tmpNextVal = (0u != carryFlag) ? 0u : tmpCurVal;
ARM GAS  C:\Users\7709\AppData\Local\Temp\ccYsxBBo.s 			page 65


 799:Generated_Source\PSoC4/RTC_1.c ****         }
 800:Generated_Source\PSoC4/RTC_1.c ****         tmpAlarmTime = RTC_1_SetSecond(tmpAlarmTime, tmpNextVal);
 801:Generated_Source\PSoC4/RTC_1.c **** 
 802:Generated_Source\PSoC4/RTC_1.c ****         /* Calculates Minutes value of first Alarm based on current time and Alarm Config Mask. */
 803:Generated_Source\PSoC4/RTC_1.c ****         tmpCurVal  = RTC_1_GetMinutes(curDateTime.time);
 804:Generated_Source\PSoC4/RTC_1.c ****         if(0u != ((~((uint32)alarmCfgMask)) & RTC_1_ALARM_MIN_MASK))
 805:Generated_Source\PSoC4/RTC_1.c ****         {
 806:Generated_Source\PSoC4/RTC_1.c ****             tmpNextVal = (0u != carryFlag) ? RTC_1_GetNextMinSec(tmpCurVal) : tmpCurVal;
 807:Generated_Source\PSoC4/RTC_1.c ****         }
 808:Generated_Source\PSoC4/RTC_1.c ****         else
 809:Generated_Source\PSoC4/RTC_1.c ****         {
 810:Generated_Source\PSoC4/RTC_1.c ****             tmpNextVal = RTC_1_GetMinutes(alarmTime->time);
 811:Generated_Source\PSoC4/RTC_1.c ****         }
 812:Generated_Source\PSoC4/RTC_1.c ****         carryFlag  = (tmpNextVal < tmpCurVal) ? 1u : 0u;
 813:Generated_Source\PSoC4/RTC_1.c ****         tmpAlarmTime =  RTC_1_SetMinutes(tmpAlarmTime, tmpNextVal);
 814:Generated_Source\PSoC4/RTC_1.c **** 
 815:Generated_Source\PSoC4/RTC_1.c ****         /* Calculates Hours value of first Alarm based on current time and Alarm Config Mask. */
 816:Generated_Source\PSoC4/RTC_1.c ****         tmpCurVal  = RTC_1_GetHours(curDateTime.time);
 817:Generated_Source\PSoC4/RTC_1.c ****         if(0u != ((~((uint32)alarmCfgMask)) & RTC_1_ALARM_HOUR_MASK))
 818:Generated_Source\PSoC4/RTC_1.c ****         {
 819:Generated_Source\PSoC4/RTC_1.c ****             tmpNextVal = (0u != carryFlag) ? RTC_1_GetNextHour(tmpCurVal) : tmpCurVal;
 820:Generated_Source\PSoC4/RTC_1.c ****         }
 821:Generated_Source\PSoC4/RTC_1.c ****         else
 822:Generated_Source\PSoC4/RTC_1.c ****         {
 823:Generated_Source\PSoC4/RTC_1.c ****             tmpNextVal = RTC_1_GetHours(alarmTime->time);
 824:Generated_Source\PSoC4/RTC_1.c ****             if((uint32)RTC_1_24_HOURS_FORMAT != RTC_1_GetTimeFormat(alarmTime->time))
 825:Generated_Source\PSoC4/RTC_1.c ****             {
 826:Generated_Source\PSoC4/RTC_1.c ****                 if((uint32)RTC_1_AM != RTC_1_GetAmPm(alarmTime->time))
 827:Generated_Source\PSoC4/RTC_1.c ****                 {
 828:Generated_Source\PSoC4/RTC_1.c ****                     tmpNextVal += RTC_1_HOURS_PER_HALF_DAY;
 829:Generated_Source\PSoC4/RTC_1.c ****                 }
 830:Generated_Source\PSoC4/RTC_1.c ****             }
 831:Generated_Source\PSoC4/RTC_1.c ****         }
 832:Generated_Source\PSoC4/RTC_1.c ****         carryFlag  = (tmpNextVal < tmpCurVal) ? 1u : 0u;
 833:Generated_Source\PSoC4/RTC_1.c ****         tmpAlarmTime =  RTC_1_SetHours(tmpAlarmTime, tmpNextVal);
 834:Generated_Source\PSoC4/RTC_1.c **** 
 835:Generated_Source\PSoC4/RTC_1.c ****         /* Calculates Day value of first Alarm based on current time and Alarm Config Mask. */
 836:Generated_Source\PSoC4/RTC_1.c ****         tmpCurVal  = RTC_1_GetDay(curDateTime.date);
 837:Generated_Source\PSoC4/RTC_1.c ****         tmpNextVal = RTC_1_GetDay(alarmTime->date);
 838:Generated_Source\PSoC4/RTC_1.c ****         if(0u != ((~((uint32)alarmCfgMask)) & RTC_1_ALARM_DAYOFMONTH_MASK))
 839:Generated_Source\PSoC4/RTC_1.c ****         {
 840:Generated_Source\PSoC4/RTC_1.c ****             if(0u != (alarmCfgMask & RTC_1_ALARM_DAYOFWEEK_MASK))
 841:Generated_Source\PSoC4/RTC_1.c ****             {
 842:Generated_Source\PSoC4/RTC_1.c ****                 daysInMonth = RTC_1_DaysInMonth(RTC_1_GetMonth(curDateTime.date),
 843:Generated_Source\PSoC4/RTC_1.c ****                                                            RTC_1_GetYear(curDateTime.date));
 844:Generated_Source\PSoC4/RTC_1.c ****                 tmpNextVal = (curDateTime.dayOfWeek <= alarmTime->dayOfWeek) ? (alarmTime->dayOfWee
 845:Generated_Source\PSoC4/RTC_1.c ****                                 ((RTC_1_DAYS_PER_WEEK - curDateTime.dayOfWeek) + alarmTime->dayOfWe
 846:Generated_Source\PSoC4/RTC_1.c ****                 tmpNextVal = tmpCurVal + tmpNextVal;
 847:Generated_Source\PSoC4/RTC_1.c ****                 tmpNextVal = (tmpNextVal > daysInMonth) ? (tmpNextVal - daysInMonth) : tmpNextVal;
 848:Generated_Source\PSoC4/RTC_1.c ****             }
 849:Generated_Source\PSoC4/RTC_1.c ****             else
 850:Generated_Source\PSoC4/RTC_1.c ****             {
 851:Generated_Source\PSoC4/RTC_1.c ****                 tmpNextVal = (0u == carryFlag) ? tmpCurVal : RTC_1_GetNextDay(RTC_1_GetYear(curDate
 852:Generated_Source\PSoC4/RTC_1.c ****                                                               RTC_1_GetMonth(curDateTime.date),
 853:Generated_Source\PSoC4/RTC_1.c ****                                                                tmpCurVal,
 854:Generated_Source\PSoC4/RTC_1.c ****                                                               RTC_1_ALARM_DAYOFMONTH_MASK);
 855:Generated_Source\PSoC4/RTC_1.c ****             }
ARM GAS  C:\Users\7709\AppData\Local\Temp\ccYsxBBo.s 			page 66


 856:Generated_Source\PSoC4/RTC_1.c ****         }
 857:Generated_Source\PSoC4/RTC_1.c ****         carryFlag  = (tmpNextVal < tmpCurVal) ? 1u : 0u;
 858:Generated_Source\PSoC4/RTC_1.c ****         tmpAlarmDate =  RTC_1_SetDay(tmpAlarmDate, tmpNextVal);
 859:Generated_Source\PSoC4/RTC_1.c **** 
 860:Generated_Source\PSoC4/RTC_1.c ****         /* Calculates Month value of first Alarm based on current time and Alarm Config Mask. */
 861:Generated_Source\PSoC4/RTC_1.c ****         tmpCurVal  = RTC_1_GetMonth(curDateTime.date);
 862:Generated_Source\PSoC4/RTC_1.c ****         if(0u != ((~((uint32)alarmCfgMask)) & RTC_1_ALARM_MONTH_MASK))
 863:Generated_Source\PSoC4/RTC_1.c ****         {
 864:Generated_Source\PSoC4/RTC_1.c ****             tmpNextVal = (0u != carryFlag) ? RTC_1_GetNextMonth(tmpCurVal) : tmpCurVal;
 865:Generated_Source\PSoC4/RTC_1.c ****         }
 866:Generated_Source\PSoC4/RTC_1.c ****         else
 867:Generated_Source\PSoC4/RTC_1.c ****         {
 868:Generated_Source\PSoC4/RTC_1.c ****             tmpNextVal = RTC_1_GetMonth(alarmTime->date);
 869:Generated_Source\PSoC4/RTC_1.c ****         }
 870:Generated_Source\PSoC4/RTC_1.c ****         carryFlag  = (tmpNextVal < tmpCurVal) ? 1u : 0u;
 871:Generated_Source\PSoC4/RTC_1.c ****         tmpAlarmDate =  RTC_1_SetMonth(tmpAlarmDate, tmpNextVal);
 872:Generated_Source\PSoC4/RTC_1.c **** 
 873:Generated_Source\PSoC4/RTC_1.c ****         /* Calculates Year value of first Alarm based on current time and Alarm Config Mask. */
 874:Generated_Source\PSoC4/RTC_1.c ****         tmpCurVal  = RTC_1_GetYear(curDateTime.date);
 875:Generated_Source\PSoC4/RTC_1.c ****         if(0u != ((~((uint32)alarmCfgMask)) & RTC_1_ALARM_MONTH_MASK))
 876:Generated_Source\PSoC4/RTC_1.c ****         {
 877:Generated_Source\PSoC4/RTC_1.c ****             tmpNextVal = (0u != carryFlag) ? RTC_1_GetNextYear(tmpCurVal) : tmpCurVal;
 878:Generated_Source\PSoC4/RTC_1.c ****         }
 879:Generated_Source\PSoC4/RTC_1.c ****         else
 880:Generated_Source\PSoC4/RTC_1.c ****         {
 881:Generated_Source\PSoC4/RTC_1.c ****             tmpNextVal = RTC_1_GetYear(alarmTime->date);
 882:Generated_Source\PSoC4/RTC_1.c ****         }
 883:Generated_Source\PSoC4/RTC_1.c ****         tmpAlarmDate =  RTC_1_SetYear(tmpAlarmDate, tmpNextVal);
 884:Generated_Source\PSoC4/RTC_1.c **** 
 885:Generated_Source\PSoC4/RTC_1.c ****         return(RTC_1_DateTimeToUnix(tmpAlarmDate, tmpAlarmTime));
 886:Generated_Source\PSoC4/RTC_1.c ****     }
 887:Generated_Source\PSoC4/RTC_1.c **** #endif/* (0u != RTC_1_INITIAL_ALARM_STATUS) */
 888:Generated_Source\PSoC4/RTC_1.c **** 
 889:Generated_Source\PSoC4/RTC_1.c **** 
 890:Generated_Source\PSoC4/RTC_1.c **** /*******************************************************************************
 891:Generated_Source\PSoC4/RTC_1.c **** * Function Name: RTC_1_ReadStatus
 892:Generated_Source\PSoC4/RTC_1.c **** ****************************************************************************//**
 893:Generated_Source\PSoC4/RTC_1.c **** *
 894:Generated_Source\PSoC4/RTC_1.c **** * \brief
 895:Generated_Source\PSoC4/RTC_1.c **** * Reads the Status software register, which has flags for DST (DST),
 896:Generated_Source\PSoC4/RTC_1.c **** * Leap Year (LY), AM/PM (AM_PM).
 897:Generated_Source\PSoC4/RTC_1.c **** *
 898:Generated_Source\PSoC4/RTC_1.c **** * \return
 899:Generated_Source\PSoC4/RTC_1.c **** * The values shown below are OR'ed and returned if more than one status
 900:Generated_Source\PSoC4/RTC_1.c **** * bits are set.
 901:Generated_Source\PSoC4/RTC_1.c **** *
 902:Generated_Source\PSoC4/RTC_1.c **** * \return
 903:Generated_Source\PSoC4/RTC_1.c **** * RTC_1_STATUS_DST - Status of Daylight Saving Time. This bit
 904:Generated_Source\PSoC4/RTC_1.c **** * goes high when the current time and date match the DST time and date and the 
 905:Generated_Source\PSoC4/RTC_1.c **** * time is incremented. This bit goes low after the DST interval and the time is 
 906:Generated_Source\PSoC4/RTC_1.c **** * decremented.
 907:Generated_Source\PSoC4/RTC_1.c **** *
 908:Generated_Source\PSoC4/RTC_1.c **** * \return
 909:Generated_Source\PSoC4/RTC_1.c **** * RTC_1_STATUS_LY - Status of Leap Year. This bit goes high when the 
 910:Generated_Source\PSoC4/RTC_1.c **** * current year is a leap year.
 911:Generated_Source\PSoC4/RTC_1.c **** *
 912:Generated_Source\PSoC4/RTC_1.c **** * \return
ARM GAS  C:\Users\7709\AppData\Local\Temp\ccYsxBBo.s 			page 67


 913:Generated_Source\PSoC4/RTC_1.c **** * RTC_1_STATUS_AM_PM - Status of Current Time. This bit is low from 
 914:Generated_Source\PSoC4/RTC_1.c **** * midnight to noon and high from noon to midnight.
 915:Generated_Source\PSoC4/RTC_1.c **** *
 916:Generated_Source\PSoC4/RTC_1.c **** * \note
 917:Generated_Source\PSoC4/RTC_1.c **** * Reading the status without sync with the date and time read may cause an
 918:Generated_Source\PSoC4/RTC_1.c **** * error due to a roll-over at AM/PM, the end of a year, the end of a day;
 919:Generated_Source\PSoC4/RTC_1.c **** * RTC_1_GetDateAndTime() API is used to obtain the status and
 920:Generated_Source\PSoC4/RTC_1.c **** * the status member of the returned structure can be checked with the masks.
 921:Generated_Source\PSoC4/RTC_1.c **** *
 922:Generated_Source\PSoC4/RTC_1.c **** *******************************************************************************/
 923:Generated_Source\PSoC4/RTC_1.c **** uint32 RTC_1_ReadStatus(void)
 924:Generated_Source\PSoC4/RTC_1.c **** {
 1584              		.loc 2 924 0
 1585              		.cfi_startproc
 1586              		@ args = 0, pretend = 0, frame = 24
 1587              		@ frame_needed = 1, uses_anonymous_args = 0
 1588 0000 80B5     		push	{r7, lr}
 1589              		.cfi_def_cfa_offset 8
 1590              		.cfi_offset 7, -8
 1591              		.cfi_offset 14, -4
 1592 0002 86B0     		sub	sp, sp, #24
 1593              		.cfi_def_cfa_offset 32
 1594 0004 00AF     		add	r7, sp, #0
 1595              		.cfi_def_cfa_register 7
 925:Generated_Source\PSoC4/RTC_1.c ****     uint32 tmpYear;
 926:Generated_Source\PSoC4/RTC_1.c ****     RTC_1_DATE_TIME tmpTimeDate;
 927:Generated_Source\PSoC4/RTC_1.c **** 
 928:Generated_Source\PSoC4/RTC_1.c ****     RTC_1_GetDateAndTime(&tmpTimeDate);
 1596              		.loc 2 928 0
 1597 0006 3B1D     		adds	r3, r7, #4
 1598 0008 1800     		movs	r0, r3
 1599 000a FFF7FEFF 		bl	RTC_1_GetDateAndTime
 929:Generated_Source\PSoC4/RTC_1.c ****     tmpYear = RTC_1_GetYear(tmpTimeDate.date);
 1600              		.loc 2 929 0
 1601 000e 3B1D     		adds	r3, r7, #4
 1602 0010 5B68     		ldr	r3, [r3, #4]
 1603 0012 1800     		movs	r0, r3
 1604 0014 FFF7FEFF 		bl	RTC_1_GetYear
 1605 0018 0300     		movs	r3, r0
 1606 001a 7B61     		str	r3, [r7, #20]
 930:Generated_Source\PSoC4/RTC_1.c **** 
 931:Generated_Source\PSoC4/RTC_1.c ****     if(0uL != RTC_1_LeapYear(tmpYear))
 1607              		.loc 2 931 0
 1608 001c 7B69     		ldr	r3, [r7, #20]
 1609 001e 1800     		movs	r0, r3
 1610 0020 FFF7FEFF 		bl	RTC_1_LeapYear
 1611 0024 031E     		subs	r3, r0, #0
 1612 0026 06D0     		beq	.L82
 932:Generated_Source\PSoC4/RTC_1.c ****     {
 933:Generated_Source\PSoC4/RTC_1.c ****         RTC_1_currentTimeDate.status |= (1uL << RTC_1_STATUS_LY_OFFSET);
 1613              		.loc 2 933 0
 1614 0028 144B     		ldr	r3, .L87
 1615 002a DB68     		ldr	r3, [r3, #12]
 1616 002c 0822     		movs	r2, #8
 1617 002e 1A43     		orrs	r2, r3
 1618 0030 124B     		ldr	r3, .L87
 1619 0032 DA60     		str	r2, [r3, #12]
ARM GAS  C:\Users\7709\AppData\Local\Temp\ccYsxBBo.s 			page 68


 1620 0034 06E0     		b	.L83
 1621              	.L82:
 934:Generated_Source\PSoC4/RTC_1.c ****     }
 935:Generated_Source\PSoC4/RTC_1.c ****     else
 936:Generated_Source\PSoC4/RTC_1.c ****     {
 937:Generated_Source\PSoC4/RTC_1.c ****         RTC_1_currentTimeDate.status &= ~(1uL << RTC_1_STATUS_LY_OFFSET);
 1622              		.loc 2 937 0
 1623 0036 114B     		ldr	r3, .L87
 1624 0038 DB68     		ldr	r3, [r3, #12]
 1625 003a 0822     		movs	r2, #8
 1626 003c 9343     		bics	r3, r2
 1627 003e 1A00     		movs	r2, r3
 1628 0040 0E4B     		ldr	r3, .L87
 1629 0042 DA60     		str	r2, [r3, #12]
 1630              	.L83:
 938:Generated_Source\PSoC4/RTC_1.c ****     }
 939:Generated_Source\PSoC4/RTC_1.c **** 
 940:Generated_Source\PSoC4/RTC_1.c **** 
 941:Generated_Source\PSoC4/RTC_1.c ****     if(0uL != RTC_1_GetAmPm(tmpTimeDate.time))
 1631              		.loc 2 941 0
 1632 0044 3B1D     		adds	r3, r7, #4
 1633 0046 1B68     		ldr	r3, [r3]
 1634 0048 1800     		movs	r0, r3
 1635 004a FFF7FEFF 		bl	RTC_1_GetAmPm
 1636 004e 031E     		subs	r3, r0, #0
 1637 0050 06D0     		beq	.L84
 942:Generated_Source\PSoC4/RTC_1.c ****     {
 943:Generated_Source\PSoC4/RTC_1.c ****         RTC_1_currentTimeDate.status |= (1uL << RTC_1_STATUS_AM_PM_OFFSET);
 1638              		.loc 2 943 0
 1639 0052 0A4B     		ldr	r3, .L87
 1640 0054 DB68     		ldr	r3, [r3, #12]
 1641 0056 1022     		movs	r2, #16
 1642 0058 1A43     		orrs	r2, r3
 1643 005a 084B     		ldr	r3, .L87
 1644 005c DA60     		str	r2, [r3, #12]
 1645 005e 06E0     		b	.L85
 1646              	.L84:
 944:Generated_Source\PSoC4/RTC_1.c ****     }
 945:Generated_Source\PSoC4/RTC_1.c ****     else
 946:Generated_Source\PSoC4/RTC_1.c ****     {
 947:Generated_Source\PSoC4/RTC_1.c ****         RTC_1_currentTimeDate.status &= ~(1uL << RTC_1_STATUS_AM_PM_OFFSET);
 1647              		.loc 2 947 0
 1648 0060 064B     		ldr	r3, .L87
 1649 0062 DB68     		ldr	r3, [r3, #12]
 1650 0064 1022     		movs	r2, #16
 1651 0066 9343     		bics	r3, r2
 1652 0068 1A00     		movs	r2, r3
 1653 006a 044B     		ldr	r3, .L87
 1654 006c DA60     		str	r2, [r3, #12]
 1655              	.L85:
 948:Generated_Source\PSoC4/RTC_1.c ****     }
 949:Generated_Source\PSoC4/RTC_1.c **** 
 950:Generated_Source\PSoC4/RTC_1.c ****     return(RTC_1_currentTimeDate.status);
 1656              		.loc 2 950 0
 1657 006e 034B     		ldr	r3, .L87
 1658 0070 DB68     		ldr	r3, [r3, #12]
 951:Generated_Source\PSoC4/RTC_1.c **** }
ARM GAS  C:\Users\7709\AppData\Local\Temp\ccYsxBBo.s 			page 69


 1659              		.loc 2 951 0
 1660 0072 1800     		movs	r0, r3
 1661 0074 BD46     		mov	sp, r7
 1662 0076 06B0     		add	sp, sp, #24
 1663              		@ sp needed
 1664 0078 80BD     		pop	{r7, pc}
 1665              	.L88:
 1666 007a C046     		.align	2
 1667              	.L87:
 1668 007c 00000000 		.word	RTC_1_currentTimeDate
 1669              		.cfi_endproc
 1670              	.LFE42:
 1671              		.size	RTC_1_ReadStatus, .-RTC_1_ReadStatus
 1672              		.section	.text.RTC_1_ConvertBCDToDec,"ax",%progbits
 1673              		.align	2
 1674              		.global	RTC_1_ConvertBCDToDec
 1675              		.code	16
 1676              		.thumb_func
 1677              		.type	RTC_1_ConvertBCDToDec, %function
 1678              	RTC_1_ConvertBCDToDec:
 1679              	.LFB43:
 952:Generated_Source\PSoC4/RTC_1.c **** 
 953:Generated_Source\PSoC4/RTC_1.c **** 
 954:Generated_Source\PSoC4/RTC_1.c **** #if(0u != RTC_1_INITIAL_DST_STATUS)
 955:Generated_Source\PSoC4/RTC_1.c ****     /*******************************************************************************
 956:Generated_Source\PSoC4/RTC_1.c ****     * Function Name: RTC_1_SetDSTStartTime
 957:Generated_Source\PSoC4/RTC_1.c ****     ****************************************************************************//**
 958:Generated_Source\PSoC4/RTC_1.c ****     *
 959:Generated_Source\PSoC4/RTC_1.c ****     * \brief
 960:Generated_Source\PSoC4/RTC_1.c ****     *  Stores the DST Start time.
 961:Generated_Source\PSoC4/RTC_1.c ****     *
 962:Generated_Source\PSoC4/RTC_1.c ****     *  Only generated if DST is enabled. The date passed can be relative or fixed. 
 963:Generated_Source\PSoC4/RTC_1.c ****     *  For a relative date, the user needs to provide a valid day of a week, a 
 964:Generated_Source\PSoC4/RTC_1.c ****     *  week of a month and a month in the dstStartTime structure.
 965:Generated_Source\PSoC4/RTC_1.c ****     *  For a fixed date, the user needs to enter a valid day of a month and a month in
 966:Generated_Source\PSoC4/RTC_1.c ****     *  the dstStartTime structure. The hour value is optional and if invalid
 967:Generated_Source\PSoC4/RTC_1.c ****     *  taken as 00 hrs. Invalid entries are not stored and the DST start date
 968:Generated_Source\PSoC4/RTC_1.c ****     *  retains a previous value or no value at all.
 969:Generated_Source\PSoC4/RTC_1.c ****     *
 970:Generated_Source\PSoC4/RTC_1.c ****     * \param
 971:Generated_Source\PSoC4/RTC_1.c ****     *  dstStartTime The DST Start time register value.
 972:Generated_Source\PSoC4/RTC_1.c ****     *
 973:Generated_Source\PSoC4/RTC_1.c ****     * \param
 974:Generated_Source\PSoC4/RTC_1.c ****     *  type Defines the DST operation mode <br>
 975:Generated_Source\PSoC4/RTC_1.c ****     *  DST_DATE_RELATIVE - The DST start time is relative. <br>
 976:Generated_Source\PSoC4/RTC_1.c ****     *  DST_DATE_FIXED - The DST start time is fixed.
 977:Generated_Source\PSoC4/RTC_1.c ****     *
 978:Generated_Source\PSoC4/RTC_1.c ****     *******************************************************************************/
 979:Generated_Source\PSoC4/RTC_1.c ****     void RTC_1_SetDSTStartTime(const RTC_1_DST_TIME* dstStartTime,
 980:Generated_Source\PSoC4/RTC_1.c ****                                                 RTC_1_DST_DATETYPE_ENUM type)
 981:Generated_Source\PSoC4/RTC_1.c ****     {
 982:Generated_Source\PSoC4/RTC_1.c ****         RTC_1_dstStartTime.timeFormat    = (uint8)type;
 983:Generated_Source\PSoC4/RTC_1.c ****         RTC_1_dstStartTime.hour          = dstStartTime->hour;
 984:Generated_Source\PSoC4/RTC_1.c ****         RTC_1_dstStartTime.dayOfWeek     = dstStartTime->dayOfWeek;
 985:Generated_Source\PSoC4/RTC_1.c ****         RTC_1_dstStartTime.weekOfMonth   = dstStartTime->weekOfMonth;
 986:Generated_Source\PSoC4/RTC_1.c ****         RTC_1_dstStartTime.dayOfMonth    = dstStartTime->dayOfMonth;
 987:Generated_Source\PSoC4/RTC_1.c ****         RTC_1_dstStartTime.month         = dstStartTime->month;
ARM GAS  C:\Users\7709\AppData\Local\Temp\ccYsxBBo.s 			page 70


 988:Generated_Source\PSoC4/RTC_1.c **** 
 989:Generated_Source\PSoC4/RTC_1.c ****         RTC_1_unixTimeDstStart = RTC_1_GetDstUnixTime(&RTC_1_dstStartTime);
 990:Generated_Source\PSoC4/RTC_1.c **** 
 991:Generated_Source\PSoC4/RTC_1.c ****         if((RTC_1_unixTime >= RTC_1_unixTimeDstStart) &&
 992:Generated_Source\PSoC4/RTC_1.c ****            (RTC_1_unixTime <= RTC_1_unixTimeDstStop))
 993:Generated_Source\PSoC4/RTC_1.c ****         {
 994:Generated_Source\PSoC4/RTC_1.c ****             RTC_1_dstStatus = 1u;
 995:Generated_Source\PSoC4/RTC_1.c ****             RTC_1_dstTimeOffset = RTC_1_SECONDS_PER_HOUR;
 996:Generated_Source\PSoC4/RTC_1.c ****         }
 997:Generated_Source\PSoC4/RTC_1.c ****         else
 998:Generated_Source\PSoC4/RTC_1.c ****         {
 999:Generated_Source\PSoC4/RTC_1.c ****             RTC_1_dstStatus = 0u;
1000:Generated_Source\PSoC4/RTC_1.c ****             RTC_1_dstTimeOffset = 0uL;
1001:Generated_Source\PSoC4/RTC_1.c ****         }
1002:Generated_Source\PSoC4/RTC_1.c ****     }
1003:Generated_Source\PSoC4/RTC_1.c **** 
1004:Generated_Source\PSoC4/RTC_1.c **** 
1005:Generated_Source\PSoC4/RTC_1.c ****     /*******************************************************************************
1006:Generated_Source\PSoC4/RTC_1.c ****     * Function Name: RTC_1_SetDSTStopTime
1007:Generated_Source\PSoC4/RTC_1.c ****     ****************************************************************************//**
1008:Generated_Source\PSoC4/RTC_1.c ****     *
1009:Generated_Source\PSoC4/RTC_1.c ****     * \brief
1010:Generated_Source\PSoC4/RTC_1.c ****     *  Stores the DST Stop time.
1011:Generated_Source\PSoC4/RTC_1.c ****     * 
1012:Generated_Source\PSoC4/RTC_1.c ****     *  Only generated if DST is enabled. The date passed can be relative or fixed. 
1013:Generated_Source\PSoC4/RTC_1.c ****     *  For a relative date, the user needs to provide a valid day of a week, a week 
1014:Generated_Source\PSoC4/RTC_1.c ****     *  of a month and a month in the dstStopTime structure.
1015:Generated_Source\PSoC4/RTC_1.c ****     *  For a fixed date, the user needs to enter a valid day of a month and a month in the
1016:Generated_Source\PSoC4/RTC_1.c ****     *  dstSoptTime structure. The hour value is optional and if invalid taken
1017:Generated_Source\PSoC4/RTC_1.c ****     *  as 00 hrs. Invalid entries are not stored and the DST start date retains
1018:Generated_Source\PSoC4/RTC_1.c ****     *  a previous value or no value at all.
1019:Generated_Source\PSoC4/RTC_1.c ****     *
1020:Generated_Source\PSoC4/RTC_1.c ****     * \param
1021:Generated_Source\PSoC4/RTC_1.c ****     *  dstStopTime DST Stop time register values.
1022:Generated_Source\PSoC4/RTC_1.c ****     *
1023:Generated_Source\PSoC4/RTC_1.c ****     * \param
1024:Generated_Source\PSoC4/RTC_1.c ****     *  type Defines the DST operation mode <br>
1025:Generated_Source\PSoC4/RTC_1.c ****     *  DST_DATE_RELATIVE - The DST start time is relative. <br>
1026:Generated_Source\PSoC4/RTC_1.c ****     *  DST_DATE_FIXED - The DST start time is fixed.
1027:Generated_Source\PSoC4/RTC_1.c ****     *
1028:Generated_Source\PSoC4/RTC_1.c ****     *******************************************************************************/
1029:Generated_Source\PSoC4/RTC_1.c ****     void RTC_1_SetDSTStopTime(const RTC_1_DST_TIME* dstStopTime,
1030:Generated_Source\PSoC4/RTC_1.c ****                                                RTC_1_DST_DATETYPE_ENUM type)
1031:Generated_Source\PSoC4/RTC_1.c ****     {
1032:Generated_Source\PSoC4/RTC_1.c **** 
1033:Generated_Source\PSoC4/RTC_1.c ****         RTC_1_dstStopTime.timeFormat  = (uint8)type;
1034:Generated_Source\PSoC4/RTC_1.c ****         RTC_1_dstStopTime.hour           = dstStopTime->hour;
1035:Generated_Source\PSoC4/RTC_1.c ****         RTC_1_dstStopTime.dayOfWeek      = dstStopTime->dayOfWeek;
1036:Generated_Source\PSoC4/RTC_1.c ****         RTC_1_dstStopTime.weekOfMonth = dstStopTime->weekOfMonth;
1037:Generated_Source\PSoC4/RTC_1.c ****         RTC_1_dstStopTime.dayOfMonth     = dstStopTime->dayOfMonth;
1038:Generated_Source\PSoC4/RTC_1.c ****         RTC_1_dstStopTime.month         = dstStopTime->month;
1039:Generated_Source\PSoC4/RTC_1.c **** 
1040:Generated_Source\PSoC4/RTC_1.c ****         RTC_1_unixTimeDstStop  = RTC_1_GetDstUnixTime(&RTC_1_dstStopTime);
1041:Generated_Source\PSoC4/RTC_1.c **** 
1042:Generated_Source\PSoC4/RTC_1.c ****         if((RTC_1_unixTime >= RTC_1_unixTimeDstStart) &&
1043:Generated_Source\PSoC4/RTC_1.c ****            (RTC_1_unixTime <= RTC_1_unixTimeDstStop))
1044:Generated_Source\PSoC4/RTC_1.c ****         {
ARM GAS  C:\Users\7709\AppData\Local\Temp\ccYsxBBo.s 			page 71


1045:Generated_Source\PSoC4/RTC_1.c ****             RTC_1_dstStatus = 1u;
1046:Generated_Source\PSoC4/RTC_1.c ****             RTC_1_dstTimeOffset = RTC_1_SECONDS_PER_HOUR;
1047:Generated_Source\PSoC4/RTC_1.c ****         }
1048:Generated_Source\PSoC4/RTC_1.c ****         else
1049:Generated_Source\PSoC4/RTC_1.c ****         {
1050:Generated_Source\PSoC4/RTC_1.c ****             RTC_1_dstStatus = 0u;
1051:Generated_Source\PSoC4/RTC_1.c ****             RTC_1_dstTimeOffset = 0uL;
1052:Generated_Source\PSoC4/RTC_1.c ****         }
1053:Generated_Source\PSoC4/RTC_1.c ****     }
1054:Generated_Source\PSoC4/RTC_1.c **** 
1055:Generated_Source\PSoC4/RTC_1.c **** 
1056:Generated_Source\PSoC4/RTC_1.c ****     /*******************************************************************************
1057:Generated_Source\PSoC4/RTC_1.c ****     * Function Name: RTC_1_GetDstUnixTime
1058:Generated_Source\PSoC4/RTC_1.c ****     ****************************************************************************//**
1059:Generated_Source\PSoC4/RTC_1.c ****     *
1060:Generated_Source\PSoC4/RTC_1.c ****     * \brief
1061:Generated_Source\PSoC4/RTC_1.c ****     *  Calculates the DST Start/Stop time in the UNIX format.
1062:Generated_Source\PSoC4/RTC_1.c ****     *
1063:Generated_Source\PSoC4/RTC_1.c ****     * \param
1064:Generated_Source\PSoC4/RTC_1.c ****     *  dstTime The DST Start/Stop time in the regular time format.
1065:Generated_Source\PSoC4/RTC_1.c ****     *
1066:Generated_Source\PSoC4/RTC_1.c ****     * \return
1067:Generated_Source\PSoC4/RTC_1.c ****     *  The DST Start/Stop time in the UNIX format.
1068:Generated_Source\PSoC4/RTC_1.c ****     *
1069:Generated_Source\PSoC4/RTC_1.c ****     *******************************************************************************/
1070:Generated_Source\PSoC4/RTC_1.c ****     uint64 RTC_1_GetDstUnixTime(const RTC_1_DST_TIME* dstTime)
1071:Generated_Source\PSoC4/RTC_1.c ****     {
1072:Generated_Source\PSoC4/RTC_1.c ****         uint32 tmpYear;
1073:Generated_Source\PSoC4/RTC_1.c ****         uint32 tmpDate;
1074:Generated_Source\PSoC4/RTC_1.c ****         uint64 dstUnixTime;
1075:Generated_Source\PSoC4/RTC_1.c **** 
1076:Generated_Source\PSoC4/RTC_1.c ****         RTC_1_DATE_TIME tmpTimeDate;
1077:Generated_Source\PSoC4/RTC_1.c **** 
1078:Generated_Source\PSoC4/RTC_1.c ****         RTC_1_UnixToDateTime(&tmpTimeDate, RTC_1_unixTime, RTC_1_INITIAL_TIME_FORMAT);
1079:Generated_Source\PSoC4/RTC_1.c ****         tmpYear = RTC_1_GetYear(tmpTimeDate.date);
1080:Generated_Source\PSoC4/RTC_1.c **** 
1081:Generated_Source\PSoC4/RTC_1.c ****         if(dstTime->timeFormat == (uint8)RTC_1_DST_DATE_FIXED)
1082:Generated_Source\PSoC4/RTC_1.c ****         {
1083:Generated_Source\PSoC4/RTC_1.c ****             tmpDate =     RTC_1_ConstructDate(dstTime->month, dstTime->dayOfMonth, tmpYear);
1084:Generated_Source\PSoC4/RTC_1.c ****         }
1085:Generated_Source\PSoC4/RTC_1.c ****         else
1086:Generated_Source\PSoC4/RTC_1.c ****         {
1087:Generated_Source\PSoC4/RTC_1.c ****             tmpDate = RTC_1_RelativeToFixed(dstTime->dayOfWeek, dstTime->weekOfMonth, dstTime->mont
1088:Generated_Source\PSoC4/RTC_1.c ****         }
1089:Generated_Source\PSoC4/RTC_1.c **** 
1090:Generated_Source\PSoC4/RTC_1.c ****         tmpTimeDate.time = RTC_1_ConstructTime((uint32)RTC_1_24_HOURS_FORMAT, 0u, dstTime->hour, 0u
1091:Generated_Source\PSoC4/RTC_1.c ****         dstUnixTime = RTC_1_DateTimeToUnix(tmpDate, tmpTimeDate.time);
1092:Generated_Source\PSoC4/RTC_1.c **** 
1093:Generated_Source\PSoC4/RTC_1.c ****         return(dstUnixTime);
1094:Generated_Source\PSoC4/RTC_1.c ****     }
1095:Generated_Source\PSoC4/RTC_1.c **** 
1096:Generated_Source\PSoC4/RTC_1.c **** 
1097:Generated_Source\PSoC4/RTC_1.c **** #endif /* (0u != RTC_1_INITIAL_DST_STATUS) */
1098:Generated_Source\PSoC4/RTC_1.c **** 
1099:Generated_Source\PSoC4/RTC_1.c **** 
1100:Generated_Source\PSoC4/RTC_1.c **** /*******************************************************************************
1101:Generated_Source\PSoC4/RTC_1.c **** * Function Name: RTC_1_ConvertBCDToDec
ARM GAS  C:\Users\7709\AppData\Local\Temp\ccYsxBBo.s 			page 72


1102:Generated_Source\PSoC4/RTC_1.c **** ****************************************************************************//**
1103:Generated_Source\PSoC4/RTC_1.c **** *
1104:Generated_Source\PSoC4/RTC_1.c **** * \brief
1105:Generated_Source\PSoC4/RTC_1.c **** *  Converts a 4-byte BCD number into a 4-byte hexadecimal number. Each byte is
1106:Generated_Source\PSoC4/RTC_1.c **** *  converted individually and returned as an individual byte in the 32-bit
1107:Generated_Source\PSoC4/RTC_1.c **** *  variable.
1108:Generated_Source\PSoC4/RTC_1.c **** *
1109:Generated_Source\PSoC4/RTC_1.c **** * \param
1110:Generated_Source\PSoC4/RTC_1.c **** *  bcdNum A 4-byte BCD number. Each byte represents BCD.
1111:Generated_Source\PSoC4/RTC_1.c **** *  0x11223344 -> 4 bytes 0x11, 0x22, 0x33 and 0x44 the in BCD format.
1112:Generated_Source\PSoC4/RTC_1.c **** *
