ARM GAS  C:\Users\7709\AppData\Local\Temp\ccPFzMid.s 			page 1


   1              		.syntax unified
   2              		.cpu cortex-m0
   3              		.fpu softvfp
   4              		.eabi_attribute 20, 1
   5              		.eabi_attribute 21, 1
   6              		.eabi_attribute 23, 3
   7              		.eabi_attribute 24, 1
   8              		.eabi_attribute 25, 1
   9              		.eabi_attribute 26, 1
  10              		.eabi_attribute 30, 6
  11              		.eabi_attribute 34, 0
  12              		.eabi_attribute 18, 4
  13              		.thumb
  14              		.syntax unified
  15              		.file	"teste.c"
  16              		.text
  17              	.Ltext0:
  18              		.cfi_sections	.debug_frame
  19              		.bss
  20              		.align	2
  21              	_buf:
  22 0000 00000000 		.space	30
  22      00000000 
  22      00000000 
  22      00000000 
  22      00000000 
  23 001e 0000     		.align	2
  24              	_2buf:
  25 0020 00000000 		.space	8
  25      00000000 
  26              		.global	__aeabi_uidivmod
  27              		.global	__aeabi_uidiv
  28              		.section	.text.ultoa,"ax",%progbits
  29              		.align	2
  30              		.global	ultoa
  31              		.code	16
  32              		.thumb_func
  33              		.type	ultoa, %function
  34              	ultoa:
  35              	.LFB0:
  36              		.file 1 "teste.c"
   1:teste.c       **** /* ========================================
   2:teste.c       ****  *
   3:teste.c       ****  * Copyright YOUR COMPANY, THE YEAR
   4:teste.c       ****  * All Rights Reserved
   5:teste.c       ****  * UNPUBLISHED, LICENSED SOFTWARE.
   6:teste.c       ****  *
   7:teste.c       ****  * CONFIDENTIAL AND PROPRIETARY INFORMATION
   8:teste.c       ****  * WHICH IS THE PROPERTY OF your company.
   9:teste.c       ****  *
  10:teste.c       ****  * ========================================
  11:teste.c       **** */
  12:teste.c       **** #include "cytypes.h"
  13:teste.c       **** #include "teste.h"
  14:teste.c       **** /* [] END OF FILE */
  15:teste.c       **** static char _buf[30];
  16:teste.c       **** static char _2buf[8];
ARM GAS  C:\Users\7709\AppData\Local\Temp\ccPFzMid.s 			page 2


  17:teste.c       **** 
  18:teste.c       **** 
  19:teste.c       **** 
  20:teste.c       **** 
  21:teste.c       **** 
  22:teste.c       **** 
  23:teste.c       **** char* ultoa( uint32 val) {
  37              		.loc 1 23 0
  38              		.cfi_startproc
  39              		@ args = 0, pretend = 0, frame = 16
  40              		@ frame_needed = 1, uses_anonymous_args = 0
  41 0000 80B5     		push	{r7, lr}
  42              		.cfi_def_cfa_offset 8
  43              		.cfi_offset 7, -8
  44              		.cfi_offset 14, -4
  45 0002 84B0     		sub	sp, sp, #16
  46              		.cfi_def_cfa_offset 24
  47 0004 00AF     		add	r7, sp, #0
  48              		.cfi_def_cfa_register 7
  49 0006 7860     		str	r0, [r7, #4]
  24:teste.c       ****   char* p;
  25:teste.c       ****  
  26:teste.c       ****   p = _buf + sizeof(_buf);
  50              		.loc 1 26 0
  51 0008 124B     		ldr	r3, .L4
  52 000a FB60     		str	r3, [r7, #12]
  27:teste.c       ****   *--p = '\0';
  53              		.loc 1 27 0
  54 000c FB68     		ldr	r3, [r7, #12]
  55 000e 013B     		subs	r3, r3, #1
  56 0010 FB60     		str	r3, [r7, #12]
  57 0012 FB68     		ldr	r3, [r7, #12]
  58 0014 0022     		movs	r2, #0
  59 0016 1A70     		strb	r2, [r3]
  60              	.L2:
  28:teste.c       ****   do {
  29:teste.c       ****       *--p = '0' + val%10;
  61              		.loc 1 29 0 discriminator 1
  62 0018 FB68     		ldr	r3, [r7, #12]
  63 001a 013B     		subs	r3, r3, #1
  64 001c FB60     		str	r3, [r7, #12]
  65 001e 7B68     		ldr	r3, [r7, #4]
  66 0020 0A21     		movs	r1, #10
  67 0022 1800     		movs	r0, r3
  68 0024 FFF7FEFF 		bl	__aeabi_uidivmod
  69 0028 0B00     		movs	r3, r1
  70 002a DBB2     		uxtb	r3, r3
  71 002c 3033     		adds	r3, r3, #48
  72 002e DAB2     		uxtb	r2, r3
  73 0030 FB68     		ldr	r3, [r7, #12]
  74 0032 1A70     		strb	r2, [r3]
  30:teste.c       ****       val /= 10;
  75              		.loc 1 30 0 discriminator 1
  76 0034 7B68     		ldr	r3, [r7, #4]
  77 0036 0A21     		movs	r1, #10
  78 0038 1800     		movs	r0, r3
  79 003a FFF7FEFF 		bl	__aeabi_uidiv
ARM GAS  C:\Users\7709\AppData\Local\Temp\ccPFzMid.s 			page 3


  80 003e 0300     		movs	r3, r0
  81 0040 7B60     		str	r3, [r7, #4]
  31:teste.c       ****   } while (val);
  82              		.loc 1 31 0 discriminator 1
  83 0042 7B68     		ldr	r3, [r7, #4]
  84 0044 002B     		cmp	r3, #0
  85 0046 E7D1     		bne	.L2
  32:teste.c       ****   return p;
  86              		.loc 1 32 0
  87 0048 FB68     		ldr	r3, [r7, #12]
  33:teste.c       **** }
  88              		.loc 1 33 0
  89 004a 1800     		movs	r0, r3
  90 004c BD46     		mov	sp, r7
  91 004e 04B0     		add	sp, sp, #16
  92              		@ sp needed
  93 0050 80BD     		pop	{r7, pc}
  94              	.L5:
  95 0052 C046     		.align	2
  96              	.L4:
  97 0054 1E000000 		.word	_buf+30
  98              		.cfi_endproc
  99              	.LFE0:
 100              		.size	ultoa, .-ultoa
 101              		.section	.text.ul2a,"ax",%progbits
 102              		.align	2
 103              		.global	ul2a
 104              		.code	16
 105              		.thumb_func
 106              		.type	ul2a, %function
 107              	ul2a:
 108              	.LFB1:
  34:teste.c       **** 
  35:teste.c       **** char* ul2a( uint32 val) {
 109              		.loc 1 35 0
 110              		.cfi_startproc
 111              		@ args = 0, pretend = 0, frame = 16
 112              		@ frame_needed = 1, uses_anonymous_args = 0
 113 0000 80B5     		push	{r7, lr}
 114              		.cfi_def_cfa_offset 8
 115              		.cfi_offset 7, -8
 116              		.cfi_offset 14, -4
 117 0002 84B0     		sub	sp, sp, #16
 118              		.cfi_def_cfa_offset 24
 119 0004 00AF     		add	r7, sp, #0
 120              		.cfi_def_cfa_register 7
 121 0006 7860     		str	r0, [r7, #4]
  36:teste.c       ****   char* p;
  37:teste.c       ****  
  38:teste.c       ****   p = _buf + sizeof(_buf);
 122              		.loc 1 38 0
 123 0008 124B     		ldr	r3, .L9
 124 000a FB60     		str	r3, [r7, #12]
  39:teste.c       ****   *--p = '\0';
 125              		.loc 1 39 0
 126 000c FB68     		ldr	r3, [r7, #12]
 127 000e 013B     		subs	r3, r3, #1
ARM GAS  C:\Users\7709\AppData\Local\Temp\ccPFzMid.s 			page 4


 128 0010 FB60     		str	r3, [r7, #12]
 129 0012 FB68     		ldr	r3, [r7, #12]
 130 0014 0022     		movs	r2, #0
 131 0016 1A70     		strb	r2, [r3]
 132              	.L7:
  40:teste.c       ****   do {
  41:teste.c       ****       *--p = '0' + val%10;
 133              		.loc 1 41 0 discriminator 1
 134 0018 FB68     		ldr	r3, [r7, #12]
 135 001a 013B     		subs	r3, r3, #1
 136 001c FB60     		str	r3, [r7, #12]
 137 001e 7B68     		ldr	r3, [r7, #4]
 138 0020 0A21     		movs	r1, #10
 139 0022 1800     		movs	r0, r3
 140 0024 FFF7FEFF 		bl	__aeabi_uidivmod
 141 0028 0B00     		movs	r3, r1
 142 002a DBB2     		uxtb	r3, r3
 143 002c 3033     		adds	r3, r3, #48
 144 002e DAB2     		uxtb	r2, r3
 145 0030 FB68     		ldr	r3, [r7, #12]
 146 0032 1A70     		strb	r2, [r3]
  42:teste.c       ****       val /= 10;
 147              		.loc 1 42 0 discriminator 1
 148 0034 7B68     		ldr	r3, [r7, #4]
 149 0036 0A21     		movs	r1, #10
 150 0038 1800     		movs	r0, r3
 151 003a FFF7FEFF 		bl	__aeabi_uidiv
 152 003e 0300     		movs	r3, r0
 153 0040 7B60     		str	r3, [r7, #4]
  43:teste.c       ****   } while (val);
 154              		.loc 1 43 0 discriminator 1
 155 0042 7B68     		ldr	r3, [r7, #4]
 156 0044 002B     		cmp	r3, #0
 157 0046 E7D1     		bne	.L7
  44:teste.c       ****   
  45:teste.c       ****   return p;
 158              		.loc 1 45 0
 159 0048 FB68     		ldr	r3, [r7, #12]
  46:teste.c       **** }
 160              		.loc 1 46 0
 161 004a 1800     		movs	r0, r3
 162 004c BD46     		mov	sp, r7
 163 004e 04B0     		add	sp, sp, #16
 164              		@ sp needed
 165 0050 80BD     		pop	{r7, pc}
 166              	.L10:
 167 0052 C046     		.align	2
 168              	.L9:
 169 0054 1E000000 		.word	_buf+30
 170              		.cfi_endproc
 171              	.LFE1:
 172              		.size	ul2a, .-ul2a
 173              		.section	.text.ltoa,"ax",%progbits
 174              		.align	2
 175              		.global	ltoa
 176              		.code	16
 177              		.thumb_func
ARM GAS  C:\Users\7709\AppData\Local\Temp\ccPFzMid.s 			page 5


 178              		.type	ltoa, %function
 179              	ltoa:
 180              	.LFB2:
  47:teste.c       **** 
  48:teste.c       **** 
  49:teste.c       **** 
  50:teste.c       **** char* ltoa(int32 val) {
 181              		.loc 1 50 0
 182              		.cfi_startproc
 183              		@ args = 0, pretend = 0, frame = 16
 184              		@ frame_needed = 1, uses_anonymous_args = 0
 185 0000 80B5     		push	{r7, lr}
 186              		.cfi_def_cfa_offset 8
 187              		.cfi_offset 7, -8
 188              		.cfi_offset 14, -4
 189 0002 84B0     		sub	sp, sp, #16
 190              		.cfi_def_cfa_offset 24
 191 0004 00AF     		add	r7, sp, #0
 192              		.cfi_def_cfa_register 7
 193 0006 7860     		str	r0, [r7, #4]
  51:teste.c       ****   char* p;
  52:teste.c       ****   uint16 flg = 0;
 194              		.loc 1 52 0
 195 0008 0A23     		movs	r3, #10
 196 000a FB18     		adds	r3, r7, r3
 197 000c 0022     		movs	r2, #0
 198 000e 1A80     		strh	r2, [r3]
  53:teste.c       ****  
  54:teste.c       ****   if (val < 0){
 199              		.loc 1 54 0
 200 0010 7B68     		ldr	r3, [r7, #4]
 201 0012 002B     		cmp	r3, #0
 202 0014 09DA     		bge	.L12
  55:teste.c       ****       flg++;
 203              		.loc 1 55 0
 204 0016 0A23     		movs	r3, #10
 205 0018 FB18     		adds	r3, r7, r3
 206 001a 1A88     		ldrh	r2, [r3]
 207 001c 0A23     		movs	r3, #10
 208 001e FB18     		adds	r3, r7, r3
 209 0020 0132     		adds	r2, r2, #1
 210 0022 1A80     		strh	r2, [r3]
  56:teste.c       ****       val = -val;
 211              		.loc 1 56 0
 212 0024 7B68     		ldr	r3, [r7, #4]
 213 0026 5B42     		rsbs	r3, r3, #0
 214 0028 7B60     		str	r3, [r7, #4]
 215              	.L12:
  57:teste.c       ****   }
  58:teste.c       ****   p = ultoa(val);
 216              		.loc 1 58 0
 217 002a 7B68     		ldr	r3, [r7, #4]
 218 002c 1800     		movs	r0, r3
 219 002e FFF7FEFF 		bl	ultoa
 220 0032 0300     		movs	r3, r0
 221 0034 FB60     		str	r3, [r7, #12]
  59:teste.c       ****   if (flg) *--p = '-';
ARM GAS  C:\Users\7709\AppData\Local\Temp\ccPFzMid.s 			page 6


 222              		.loc 1 59 0
 223 0036 0A23     		movs	r3, #10
 224 0038 FB18     		adds	r3, r7, r3
 225 003a 1B88     		ldrh	r3, [r3]
 226 003c 002B     		cmp	r3, #0
 227 003e 05D0     		beq	.L13
 228              		.loc 1 59 0 is_stmt 0 discriminator 1
 229 0040 FB68     		ldr	r3, [r7, #12]
 230 0042 013B     		subs	r3, r3, #1
 231 0044 FB60     		str	r3, [r7, #12]
 232 0046 FB68     		ldr	r3, [r7, #12]
 233 0048 2D22     		movs	r2, #45
 234 004a 1A70     		strb	r2, [r3]
 235              	.L13:
  60:teste.c       ****   return p;
 236              		.loc 1 60 0 is_stmt 1
 237 004c FB68     		ldr	r3, [r7, #12]
  61:teste.c       **** }...
 238              		.loc 1 61 0
 239 004e 1800     		movs	r0, r3
 240 0050 BD46     		mov	sp, r7
 241 0052 04B0     		add	sp, sp, #16
 242              		@ sp needed
 243 0054 80BD     		pop	{r7, pc}
 244              		.cfi_endproc
 245              	.LFE2:
 246              		.size	ltoa, .-ltoa
 247 0056 C046     		.text
 248              	.Letext0:
 249              		.file 2 "Generated_Source\\PSoC4/cytypes.h"