ARM GAS  C:\Users\7709\AppData\Local\Temp\ccEdLAil.s 			page 1


   1              		.syntax unified
   2              		.cpu cortex-m0
   3              		.fpu softvfp
   4              		.eabi_attribute 20, 1
   5              		.eabi_attribute 21, 1
   6              		.eabi_attribute 23, 3
   7              		.eabi_attribute 24, 1
   8              		.eabi_attribute 25, 1
   9              		.eabi_attribute 26, 1
  10              		.eabi_attribute 30, 6
  11              		.eabi_attribute 34, 0
  12              		.eabi_attribute 18, 4
  13              		.thumb
  14              		.syntax unified
  15              		.file	"UART_SPI_UART.c"
  16              		.text
  17              	.Ltext0:
  18              		.cfi_sections	.debug_frame
  19              		.comm	UART_rxBufferHead,4,4
  20              		.comm	UART_rxBufferTail,4,4
  21              		.comm	UART_rxBufferOverflow,1,1
  22              		.comm	UART_txBufferHead,4,4
  23              		.comm	UART_txBufferTail,4,4
  24              		.comm	UART_rxBufferInternal,2049,4
  25              		.comm	UART_txBufferInternal,2048,4
  26              		.section	.text.UART_SpiUartReadRxData,"ax",%progbits
  27              		.align	2
  28              		.global	UART_SpiUartReadRxData
  29              		.code	16
  30              		.thumb_func
  31              		.type	UART_SpiUartReadRxData, %function
  32              	UART_SpiUartReadRxData:
  33              	.LFB2:
  34              		.file 1 "Generated_Source\\PSoC4\\UART_SPI_UART.c"
   1:Generated_Source\PSoC4/UART_SPI_UART.c **** /***************************************************************************//**
   2:Generated_Source\PSoC4/UART_SPI_UART.c **** * \file UART_SPI_UART.c
   3:Generated_Source\PSoC4/UART_SPI_UART.c **** * \version 4.0
   4:Generated_Source\PSoC4/UART_SPI_UART.c **** *
   5:Generated_Source\PSoC4/UART_SPI_UART.c **** * \brief
   6:Generated_Source\PSoC4/UART_SPI_UART.c **** *  This file provides the source code to the API for the SCB Component in
   7:Generated_Source\PSoC4/UART_SPI_UART.c **** *  SPI and UART modes.
   8:Generated_Source\PSoC4/UART_SPI_UART.c **** *
   9:Generated_Source\PSoC4/UART_SPI_UART.c **** * Note:
  10:Generated_Source\PSoC4/UART_SPI_UART.c **** *
  11:Generated_Source\PSoC4/UART_SPI_UART.c **** *******************************************************************************
  12:Generated_Source\PSoC4/UART_SPI_UART.c **** * \copyright
  13:Generated_Source\PSoC4/UART_SPI_UART.c **** * Copyright 2013-2017, Cypress Semiconductor Corporation.  All rights reserved.
  14:Generated_Source\PSoC4/UART_SPI_UART.c **** * You may use this file only in accordance with the license, terms, conditions,
  15:Generated_Source\PSoC4/UART_SPI_UART.c **** * disclaimers, and limitations in the end user license agreement accompanying
  16:Generated_Source\PSoC4/UART_SPI_UART.c **** * the software package with which this file was provided.
  17:Generated_Source\PSoC4/UART_SPI_UART.c **** *******************************************************************************/
  18:Generated_Source\PSoC4/UART_SPI_UART.c **** 
  19:Generated_Source\PSoC4/UART_SPI_UART.c **** #include "UART_PVT.h"
  20:Generated_Source\PSoC4/UART_SPI_UART.c **** #include "UART_SPI_UART_PVT.h"
  21:Generated_Source\PSoC4/UART_SPI_UART.c **** 
  22:Generated_Source\PSoC4/UART_SPI_UART.c **** /***************************************
  23:Generated_Source\PSoC4/UART_SPI_UART.c **** *        SPI/UART Private Vars
ARM GAS  C:\Users\7709\AppData\Local\Temp\ccEdLAil.s 			page 2


  24:Generated_Source\PSoC4/UART_SPI_UART.c **** ***************************************/
  25:Generated_Source\PSoC4/UART_SPI_UART.c **** 
  26:Generated_Source\PSoC4/UART_SPI_UART.c **** #if(UART_INTERNAL_RX_SW_BUFFER_CONST)
  27:Generated_Source\PSoC4/UART_SPI_UART.c ****     /* Start index to put data into the software receive buffer.*/
  28:Generated_Source\PSoC4/UART_SPI_UART.c ****     volatile uint32 UART_rxBufferHead;
  29:Generated_Source\PSoC4/UART_SPI_UART.c ****     /* Start index to get data from the software receive buffer.*/
  30:Generated_Source\PSoC4/UART_SPI_UART.c ****     volatile uint32 UART_rxBufferTail;
  31:Generated_Source\PSoC4/UART_SPI_UART.c ****     /**
  32:Generated_Source\PSoC4/UART_SPI_UART.c ****     * \addtogroup group_globals
  33:Generated_Source\PSoC4/UART_SPI_UART.c ****     * \{
  34:Generated_Source\PSoC4/UART_SPI_UART.c ****     */
  35:Generated_Source\PSoC4/UART_SPI_UART.c ****     /** Sets when internal software receive buffer overflow
  36:Generated_Source\PSoC4/UART_SPI_UART.c ****     *  was occurred.
  37:Generated_Source\PSoC4/UART_SPI_UART.c ****     */
  38:Generated_Source\PSoC4/UART_SPI_UART.c ****     volatile uint8  UART_rxBufferOverflow;
  39:Generated_Source\PSoC4/UART_SPI_UART.c ****     /** \} globals */
  40:Generated_Source\PSoC4/UART_SPI_UART.c **** #endif /* (UART_INTERNAL_RX_SW_BUFFER_CONST) */
  41:Generated_Source\PSoC4/UART_SPI_UART.c **** 
  42:Generated_Source\PSoC4/UART_SPI_UART.c **** #if(UART_INTERNAL_TX_SW_BUFFER_CONST)
  43:Generated_Source\PSoC4/UART_SPI_UART.c ****     /* Start index to put data into the software transmit buffer.*/
  44:Generated_Source\PSoC4/UART_SPI_UART.c ****     volatile uint32 UART_txBufferHead;
  45:Generated_Source\PSoC4/UART_SPI_UART.c ****     /* Start index to get data from the software transmit buffer.*/
  46:Generated_Source\PSoC4/UART_SPI_UART.c ****     volatile uint32 UART_txBufferTail;
  47:Generated_Source\PSoC4/UART_SPI_UART.c **** #endif /* (UART_INTERNAL_TX_SW_BUFFER_CONST) */
  48:Generated_Source\PSoC4/UART_SPI_UART.c **** 
  49:Generated_Source\PSoC4/UART_SPI_UART.c **** #if(UART_INTERNAL_RX_SW_BUFFER)
  50:Generated_Source\PSoC4/UART_SPI_UART.c ****     /* Add one element to the buffer to receive full packet. One byte in receive buffer is always e
  51:Generated_Source\PSoC4/UART_SPI_UART.c ****     volatile uint8 UART_rxBufferInternal[UART_INTERNAL_RX_BUFFER_SIZE];
  52:Generated_Source\PSoC4/UART_SPI_UART.c **** #endif /* (UART_INTERNAL_RX_SW_BUFFER) */
  53:Generated_Source\PSoC4/UART_SPI_UART.c **** 
  54:Generated_Source\PSoC4/UART_SPI_UART.c **** #if(UART_INTERNAL_TX_SW_BUFFER)
  55:Generated_Source\PSoC4/UART_SPI_UART.c ****     volatile uint8 UART_txBufferInternal[UART_TX_BUFFER_SIZE];
  56:Generated_Source\PSoC4/UART_SPI_UART.c **** #endif /* (UART_INTERNAL_TX_SW_BUFFER) */
  57:Generated_Source\PSoC4/UART_SPI_UART.c **** 
  58:Generated_Source\PSoC4/UART_SPI_UART.c **** 
  59:Generated_Source\PSoC4/UART_SPI_UART.c **** #if(UART_RX_DIRECTION)
  60:Generated_Source\PSoC4/UART_SPI_UART.c ****     /*******************************************************************************
  61:Generated_Source\PSoC4/UART_SPI_UART.c ****     * Function Name: UART_SpiUartReadRxData
  62:Generated_Source\PSoC4/UART_SPI_UART.c ****     ****************************************************************************//**
  63:Generated_Source\PSoC4/UART_SPI_UART.c ****     *
  64:Generated_Source\PSoC4/UART_SPI_UART.c ****     *  Retrieves the next data element from the receive buffer.
  65:Generated_Source\PSoC4/UART_SPI_UART.c ****     *   - RX software buffer is disabled: Returns data element retrieved from
  66:Generated_Source\PSoC4/UART_SPI_UART.c ****     *     RX FIFO. Undefined data will be returned if the RX FIFO is empty.
  67:Generated_Source\PSoC4/UART_SPI_UART.c ****     *   - RX software buffer is enabled: Returns data element from the software
  68:Generated_Source\PSoC4/UART_SPI_UART.c ****     *     receive buffer. Zero value is returned if the software receive buffer
  69:Generated_Source\PSoC4/UART_SPI_UART.c ****     *     is empty.
  70:Generated_Source\PSoC4/UART_SPI_UART.c ****     *
  71:Generated_Source\PSoC4/UART_SPI_UART.c ****     * \return
  72:Generated_Source\PSoC4/UART_SPI_UART.c ****     *  Next data element from the receive buffer. 
  73:Generated_Source\PSoC4/UART_SPI_UART.c ****     *  The amount of data bits to be received depends on RX data bits selection 
  74:Generated_Source\PSoC4/UART_SPI_UART.c ****     *  (the data bit counting starts from LSB of return value).
  75:Generated_Source\PSoC4/UART_SPI_UART.c ****     *
  76:Generated_Source\PSoC4/UART_SPI_UART.c ****     * \globalvars
  77:Generated_Source\PSoC4/UART_SPI_UART.c ****     *  UART_rxBufferHead - the start index to put data into the 
  78:Generated_Source\PSoC4/UART_SPI_UART.c ****     *  software receive buffer.
  79:Generated_Source\PSoC4/UART_SPI_UART.c ****     *  UART_rxBufferTail - the start index to get data from the 
  80:Generated_Source\PSoC4/UART_SPI_UART.c ****     *  software receive buffer.
ARM GAS  C:\Users\7709\AppData\Local\Temp\ccEdLAil.s 			page 3


  81:Generated_Source\PSoC4/UART_SPI_UART.c ****     *
  82:Generated_Source\PSoC4/UART_SPI_UART.c ****     *******************************************************************************/
  83:Generated_Source\PSoC4/UART_SPI_UART.c ****     uint32 UART_SpiUartReadRxData(void)
  84:Generated_Source\PSoC4/UART_SPI_UART.c ****     {
  35              		.loc 1 84 0
  36              		.cfi_startproc
  37              		@ args = 0, pretend = 0, frame = 8
  38              		@ frame_needed = 1, uses_anonymous_args = 0
  39 0000 80B5     		push	{r7, lr}
  40              		.cfi_def_cfa_offset 8
  41              		.cfi_offset 7, -8
  42              		.cfi_offset 14, -4
  43 0002 82B0     		sub	sp, sp, #8
  44              		.cfi_def_cfa_offset 16
  45 0004 00AF     		add	r7, sp, #0
  46              		.cfi_def_cfa_register 7
  85:Generated_Source\PSoC4/UART_SPI_UART.c ****         uint32 rxData = 0u;
  47              		.loc 1 85 0
  48 0006 0023     		movs	r3, #0
  49 0008 7B60     		str	r3, [r7, #4]
  86:Generated_Source\PSoC4/UART_SPI_UART.c **** 
  87:Generated_Source\PSoC4/UART_SPI_UART.c ****     #if (UART_INTERNAL_RX_SW_BUFFER_CONST)
  88:Generated_Source\PSoC4/UART_SPI_UART.c ****         uint32 locTail;
  89:Generated_Source\PSoC4/UART_SPI_UART.c ****     #endif /* (UART_INTERNAL_RX_SW_BUFFER_CONST) */
  90:Generated_Source\PSoC4/UART_SPI_UART.c **** 
  91:Generated_Source\PSoC4/UART_SPI_UART.c ****         #if (UART_CHECK_RX_SW_BUFFER)
  92:Generated_Source\PSoC4/UART_SPI_UART.c ****         {
  93:Generated_Source\PSoC4/UART_SPI_UART.c ****             if (UART_rxBufferHead != UART_rxBufferTail)
  50              		.loc 1 93 0
  51 000a 0F4B     		ldr	r3, .L5
  52 000c 1A68     		ldr	r2, [r3]
  53 000e 0F4B     		ldr	r3, .L5+4
  54 0010 1B68     		ldr	r3, [r3]
  55 0012 9A42     		cmp	r2, r3
  56 0014 12D0     		beq	.L2
  94:Generated_Source\PSoC4/UART_SPI_UART.c ****             {
  95:Generated_Source\PSoC4/UART_SPI_UART.c ****                 /* There is data in RX software buffer */
  96:Generated_Source\PSoC4/UART_SPI_UART.c **** 
  97:Generated_Source\PSoC4/UART_SPI_UART.c ****                 /* Calculate index to read from */
  98:Generated_Source\PSoC4/UART_SPI_UART.c ****                 locTail = (UART_rxBufferTail + 1u);
  57              		.loc 1 98 0
  58 0016 0D4B     		ldr	r3, .L5+4
  59 0018 1B68     		ldr	r3, [r3]
  60 001a 0133     		adds	r3, r3, #1
  61 001c 3B60     		str	r3, [r7]
  99:Generated_Source\PSoC4/UART_SPI_UART.c **** 
 100:Generated_Source\PSoC4/UART_SPI_UART.c ****                 if (UART_INTERNAL_RX_BUFFER_SIZE == locTail)
  62              		.loc 1 100 0
  63 001e 3B68     		ldr	r3, [r7]
  64 0020 0B4A     		ldr	r2, .L5+8
  65 0022 9342     		cmp	r3, r2
  66 0024 01D1     		bne	.L3
 101:Generated_Source\PSoC4/UART_SPI_UART.c ****                 {
 102:Generated_Source\PSoC4/UART_SPI_UART.c ****                     locTail = 0u;
  67              		.loc 1 102 0
  68 0026 0023     		movs	r3, #0
  69 0028 3B60     		str	r3, [r7]
ARM GAS  C:\Users\7709\AppData\Local\Temp\ccEdLAil.s 			page 4


  70              	.L3:
 103:Generated_Source\PSoC4/UART_SPI_UART.c ****                 }
 104:Generated_Source\PSoC4/UART_SPI_UART.c **** 
 105:Generated_Source\PSoC4/UART_SPI_UART.c ****                 /* Get data from RX software buffer */
 106:Generated_Source\PSoC4/UART_SPI_UART.c ****                 rxData = UART_GetWordFromRxBuffer(locTail);
  71              		.loc 1 106 0
  72 002a 0A4A     		ldr	r2, .L5+12
  73 002c 3B68     		ldr	r3, [r7]
  74 002e D318     		adds	r3, r2, r3
  75 0030 1B78     		ldrb	r3, [r3]
  76 0032 DBB2     		uxtb	r3, r3
  77 0034 7B60     		str	r3, [r7, #4]
 107:Generated_Source\PSoC4/UART_SPI_UART.c **** 
 108:Generated_Source\PSoC4/UART_SPI_UART.c ****                 /* Change index in the buffer */
 109:Generated_Source\PSoC4/UART_SPI_UART.c ****                 UART_rxBufferTail = locTail;
  78              		.loc 1 109 0
  79 0036 054B     		ldr	r3, .L5+4
  80 0038 3A68     		ldr	r2, [r7]
  81 003a 1A60     		str	r2, [r3]
  82              	.L2:
 110:Generated_Source\PSoC4/UART_SPI_UART.c **** 
 111:Generated_Source\PSoC4/UART_SPI_UART.c ****                 #if (UART_CHECK_UART_RTS_CONTROL_FLOW)
 112:Generated_Source\PSoC4/UART_SPI_UART.c ****                 {
 113:Generated_Source\PSoC4/UART_SPI_UART.c ****                     /* Check if RX Not Empty is disabled in the interrupt */
 114:Generated_Source\PSoC4/UART_SPI_UART.c ****                     if (0u == (UART_INTR_RX_MASK_REG & UART_INTR_RX_NOT_EMPTY))
 115:Generated_Source\PSoC4/UART_SPI_UART.c ****                     {
 116:Generated_Source\PSoC4/UART_SPI_UART.c ****                         /* Enable RX Not Empty interrupt source to continue
 117:Generated_Source\PSoC4/UART_SPI_UART.c ****                         * receiving data into software buffer.
 118:Generated_Source\PSoC4/UART_SPI_UART.c ****                         */
 119:Generated_Source\PSoC4/UART_SPI_UART.c ****                         UART_INTR_RX_MASK_REG |= UART_INTR_RX_NOT_EMPTY;
 120:Generated_Source\PSoC4/UART_SPI_UART.c ****                     }
 121:Generated_Source\PSoC4/UART_SPI_UART.c ****                 }
 122:Generated_Source\PSoC4/UART_SPI_UART.c ****                 #endif
 123:Generated_Source\PSoC4/UART_SPI_UART.c **** 
 124:Generated_Source\PSoC4/UART_SPI_UART.c ****             }
 125:Generated_Source\PSoC4/UART_SPI_UART.c ****         }
 126:Generated_Source\PSoC4/UART_SPI_UART.c ****         #else
 127:Generated_Source\PSoC4/UART_SPI_UART.c ****         {
 128:Generated_Source\PSoC4/UART_SPI_UART.c ****             /* Read data from RX FIFO */
 129:Generated_Source\PSoC4/UART_SPI_UART.c ****             rxData = UART_RX_FIFO_RD_REG;
 130:Generated_Source\PSoC4/UART_SPI_UART.c ****         }
 131:Generated_Source\PSoC4/UART_SPI_UART.c ****         #endif
 132:Generated_Source\PSoC4/UART_SPI_UART.c **** 
 133:Generated_Source\PSoC4/UART_SPI_UART.c ****         return (rxData);
  83              		.loc 1 133 0
  84 003c 7B68     		ldr	r3, [r7, #4]
 134:Generated_Source\PSoC4/UART_SPI_UART.c ****     }
  85              		.loc 1 134 0
  86 003e 1800     		movs	r0, r3
  87 0040 BD46     		mov	sp, r7
  88 0042 02B0     		add	sp, sp, #8
  89              		@ sp needed
  90 0044 80BD     		pop	{r7, pc}
  91              	.L6:
  92 0046 C046     		.align	2
  93              	.L5:
  94 0048 00000000 		.word	UART_rxBufferHead
ARM GAS  C:\Users\7709\AppData\Local\Temp\ccEdLAil.s 			page 5


  95 004c 00000000 		.word	UART_rxBufferTail
  96 0050 01080000 		.word	2049
  97 0054 00000000 		.word	UART_rxBufferInternal
  98              		.cfi_endproc
  99              	.LFE2:
 100              		.size	UART_SpiUartReadRxData, .-UART_SpiUartReadRxData
 101              		.section	.text.UART_SpiUartGetRxBufferSize,"ax",%progbits
 102              		.align	2
 103              		.global	UART_SpiUartGetRxBufferSize
 104              		.code	16
 105              		.thumb_func
 106              		.type	UART_SpiUartGetRxBufferSize, %function
 107              	UART_SpiUartGetRxBufferSize:
 108              	.LFB3:
 135:Generated_Source\PSoC4/UART_SPI_UART.c **** 
 136:Generated_Source\PSoC4/UART_SPI_UART.c **** 
 137:Generated_Source\PSoC4/UART_SPI_UART.c ****     /*******************************************************************************
 138:Generated_Source\PSoC4/UART_SPI_UART.c ****     * Function Name: UART_SpiUartGetRxBufferSize
 139:Generated_Source\PSoC4/UART_SPI_UART.c ****     ****************************************************************************//**
 140:Generated_Source\PSoC4/UART_SPI_UART.c ****     *
 141:Generated_Source\PSoC4/UART_SPI_UART.c ****     *  Returns the number of received data elements in the receive buffer.
 142:Generated_Source\PSoC4/UART_SPI_UART.c ****     *   - RX software buffer disabled: returns the number of used entries in
 143:Generated_Source\PSoC4/UART_SPI_UART.c ****     *     RX FIFO.
 144:Generated_Source\PSoC4/UART_SPI_UART.c ****     *   - RX software buffer enabled: returns the number of elements which were
 145:Generated_Source\PSoC4/UART_SPI_UART.c ****     *     placed in the receive buffer. This does not include the hardware RX FIFO.
 146:Generated_Source\PSoC4/UART_SPI_UART.c ****     *
 147:Generated_Source\PSoC4/UART_SPI_UART.c ****     * \return
 148:Generated_Source\PSoC4/UART_SPI_UART.c ****     *  Number of received data elements.
 149:Generated_Source\PSoC4/UART_SPI_UART.c ****     *
 150:Generated_Source\PSoC4/UART_SPI_UART.c ****     * \globalvars
 151:Generated_Source\PSoC4/UART_SPI_UART.c ****     *  UART_rxBufferHead - the start index to put data into the 
 152:Generated_Source\PSoC4/UART_SPI_UART.c ****     *  software receive buffer.
 153:Generated_Source\PSoC4/UART_SPI_UART.c ****     *  UART_rxBufferTail - the start index to get data from the 
 154:Generated_Source\PSoC4/UART_SPI_UART.c ****     *  software receive buffer.
 155:Generated_Source\PSoC4/UART_SPI_UART.c ****     *
 156:Generated_Source\PSoC4/UART_SPI_UART.c ****     *******************************************************************************/
 157:Generated_Source\PSoC4/UART_SPI_UART.c ****     uint32 UART_SpiUartGetRxBufferSize(void)
 158:Generated_Source\PSoC4/UART_SPI_UART.c ****     {
 109              		.loc 1 158 0
 110              		.cfi_startproc
 111              		@ args = 0, pretend = 0, frame = 8
 112              		@ frame_needed = 1, uses_anonymous_args = 0
 113 0000 80B5     		push	{r7, lr}
 114              		.cfi_def_cfa_offset 8
 115              		.cfi_offset 7, -8
 116              		.cfi_offset 14, -4
 117 0002 82B0     		sub	sp, sp, #8
 118              		.cfi_def_cfa_offset 16
 119 0004 00AF     		add	r7, sp, #0
 120              		.cfi_def_cfa_register 7
 159:Generated_Source\PSoC4/UART_SPI_UART.c ****         uint32 size;
 160:Generated_Source\PSoC4/UART_SPI_UART.c ****     #if (UART_INTERNAL_RX_SW_BUFFER_CONST)
 161:Generated_Source\PSoC4/UART_SPI_UART.c ****         uint32 locHead;
 162:Generated_Source\PSoC4/UART_SPI_UART.c ****     #endif /* (UART_INTERNAL_RX_SW_BUFFER_CONST) */
 163:Generated_Source\PSoC4/UART_SPI_UART.c **** 
 164:Generated_Source\PSoC4/UART_SPI_UART.c ****         #if (UART_CHECK_RX_SW_BUFFER)
 165:Generated_Source\PSoC4/UART_SPI_UART.c ****         {
ARM GAS  C:\Users\7709\AppData\Local\Temp\ccEdLAil.s 			page 6


 166:Generated_Source\PSoC4/UART_SPI_UART.c ****             locHead = UART_rxBufferHead;
 121              		.loc 1 166 0
 122 0006 0D4B     		ldr	r3, .L11
 123 0008 1B68     		ldr	r3, [r3]
 124 000a 3B60     		str	r3, [r7]
 167:Generated_Source\PSoC4/UART_SPI_UART.c **** 
 168:Generated_Source\PSoC4/UART_SPI_UART.c ****             if(locHead >= UART_rxBufferTail)
 125              		.loc 1 168 0
 126 000c 0C4B     		ldr	r3, .L11+4
 127 000e 1B68     		ldr	r3, [r3]
 128 0010 3A68     		ldr	r2, [r7]
 129 0012 9A42     		cmp	r2, r3
 130 0014 05D3     		bcc	.L8
 169:Generated_Source\PSoC4/UART_SPI_UART.c ****             {
 170:Generated_Source\PSoC4/UART_SPI_UART.c ****                 size = (locHead - UART_rxBufferTail);
 131              		.loc 1 170 0
 132 0016 0A4B     		ldr	r3, .L11+4
 133 0018 1B68     		ldr	r3, [r3]
 134 001a 3A68     		ldr	r2, [r7]
 135 001c D31A     		subs	r3, r2, r3
 136 001e 7B60     		str	r3, [r7, #4]
 137 0020 07E0     		b	.L9
 138              	.L8:
 171:Generated_Source\PSoC4/UART_SPI_UART.c ****             }
 172:Generated_Source\PSoC4/UART_SPI_UART.c ****             else
 173:Generated_Source\PSoC4/UART_SPI_UART.c ****             {
 174:Generated_Source\PSoC4/UART_SPI_UART.c ****                 size = (locHead + (UART_INTERNAL_RX_BUFFER_SIZE - UART_rxBufferTail));
 139              		.loc 1 174 0
 140 0022 074B     		ldr	r3, .L11+4
 141 0024 1B68     		ldr	r3, [r3]
 142 0026 3A68     		ldr	r2, [r7]
 143 0028 D31A     		subs	r3, r2, r3
 144 002a 064A     		ldr	r2, .L11+8
 145 002c 9446     		mov	ip, r2
 146 002e 6344     		add	r3, r3, ip
 147 0030 7B60     		str	r3, [r7, #4]
 148              	.L9:
 175:Generated_Source\PSoC4/UART_SPI_UART.c ****             }
 176:Generated_Source\PSoC4/UART_SPI_UART.c ****         }
 177:Generated_Source\PSoC4/UART_SPI_UART.c ****         #else
 178:Generated_Source\PSoC4/UART_SPI_UART.c ****         {
 179:Generated_Source\PSoC4/UART_SPI_UART.c ****             size = UART_GET_RX_FIFO_ENTRIES;
 180:Generated_Source\PSoC4/UART_SPI_UART.c ****         }
 181:Generated_Source\PSoC4/UART_SPI_UART.c ****         #endif
 182:Generated_Source\PSoC4/UART_SPI_UART.c **** 
 183:Generated_Source\PSoC4/UART_SPI_UART.c ****         return (size);
 149              		.loc 1 183 0
 150 0032 7B68     		ldr	r3, [r7, #4]
 184:Generated_Source\PSoC4/UART_SPI_UART.c ****     }
 151              		.loc 1 184 0
 152 0034 1800     		movs	r0, r3
 153 0036 BD46     		mov	sp, r7
 154 0038 02B0     		add	sp, sp, #8
 155              		@ sp needed
 156 003a 80BD     		pop	{r7, pc}
 157              	.L12:
 158              		.align	2
ARM GAS  C:\Users\7709\AppData\Local\Temp\ccEdLAil.s 			page 7


 159              	.L11:
 160 003c 00000000 		.word	UART_rxBufferHead
 161 0040 00000000 		.word	UART_rxBufferTail
 162 0044 01080000 		.word	2049
 163              		.cfi_endproc
 164              	.LFE3:
 165              		.size	UART_SpiUartGetRxBufferSize, .-UART_SpiUartGetRxBufferSize
 166              		.section	.text.UART_SpiUartClearRxBuffer,"ax",%progbits
 167              		.align	2
 168              		.global	UART_SpiUartClearRxBuffer
 169              		.code	16
 170              		.thumb_func
 171              		.type	UART_SpiUartClearRxBuffer, %function
 172              	UART_SpiUartClearRxBuffer:
 173              	.LFB4:
 185:Generated_Source\PSoC4/UART_SPI_UART.c **** 
 186:Generated_Source\PSoC4/UART_SPI_UART.c **** 
 187:Generated_Source\PSoC4/UART_SPI_UART.c ****     /*******************************************************************************
 188:Generated_Source\PSoC4/UART_SPI_UART.c ****     * Function Name: UART_SpiUartClearRxBuffer
 189:Generated_Source\PSoC4/UART_SPI_UART.c ****     ****************************************************************************//**
 190:Generated_Source\PSoC4/UART_SPI_UART.c ****     *
 191:Generated_Source\PSoC4/UART_SPI_UART.c ****     *  Clears the receive buffer and RX FIFO.
 192:Generated_Source\PSoC4/UART_SPI_UART.c ****     *
 193:Generated_Source\PSoC4/UART_SPI_UART.c ****     * \globalvars
 194:Generated_Source\PSoC4/UART_SPI_UART.c ****     *  UART_rxBufferHead - the start index to put data into the 
 195:Generated_Source\PSoC4/UART_SPI_UART.c ****     *  software receive buffer.
 196:Generated_Source\PSoC4/UART_SPI_UART.c ****     *  UART_rxBufferTail - the start index to get data from the 
 197:Generated_Source\PSoC4/UART_SPI_UART.c ****     *  software receive buffer.
 198:Generated_Source\PSoC4/UART_SPI_UART.c ****     *
 199:Generated_Source\PSoC4/UART_SPI_UART.c ****     *******************************************************************************/
 200:Generated_Source\PSoC4/UART_SPI_UART.c ****     void UART_SpiUartClearRxBuffer(void)
 201:Generated_Source\PSoC4/UART_SPI_UART.c ****     {
 174              		.loc 1 201 0
 175              		.cfi_startproc
 176              		@ args = 0, pretend = 0, frame = 0
 177              		@ frame_needed = 1, uses_anonymous_args = 0
 178 0000 80B5     		push	{r7, lr}
 179              		.cfi_def_cfa_offset 8
 180              		.cfi_offset 7, -8
 181              		.cfi_offset 14, -4
 182 0002 00AF     		add	r7, sp, #0
 183              		.cfi_def_cfa_register 7
 202:Generated_Source\PSoC4/UART_SPI_UART.c ****         #if (UART_CHECK_RX_SW_BUFFER)
 203:Generated_Source\PSoC4/UART_SPI_UART.c ****         {
 204:Generated_Source\PSoC4/UART_SPI_UART.c ****             /* Lock from component interruption */
 205:Generated_Source\PSoC4/UART_SPI_UART.c ****             UART_DisableInt();
 184              		.loc 1 205 0
 185 0004 0920     		movs	r0, #9
 186 0006 FFF7FEFF 		bl	CyIntDisable
 206:Generated_Source\PSoC4/UART_SPI_UART.c **** 
 207:Generated_Source\PSoC4/UART_SPI_UART.c ****             /* Flush RX software buffer */
 208:Generated_Source\PSoC4/UART_SPI_UART.c ****             UART_rxBufferHead = UART_rxBufferTail;
 187              		.loc 1 208 0
 188 000a 0E4B     		ldr	r3, .L14
 189 000c 1A68     		ldr	r2, [r3]
 190 000e 0E4B     		ldr	r3, .L14+4
 191 0010 1A60     		str	r2, [r3]
ARM GAS  C:\Users\7709\AppData\Local\Temp\ccEdLAil.s 			page 8


 209:Generated_Source\PSoC4/UART_SPI_UART.c ****             UART_rxBufferOverflow = 0u;
 192              		.loc 1 209 0
 193 0012 0E4B     		ldr	r3, .L14+8
 194 0014 0022     		movs	r2, #0
 195 0016 1A70     		strb	r2, [r3]
 210:Generated_Source\PSoC4/UART_SPI_UART.c **** 
 211:Generated_Source\PSoC4/UART_SPI_UART.c ****             UART_CLEAR_RX_FIFO;
 196              		.loc 1 211 0
 197 0018 0D4B     		ldr	r3, .L14+12
 198 001a 0D4A     		ldr	r2, .L14+12
 199 001c 1268     		ldr	r2, [r2]
 200 001e 8021     		movs	r1, #128
 201 0020 4902     		lsls	r1, r1, #9
 202 0022 0A43     		orrs	r2, r1
 203 0024 1A60     		str	r2, [r3]
 204 0026 0A4B     		ldr	r3, .L14+12
 205 0028 094A     		ldr	r2, .L14+12
 206 002a 1268     		ldr	r2, [r2]
 207 002c 0949     		ldr	r1, .L14+16
 208 002e 0A40     		ands	r2, r1
 209 0030 1A60     		str	r2, [r3]
 212:Generated_Source\PSoC4/UART_SPI_UART.c ****             UART_ClearRxInterruptSource(UART_INTR_RX_ALL);
 210              		.loc 1 212 0
 211 0032 094B     		ldr	r3, .L14+20
 212 0034 094A     		ldr	r2, .L14+24
 213 0036 1A60     		str	r2, [r3]
 213:Generated_Source\PSoC4/UART_SPI_UART.c **** 
 214:Generated_Source\PSoC4/UART_SPI_UART.c ****             #if (UART_CHECK_UART_RTS_CONTROL_FLOW)
 215:Generated_Source\PSoC4/UART_SPI_UART.c ****             {
 216:Generated_Source\PSoC4/UART_SPI_UART.c ****                 /* Enable RX Not Empty interrupt source to continue receiving
 217:Generated_Source\PSoC4/UART_SPI_UART.c ****                 * data into software buffer.
 218:Generated_Source\PSoC4/UART_SPI_UART.c ****                 */
 219:Generated_Source\PSoC4/UART_SPI_UART.c ****                 UART_INTR_RX_MASK_REG |= UART_INTR_RX_NOT_EMPTY;
 220:Generated_Source\PSoC4/UART_SPI_UART.c ****             }
 221:Generated_Source\PSoC4/UART_SPI_UART.c ****             #endif
 222:Generated_Source\PSoC4/UART_SPI_UART.c ****             
 223:Generated_Source\PSoC4/UART_SPI_UART.c ****             /* Release lock */
 224:Generated_Source\PSoC4/UART_SPI_UART.c ****             UART_EnableInt();
 214              		.loc 1 224 0
 215 0038 0920     		movs	r0, #9
 216 003a FFF7FEFF 		bl	CyIntEnable
 225:Generated_Source\PSoC4/UART_SPI_UART.c ****         }
 226:Generated_Source\PSoC4/UART_SPI_UART.c ****         #else
 227:Generated_Source\PSoC4/UART_SPI_UART.c ****         {
 228:Generated_Source\PSoC4/UART_SPI_UART.c ****             UART_CLEAR_RX_FIFO;
 229:Generated_Source\PSoC4/UART_SPI_UART.c ****         }
 230:Generated_Source\PSoC4/UART_SPI_UART.c ****         #endif
 231:Generated_Source\PSoC4/UART_SPI_UART.c ****     }
 217              		.loc 1 231 0
 218 003e C046     		nop
 219 0040 BD46     		mov	sp, r7
 220              		@ sp needed
 221 0042 80BD     		pop	{r7, pc}
 222              	.L15:
 223              		.align	2
 224              	.L14:
 225 0044 00000000 		.word	UART_rxBufferTail
ARM GAS  C:\Users\7709\AppData\Local\Temp\ccEdLAil.s 			page 9


 226 0048 00000000 		.word	UART_rxBufferHead
 227 004c 00000000 		.word	UART_rxBufferOverflow
 228 0050 04032440 		.word	1076101892
 229 0054 FFFFFEFF 		.word	-65537
 230 0058 C00F2440 		.word	1076105152
 231 005c ED0F0000 		.word	4077
 232              		.cfi_endproc
 233              	.LFE4:
 234              		.size	UART_SpiUartClearRxBuffer, .-UART_SpiUartClearRxBuffer
 235              		.section	.text.UART_SpiUartWriteTxData,"ax",%progbits
 236              		.align	2
 237              		.global	UART_SpiUartWriteTxData
 238              		.code	16
 239              		.thumb_func
 240              		.type	UART_SpiUartWriteTxData, %function
 241              	UART_SpiUartWriteTxData:
 242              	.LFB5:
 232:Generated_Source\PSoC4/UART_SPI_UART.c **** 
 233:Generated_Source\PSoC4/UART_SPI_UART.c **** #endif /* (UART_RX_DIRECTION) */
 234:Generated_Source\PSoC4/UART_SPI_UART.c **** 
 235:Generated_Source\PSoC4/UART_SPI_UART.c **** 
 236:Generated_Source\PSoC4/UART_SPI_UART.c **** #if(UART_TX_DIRECTION)
 237:Generated_Source\PSoC4/UART_SPI_UART.c ****     /*******************************************************************************
 238:Generated_Source\PSoC4/UART_SPI_UART.c ****     * Function Name: UART_SpiUartWriteTxData
 239:Generated_Source\PSoC4/UART_SPI_UART.c ****     ****************************************************************************//**
 240:Generated_Source\PSoC4/UART_SPI_UART.c ****     *
 241:Generated_Source\PSoC4/UART_SPI_UART.c ****     *  Places a data entry into the transmit buffer to be sent at the next available
 242:Generated_Source\PSoC4/UART_SPI_UART.c ****     *  bus time.
 243:Generated_Source\PSoC4/UART_SPI_UART.c ****     *  This function is blocking and waits until there is space available to put the
 244:Generated_Source\PSoC4/UART_SPI_UART.c ****     *  requested data in the transmit buffer.
 245:Generated_Source\PSoC4/UART_SPI_UART.c ****     *
 246:Generated_Source\PSoC4/UART_SPI_UART.c ****     *  \param txDataByte: the data to be transmitted.
 247:Generated_Source\PSoC4/UART_SPI_UART.c ****     *   The amount of data bits to be transmitted depends on TX data bits selection 
 248:Generated_Source\PSoC4/UART_SPI_UART.c ****     *   (the data bit counting starts from LSB of txDataByte).
 249:Generated_Source\PSoC4/UART_SPI_UART.c ****     *
 250:Generated_Source\PSoC4/UART_SPI_UART.c ****     * \globalvars
 251:Generated_Source\PSoC4/UART_SPI_UART.c ****     *  UART_txBufferHead - the start index to put data into the 
 252:Generated_Source\PSoC4/UART_SPI_UART.c ****     *  software transmit buffer.
 253:Generated_Source\PSoC4/UART_SPI_UART.c ****     *  UART_txBufferTail - start index to get data from the software
 254:Generated_Source\PSoC4/UART_SPI_UART.c ****     *  transmit buffer.
 255:Generated_Source\PSoC4/UART_SPI_UART.c ****     *
 256:Generated_Source\PSoC4/UART_SPI_UART.c ****     *******************************************************************************/
 257:Generated_Source\PSoC4/UART_SPI_UART.c ****     void UART_SpiUartWriteTxData(uint32 txData)
 258:Generated_Source\PSoC4/UART_SPI_UART.c ****     {
 243              		.loc 1 258 0
 244              		.cfi_startproc
 245              		@ args = 0, pretend = 0, frame = 16
 246              		@ frame_needed = 1, uses_anonymous_args = 0
 247 0000 80B5     		push	{r7, lr}
 248              		.cfi_def_cfa_offset 8
 249              		.cfi_offset 7, -8
 250              		.cfi_offset 14, -4
 251 0002 84B0     		sub	sp, sp, #16
 252              		.cfi_def_cfa_offset 24
 253 0004 00AF     		add	r7, sp, #0
 254              		.cfi_def_cfa_register 7
 255 0006 7860     		str	r0, [r7, #4]
ARM GAS  C:\Users\7709\AppData\Local\Temp\ccEdLAil.s 			page 10


 259:Generated_Source\PSoC4/UART_SPI_UART.c ****     #if (UART_INTERNAL_TX_SW_BUFFER_CONST)
 260:Generated_Source\PSoC4/UART_SPI_UART.c ****         uint32 locHead;
 261:Generated_Source\PSoC4/UART_SPI_UART.c ****     #endif /* (UART_INTERNAL_TX_SW_BUFFER_CONST) */
 262:Generated_Source\PSoC4/UART_SPI_UART.c **** 
 263:Generated_Source\PSoC4/UART_SPI_UART.c ****         #if (UART_CHECK_TX_SW_BUFFER)
 264:Generated_Source\PSoC4/UART_SPI_UART.c ****         {
 265:Generated_Source\PSoC4/UART_SPI_UART.c ****             /* Put data directly into the TX FIFO */
 266:Generated_Source\PSoC4/UART_SPI_UART.c ****             if ((UART_txBufferHead == UART_txBufferTail) &&
 256              		.loc 1 266 0
 257 0008 1E4B     		ldr	r3, .L23
 258 000a 1A68     		ldr	r2, [r3]
 259 000c 1E4B     		ldr	r3, .L23+4
 260 000e 1B68     		ldr	r3, [r3]
 261 0010 9A42     		cmp	r2, r3
 262 0012 09D1     		bne	.L17
 267:Generated_Source\PSoC4/UART_SPI_UART.c ****                 (UART_SPI_UART_FIFO_SIZE != UART_GET_TX_FIFO_ENTRIES))
 263              		.loc 1 267 0 discriminator 1
 264 0014 1D4B     		ldr	r3, .L23+8
 265 0016 1B68     		ldr	r3, [r3]
 266 0018 1F22     		movs	r2, #31
 267 001a 1340     		ands	r3, r2
 266:Generated_Source\PSoC4/UART_SPI_UART.c ****                 (UART_SPI_UART_FIFO_SIZE != UART_GET_TX_FIFO_ENTRIES))
 268              		.loc 1 266 0 discriminator 1
 269 001c 082B     		cmp	r3, #8
 270 001e 03D0     		beq	.L17
 268:Generated_Source\PSoC4/UART_SPI_UART.c ****             {
 269:Generated_Source\PSoC4/UART_SPI_UART.c ****                 /* TX software buffer is empty: put data directly in TX FIFO */
 270:Generated_Source\PSoC4/UART_SPI_UART.c ****                 UART_TX_FIFO_WR_REG = txData;
 271              		.loc 1 270 0
 272 0020 1B4B     		ldr	r3, .L23+12
 273 0022 7A68     		ldr	r2, [r7, #4]
 274 0024 1A60     		str	r2, [r3]
 271:Generated_Source\PSoC4/UART_SPI_UART.c ****             }
 272:Generated_Source\PSoC4/UART_SPI_UART.c ****             /* Put data into TX software buffer */
 273:Generated_Source\PSoC4/UART_SPI_UART.c ****             else
 274:Generated_Source\PSoC4/UART_SPI_UART.c ****             {
 275:Generated_Source\PSoC4/UART_SPI_UART.c ****                 /* Head index to put data */
 276:Generated_Source\PSoC4/UART_SPI_UART.c ****                 locHead = (UART_txBufferHead + 1u);
 277:Generated_Source\PSoC4/UART_SPI_UART.c **** 
 278:Generated_Source\PSoC4/UART_SPI_UART.c ****                 /* Adjust TX software buffer index */
 279:Generated_Source\PSoC4/UART_SPI_UART.c ****                 if (UART_TX_BUFFER_SIZE == locHead)
 280:Generated_Source\PSoC4/UART_SPI_UART.c ****                 {
 281:Generated_Source\PSoC4/UART_SPI_UART.c ****                     locHead = 0u;
 282:Generated_Source\PSoC4/UART_SPI_UART.c ****                 }
 283:Generated_Source\PSoC4/UART_SPI_UART.c **** 
 284:Generated_Source\PSoC4/UART_SPI_UART.c ****                 /* Wait for space in TX software buffer */
 285:Generated_Source\PSoC4/UART_SPI_UART.c ****                 while (locHead == UART_txBufferTail)
 286:Generated_Source\PSoC4/UART_SPI_UART.c ****                 {
 287:Generated_Source\PSoC4/UART_SPI_UART.c ****                 }
 288:Generated_Source\PSoC4/UART_SPI_UART.c **** 
 289:Generated_Source\PSoC4/UART_SPI_UART.c ****                 /* TX software buffer has at least one room */
 290:Generated_Source\PSoC4/UART_SPI_UART.c **** 
 291:Generated_Source\PSoC4/UART_SPI_UART.c ****                 /* Clear old status of INTR_TX_NOT_FULL. It sets at the end of transfer when TX FIF
 292:Generated_Source\PSoC4/UART_SPI_UART.c ****                 UART_ClearTxInterruptSource(UART_INTR_TX_NOT_FULL);
 293:Generated_Source\PSoC4/UART_SPI_UART.c **** 
 294:Generated_Source\PSoC4/UART_SPI_UART.c ****                 UART_PutWordInTxBuffer(locHead, txData);
 295:Generated_Source\PSoC4/UART_SPI_UART.c **** 
ARM GAS  C:\Users\7709\AppData\Local\Temp\ccEdLAil.s 			page 11


 296:Generated_Source\PSoC4/UART_SPI_UART.c ****                 UART_txBufferHead = locHead;
 297:Generated_Source\PSoC4/UART_SPI_UART.c **** 
 298:Generated_Source\PSoC4/UART_SPI_UART.c ****                 /* Check if TX Not Full is disabled in interrupt */
 299:Generated_Source\PSoC4/UART_SPI_UART.c ****                 if (0u == (UART_INTR_TX_MASK_REG & UART_INTR_TX_NOT_FULL))
 300:Generated_Source\PSoC4/UART_SPI_UART.c ****                 {
 301:Generated_Source\PSoC4/UART_SPI_UART.c ****                     /* Enable TX Not Full interrupt source to transmit from software buffer */
 302:Generated_Source\PSoC4/UART_SPI_UART.c ****                     UART_INTR_TX_MASK_REG |= (uint32) UART_INTR_TX_NOT_FULL;
 303:Generated_Source\PSoC4/UART_SPI_UART.c ****                 }
 304:Generated_Source\PSoC4/UART_SPI_UART.c ****             }
 305:Generated_Source\PSoC4/UART_SPI_UART.c ****         }
 306:Generated_Source\PSoC4/UART_SPI_UART.c ****         #else
 307:Generated_Source\PSoC4/UART_SPI_UART.c ****         {
 308:Generated_Source\PSoC4/UART_SPI_UART.c ****             /* Wait until TX FIFO has space to put data element */
 309:Generated_Source\PSoC4/UART_SPI_UART.c ****             while (UART_SPI_UART_FIFO_SIZE == UART_GET_TX_FIFO_ENTRIES)
 310:Generated_Source\PSoC4/UART_SPI_UART.c ****             {
 311:Generated_Source\PSoC4/UART_SPI_UART.c ****             }
 312:Generated_Source\PSoC4/UART_SPI_UART.c **** 
 313:Generated_Source\PSoC4/UART_SPI_UART.c ****             UART_TX_FIFO_WR_REG = txData;
 314:Generated_Source\PSoC4/UART_SPI_UART.c ****         }
 315:Generated_Source\PSoC4/UART_SPI_UART.c ****         #endif
 316:Generated_Source\PSoC4/UART_SPI_UART.c ****     }
 275              		.loc 1 316 0
 276 0026 28E0     		b	.L21
 277              	.L17:
 276:Generated_Source\PSoC4/UART_SPI_UART.c **** 
 278              		.loc 1 276 0
 279 0028 164B     		ldr	r3, .L23
 280 002a 1B68     		ldr	r3, [r3]
 281 002c 0133     		adds	r3, r3, #1
 282 002e FB60     		str	r3, [r7, #12]
 279:Generated_Source\PSoC4/UART_SPI_UART.c ****                 {
 283              		.loc 1 279 0
 284 0030 FA68     		ldr	r2, [r7, #12]
 285 0032 8023     		movs	r3, #128
 286 0034 1B01     		lsls	r3, r3, #4
 287 0036 9A42     		cmp	r2, r3
 288 0038 01D1     		bne	.L22
 281:Generated_Source\PSoC4/UART_SPI_UART.c ****                 }
 289              		.loc 1 281 0
 290 003a 0023     		movs	r3, #0
 291 003c FB60     		str	r3, [r7, #12]
 292              	.L22:
 285:Generated_Source\PSoC4/UART_SPI_UART.c ****                 {
 293              		.loc 1 285 0
 294 003e C046     		nop
 295              	.L20:
 285:Generated_Source\PSoC4/UART_SPI_UART.c ****                 {
 296              		.loc 1 285 0 is_stmt 0 discriminator 1
 297 0040 114B     		ldr	r3, .L23+4
 298 0042 1B68     		ldr	r3, [r3]
 299 0044 FA68     		ldr	r2, [r7, #12]
 300 0046 9A42     		cmp	r2, r3
 301 0048 FAD0     		beq	.L20
 292:Generated_Source\PSoC4/UART_SPI_UART.c **** 
 302              		.loc 1 292 0 is_stmt 1
 303 004a 124B     		ldr	r3, .L23+16
 304 004c 0222     		movs	r2, #2
ARM GAS  C:\Users\7709\AppData\Local\Temp\ccEdLAil.s 			page 12


 305 004e 1A60     		str	r2, [r3]
 294:Generated_Source\PSoC4/UART_SPI_UART.c **** 
 306              		.loc 1 294 0
 307 0050 7B68     		ldr	r3, [r7, #4]
 308 0052 D9B2     		uxtb	r1, r3
 309 0054 104A     		ldr	r2, .L23+20
 310 0056 FB68     		ldr	r3, [r7, #12]
 311 0058 D318     		adds	r3, r2, r3
 312 005a 0A1C     		adds	r2, r1, #0
 313 005c 1A70     		strb	r2, [r3]
 296:Generated_Source\PSoC4/UART_SPI_UART.c **** 
 314              		.loc 1 296 0
 315 005e 094B     		ldr	r3, .L23
 316 0060 FA68     		ldr	r2, [r7, #12]
 317 0062 1A60     		str	r2, [r3]
 299:Generated_Source\PSoC4/UART_SPI_UART.c ****                 {
 318              		.loc 1 299 0
 319 0064 0D4B     		ldr	r3, .L23+24
 320 0066 1B68     		ldr	r3, [r3]
 321 0068 0222     		movs	r2, #2
 322 006a 1340     		ands	r3, r2
 323 006c 05D1     		bne	.L21
 302:Generated_Source\PSoC4/UART_SPI_UART.c ****                 }
 324              		.loc 1 302 0
 325 006e 0B4B     		ldr	r3, .L23+24
 326 0070 0A4A     		ldr	r2, .L23+24
 327 0072 1268     		ldr	r2, [r2]
 328 0074 0221     		movs	r1, #2
 329 0076 0A43     		orrs	r2, r1
 330 0078 1A60     		str	r2, [r3]
 331              	.L21:
 332              		.loc 1 316 0
 333 007a C046     		nop
 334 007c BD46     		mov	sp, r7
 335 007e 04B0     		add	sp, sp, #16
 336              		@ sp needed
 337 0080 80BD     		pop	{r7, pc}
 338              	.L24:
 339 0082 C046     		.align	2
 340              	.L23:
 341 0084 00000000 		.word	UART_txBufferHead
 342 0088 00000000 		.word	UART_txBufferTail
 343 008c 08022440 		.word	1076101640
 344 0090 40022440 		.word	1076101696
 345 0094 800F2440 		.word	1076105088
 346 0098 00000000 		.word	UART_txBufferInternal
 347 009c 880F2440 		.word	1076105096
 348              		.cfi_endproc
 349              	.LFE5:
 350              		.size	UART_SpiUartWriteTxData, .-UART_SpiUartWriteTxData
 351              		.section	.rodata
 352              		.align	2
 353              	.LC11:
 354 0000 2000     		.ascii	" \000"
 355              		.section	.text.UART_SpiUartPutArray,"ax",%progbits
 356              		.align	2
 357              		.global	UART_SpiUartPutArray
ARM GAS  C:\Users\7709\AppData\Local\Temp\ccEdLAil.s 			page 13


 358              		.code	16
 359              		.thumb_func
 360              		.type	UART_SpiUartPutArray, %function
 361              	UART_SpiUartPutArray:
 362              	.LFB6:
 317:Generated_Source\PSoC4/UART_SPI_UART.c **** 
 318:Generated_Source\PSoC4/UART_SPI_UART.c **** 
 319:Generated_Source\PSoC4/UART_SPI_UART.c ****     /*******************************************************************************
 320:Generated_Source\PSoC4/UART_SPI_UART.c ****     * Function Name: UART_SpiUartPutArray
 321:Generated_Source\PSoC4/UART_SPI_UART.c ****     ****************************************************************************//**
 322:Generated_Source\PSoC4/UART_SPI_UART.c ****     *
 323:Generated_Source\PSoC4/UART_SPI_UART.c ****     *  Places an array of data into the transmit buffer to be sent.
 324:Generated_Source\PSoC4/UART_SPI_UART.c ****     *  This function is blocking and waits until there is a space available to put
 325:Generated_Source\PSoC4/UART_SPI_UART.c ****     *  all the requested data in the transmit buffer. The array size can be greater
 326:Generated_Source\PSoC4/UART_SPI_UART.c ****     *  than transmit buffer size.
 327:Generated_Source\PSoC4/UART_SPI_UART.c ****     *
 328:Generated_Source\PSoC4/UART_SPI_UART.c ****     * \param wrBuf: pointer to an array of data to be placed in transmit buffer. 
 329:Generated_Source\PSoC4/UART_SPI_UART.c ****     *  The width of the data to be transmitted depends on TX data width selection 
 330:Generated_Source\PSoC4/UART_SPI_UART.c ****     *  (the data bit counting starts from LSB for each array element).
 331:Generated_Source\PSoC4/UART_SPI_UART.c ****     * \param count: number of data elements to be placed in the transmit buffer.
 332:Generated_Source\PSoC4/UART_SPI_UART.c ****     *
 333:Generated_Source\PSoC4/UART_SPI_UART.c ****     * \globalvars
 334:Generated_Source\PSoC4/UART_SPI_UART.c ****     *  UART_txBufferHead - the start index to put data into the 
 335:Generated_Source\PSoC4/UART_SPI_UART.c ****     *  software transmit buffer.
 336:Generated_Source\PSoC4/UART_SPI_UART.c ****     *  UART_txBufferTail - start index to get data from the software
 337:Generated_Source\PSoC4/UART_SPI_UART.c ****     *  transmit buffer.
 338:Generated_Source\PSoC4/UART_SPI_UART.c ****     *
 339:Generated_Source\PSoC4/UART_SPI_UART.c ****     *******************************************************************************/
 340:Generated_Source\PSoC4/UART_SPI_UART.c ****     void UART_SpiUartPutArray(const uint8 wrBuf[], uint32 count)
 341:Generated_Source\PSoC4/UART_SPI_UART.c ****     {
 363              		.loc 1 341 0
 364              		.cfi_startproc
 365              		@ args = 0, pretend = 0, frame = 16
 366              		@ frame_needed = 1, uses_anonymous_args = 0
 367 0000 80B5     		push	{r7, lr}
 368              		.cfi_def_cfa_offset 8
 369              		.cfi_offset 7, -8
 370              		.cfi_offset 14, -4
 371 0002 84B0     		sub	sp, sp, #16
 372              		.cfi_def_cfa_offset 24
 373 0004 00AF     		add	r7, sp, #0
 374              		.cfi_def_cfa_register 7
 375 0006 7860     		str	r0, [r7, #4]
 376 0008 3960     		str	r1, [r7]
 342:Generated_Source\PSoC4/UART_SPI_UART.c ****         uint32 i;
 343:Generated_Source\PSoC4/UART_SPI_UART.c **** 
 344:Generated_Source\PSoC4/UART_SPI_UART.c ****         for (i=0u; i < count; i++)
 377              		.loc 1 344 0
 378 000a 0023     		movs	r3, #0
 379 000c FB60     		str	r3, [r7, #12]
 380 000e 0DE0     		b	.L26
 381              	.L27:
 345:Generated_Source\PSoC4/UART_SPI_UART.c ****         {
 346:Generated_Source\PSoC4/UART_SPI_UART.c ****             UART_SpiUartWriteTxData((uint32) wrBuf[i]);
 382              		.loc 1 346 0 discriminator 3
 383 0010 7A68     		ldr	r2, [r7, #4]
 384 0012 FB68     		ldr	r3, [r7, #12]
ARM GAS  C:\Users\7709\AppData\Local\Temp\ccEdLAil.s 			page 14


 385 0014 D318     		adds	r3, r2, r3
 386 0016 1B78     		ldrb	r3, [r3]
 387 0018 1800     		movs	r0, r3
 388 001a FFF7FEFF 		bl	UART_SpiUartWriteTxData
 347:Generated_Source\PSoC4/UART_SPI_UART.c ****             UART_UartPutString(" ");
 389              		.loc 1 347 0 discriminator 3
 390 001e 074B     		ldr	r3, .L28
 391 0020 1800     		movs	r0, r3
 392 0022 FFF7FEFF 		bl	UART_UartPutString
 344:Generated_Source\PSoC4/UART_SPI_UART.c ****         {
 393              		.loc 1 344 0 discriminator 3
 394 0026 FB68     		ldr	r3, [r7, #12]
 395 0028 0133     		adds	r3, r3, #1
 396 002a FB60     		str	r3, [r7, #12]
 397              	.L26:
 344:Generated_Source\PSoC4/UART_SPI_UART.c ****         {
 398              		.loc 1 344 0 is_stmt 0 discriminator 1
 399 002c FA68     		ldr	r2, [r7, #12]
 400 002e 3B68     		ldr	r3, [r7]
 401 0030 9A42     		cmp	r2, r3
 402 0032 EDD3     		bcc	.L27
 348:Generated_Source\PSoC4/UART_SPI_UART.c ****         }
 349:Generated_Source\PSoC4/UART_SPI_UART.c ****     }
 403              		.loc 1 349 0 is_stmt 1
 404 0034 C046     		nop
 405 0036 BD46     		mov	sp, r7
 406 0038 04B0     		add	sp, sp, #16
 407              		@ sp needed
 408 003a 80BD     		pop	{r7, pc}
 409              	.L29:
 410              		.align	2
 411              	.L28:
 412 003c 00000000 		.word	.LC11
 413              		.cfi_endproc
 414              	.LFE6:
 415              		.size	UART_SpiUartPutArray, .-UART_SpiUartPutArray
 416              		.section	.text.UART_SpiUartGetTxBufferSize,"ax",%progbits
 417              		.align	2
 418              		.global	UART_SpiUartGetTxBufferSize
 419              		.code	16
 420              		.thumb_func
 421              		.type	UART_SpiUartGetTxBufferSize, %function
 422              	UART_SpiUartGetTxBufferSize:
 423              	.LFB7:
 350:Generated_Source\PSoC4/UART_SPI_UART.c **** 
 351:Generated_Source\PSoC4/UART_SPI_UART.c **** 
 352:Generated_Source\PSoC4/UART_SPI_UART.c ****     /*******************************************************************************
 353:Generated_Source\PSoC4/UART_SPI_UART.c ****     * Function Name: UART_SpiUartGetTxBufferSize
 354:Generated_Source\PSoC4/UART_SPI_UART.c ****     ****************************************************************************//**
 355:Generated_Source\PSoC4/UART_SPI_UART.c ****     *
 356:Generated_Source\PSoC4/UART_SPI_UART.c ****     *  Returns the number of elements currently in the transmit buffer.
 357:Generated_Source\PSoC4/UART_SPI_UART.c ****     *   - TX software buffer is disabled: returns the number of used entries in
 358:Generated_Source\PSoC4/UART_SPI_UART.c ****     *     TX FIFO.
 359:Generated_Source\PSoC4/UART_SPI_UART.c ****     *   - TX software buffer is enabled: returns the number of elements currently
 360:Generated_Source\PSoC4/UART_SPI_UART.c ****     *     used in the transmit buffer. This number does not include used entries in
 361:Generated_Source\PSoC4/UART_SPI_UART.c ****     *     the TX FIFO. The transmit buffer size is zero until the TX FIFO is
 362:Generated_Source\PSoC4/UART_SPI_UART.c ****     *     not full.
ARM GAS  C:\Users\7709\AppData\Local\Temp\ccEdLAil.s 			page 15


 363:Generated_Source\PSoC4/UART_SPI_UART.c ****     *
 364:Generated_Source\PSoC4/UART_SPI_UART.c ****     * \return
 365:Generated_Source\PSoC4/UART_SPI_UART.c ****     *  Number of data elements ready to transmit.
 366:Generated_Source\PSoC4/UART_SPI_UART.c ****     *
 367:Generated_Source\PSoC4/UART_SPI_UART.c ****     * \globalvars
 368:Generated_Source\PSoC4/UART_SPI_UART.c ****     *  UART_txBufferHead - the start index to put data into the 
 369:Generated_Source\PSoC4/UART_SPI_UART.c ****     *  software transmit buffer.
 370:Generated_Source\PSoC4/UART_SPI_UART.c ****     *  UART_txBufferTail - start index to get data from the software
 371:Generated_Source\PSoC4/UART_SPI_UART.c ****     *  transmit buffer.
 372:Generated_Source\PSoC4/UART_SPI_UART.c ****     *
 373:Generated_Source\PSoC4/UART_SPI_UART.c ****     *******************************************************************************/
 374:Generated_Source\PSoC4/UART_SPI_UART.c ****     uint32 UART_SpiUartGetTxBufferSize(void)
 375:Generated_Source\PSoC4/UART_SPI_UART.c ****     {
 424              		.loc 1 375 0
 425              		.cfi_startproc
 426              		@ args = 0, pretend = 0, frame = 8
 427              		@ frame_needed = 1, uses_anonymous_args = 0
 428 0000 80B5     		push	{r7, lr}
 429              		.cfi_def_cfa_offset 8
 430              		.cfi_offset 7, -8
 431              		.cfi_offset 14, -4
 432 0002 82B0     		sub	sp, sp, #8
 433              		.cfi_def_cfa_offset 16
 434 0004 00AF     		add	r7, sp, #0
 435              		.cfi_def_cfa_register 7
 376:Generated_Source\PSoC4/UART_SPI_UART.c ****         uint32 size;
 377:Generated_Source\PSoC4/UART_SPI_UART.c ****     #if (UART_INTERNAL_TX_SW_BUFFER_CONST)
 378:Generated_Source\PSoC4/UART_SPI_UART.c ****         uint32 locTail;
 379:Generated_Source\PSoC4/UART_SPI_UART.c ****     #endif /* (UART_INTERNAL_TX_SW_BUFFER_CONST) */
 380:Generated_Source\PSoC4/UART_SPI_UART.c **** 
 381:Generated_Source\PSoC4/UART_SPI_UART.c ****         #if (UART_CHECK_TX_SW_BUFFER)
 382:Generated_Source\PSoC4/UART_SPI_UART.c ****         {
 383:Generated_Source\PSoC4/UART_SPI_UART.c ****             /* Get current Tail index */
 384:Generated_Source\PSoC4/UART_SPI_UART.c ****             locTail = UART_txBufferTail;
 436              		.loc 1 384 0
 437 0006 0E4B     		ldr	r3, .L34
 438 0008 1B68     		ldr	r3, [r3]
 439 000a 3B60     		str	r3, [r7]
 385:Generated_Source\PSoC4/UART_SPI_UART.c **** 
 386:Generated_Source\PSoC4/UART_SPI_UART.c ****             if (UART_txBufferHead >= locTail)
 440              		.loc 1 386 0
 441 000c 0D4B     		ldr	r3, .L34+4
 442 000e 1A68     		ldr	r2, [r3]
 443 0010 3B68     		ldr	r3, [r7]
 444 0012 9A42     		cmp	r2, r3
 445 0014 05D3     		bcc	.L31
 387:Generated_Source\PSoC4/UART_SPI_UART.c ****             {
 388:Generated_Source\PSoC4/UART_SPI_UART.c ****                 size = (UART_txBufferHead - locTail);
 446              		.loc 1 388 0
 447 0016 0B4B     		ldr	r3, .L34+4
 448 0018 1A68     		ldr	r2, [r3]
 449 001a 3B68     		ldr	r3, [r7]
 450 001c D31A     		subs	r3, r2, r3
 451 001e 7B60     		str	r3, [r7, #4]
 452 0020 08E0     		b	.L32
 453              	.L31:
 389:Generated_Source\PSoC4/UART_SPI_UART.c ****             }
ARM GAS  C:\Users\7709\AppData\Local\Temp\ccEdLAil.s 			page 16


 390:Generated_Source\PSoC4/UART_SPI_UART.c ****             else
 391:Generated_Source\PSoC4/UART_SPI_UART.c ****             {
 392:Generated_Source\PSoC4/UART_SPI_UART.c ****                 size = (UART_txBufferHead + (UART_TX_BUFFER_SIZE - locTail));
 454              		.loc 1 392 0
 455 0022 084B     		ldr	r3, .L34+4
 456 0024 1A68     		ldr	r2, [r3]
 457 0026 3B68     		ldr	r3, [r7]
 458 0028 D31A     		subs	r3, r2, r3
 459 002a 8022     		movs	r2, #128
 460 002c 1201     		lsls	r2, r2, #4
 461 002e 9446     		mov	ip, r2
 462 0030 6344     		add	r3, r3, ip
 463 0032 7B60     		str	r3, [r7, #4]
 464              	.L32:
 393:Generated_Source\PSoC4/UART_SPI_UART.c ****             }
 394:Generated_Source\PSoC4/UART_SPI_UART.c ****         }
 395:Generated_Source\PSoC4/UART_SPI_UART.c ****         #else
 396:Generated_Source\PSoC4/UART_SPI_UART.c ****         {
 397:Generated_Source\PSoC4/UART_SPI_UART.c ****             size = UART_GET_TX_FIFO_ENTRIES;
 398:Generated_Source\PSoC4/UART_SPI_UART.c ****         }
 399:Generated_Source\PSoC4/UART_SPI_UART.c ****         #endif
 400:Generated_Source\PSoC4/UART_SPI_UART.c **** 
 401:Generated_Source\PSoC4/UART_SPI_UART.c ****         return (size);
 465              		.loc 1 401 0
 466 0034 7B68     		ldr	r3, [r7, #4]
 402:Generated_Source\PSoC4/UART_SPI_UART.c ****     }
 467              		.loc 1 402 0
 468 0036 1800     		movs	r0, r3
 469 0038 BD46     		mov	sp, r7
 470 003a 02B0     		add	sp, sp, #8
 471              		@ sp needed
 472 003c 80BD     		pop	{r7, pc}
 473              	.L35:
 474 003e C046     		.align	2
 475              	.L34:
 476 0040 00000000 		.word	UART_txBufferTail
 477 0044 00000000 		.word	UART_txBufferHead
 478              		.cfi_endproc
 479              	.LFE7:
 480              		.size	UART_SpiUartGetTxBufferSize, .-UART_SpiUartGetTxBufferSize
 481              		.section	.text.UART_SpiUartClearTxBuffer,"ax",%progbits
 482              		.align	2
 483              		.global	UART_SpiUartClearTxBuffer
 484              		.code	16
 485              		.thumb_func
 486              		.type	UART_SpiUartClearTxBuffer, %function
 487              	UART_SpiUartClearTxBuffer:
 488              	.LFB8:
 403:Generated_Source\PSoC4/UART_SPI_UART.c **** 
 404:Generated_Source\PSoC4/UART_SPI_UART.c **** 
 405:Generated_Source\PSoC4/UART_SPI_UART.c ****     /*******************************************************************************
 406:Generated_Source\PSoC4/UART_SPI_UART.c ****     * Function Name: UART_SpiUartClearTxBuffer
 407:Generated_Source\PSoC4/UART_SPI_UART.c ****     ****************************************************************************//**
 408:Generated_Source\PSoC4/UART_SPI_UART.c ****     *
 409:Generated_Source\PSoC4/UART_SPI_UART.c ****     *  Clears the transmit buffer and TX FIFO.
 410:Generated_Source\PSoC4/UART_SPI_UART.c ****     *
 411:Generated_Source\PSoC4/UART_SPI_UART.c ****     * \globalvars
ARM GAS  C:\Users\7709\AppData\Local\Temp\ccEdLAil.s 			page 17


 412:Generated_Source\PSoC4/UART_SPI_UART.c ****     *  UART_txBufferHead - the start index to put data into the 
 413:Generated_Source\PSoC4/UART_SPI_UART.c ****     *  software transmit buffer.
 414:Generated_Source\PSoC4/UART_SPI_UART.c ****     *  UART_txBufferTail - start index to get data from the software
 415:Generated_Source\PSoC4/UART_SPI_UART.c ****     *  transmit buffer.
 416:Generated_Source\PSoC4/UART_SPI_UART.c ****     *
 417:Generated_Source\PSoC4/UART_SPI_UART.c ****     *******************************************************************************/
 418:Generated_Source\PSoC4/UART_SPI_UART.c ****     void UART_SpiUartClearTxBuffer(void)
 419:Generated_Source\PSoC4/UART_SPI_UART.c ****     {
 489              		.loc 1 419 0
 490              		.cfi_startproc
 491              		@ args = 0, pretend = 0, frame = 0
 492              		@ frame_needed = 1, uses_anonymous_args = 0
 493 0000 80B5     		push	{r7, lr}
 494              		.cfi_def_cfa_offset 8
 495              		.cfi_offset 7, -8
 496              		.cfi_offset 14, -4
 497 0002 00AF     		add	r7, sp, #0
 498              		.cfi_def_cfa_register 7
 420:Generated_Source\PSoC4/UART_SPI_UART.c ****         #if (UART_CHECK_TX_SW_BUFFER)
 421:Generated_Source\PSoC4/UART_SPI_UART.c ****         {
 422:Generated_Source\PSoC4/UART_SPI_UART.c ****             /* Lock from component interruption */
 423:Generated_Source\PSoC4/UART_SPI_UART.c ****             UART_DisableInt();
 499              		.loc 1 423 0
 500 0004 0920     		movs	r0, #9
 501 0006 FFF7FEFF 		bl	CyIntDisable
 424:Generated_Source\PSoC4/UART_SPI_UART.c **** 
 425:Generated_Source\PSoC4/UART_SPI_UART.c ****             /* Flush TX software buffer */
 426:Generated_Source\PSoC4/UART_SPI_UART.c ****             UART_txBufferHead = UART_txBufferTail;
 502              		.loc 1 426 0
 503 000a 104B     		ldr	r3, .L37
 504 000c 1A68     		ldr	r2, [r3]
 505 000e 104B     		ldr	r3, .L37+4
 506 0010 1A60     		str	r2, [r3]
 427:Generated_Source\PSoC4/UART_SPI_UART.c **** 
 428:Generated_Source\PSoC4/UART_SPI_UART.c ****             UART_INTR_TX_MASK_REG &= (uint32) ~UART_INTR_TX_NOT_FULL;
 507              		.loc 1 428 0
 508 0012 104B     		ldr	r3, .L37+8
 509 0014 0F4A     		ldr	r2, .L37+8
 510 0016 1268     		ldr	r2, [r2]
 511 0018 0221     		movs	r1, #2
 512 001a 8A43     		bics	r2, r1
 513 001c 1A60     		str	r2, [r3]
 429:Generated_Source\PSoC4/UART_SPI_UART.c ****             UART_CLEAR_TX_FIFO;
 514              		.loc 1 429 0
 515 001e 0E4B     		ldr	r3, .L37+12
 516 0020 0D4A     		ldr	r2, .L37+12
 517 0022 1268     		ldr	r2, [r2]
 518 0024 8021     		movs	r1, #128
 519 0026 4902     		lsls	r1, r1, #9
 520 0028 0A43     		orrs	r2, r1
 521 002a 1A60     		str	r2, [r3]
 522 002c 0A4B     		ldr	r3, .L37+12
 523 002e 0A4A     		ldr	r2, .L37+12
 524 0030 1268     		ldr	r2, [r2]
 525 0032 0A49     		ldr	r1, .L37+16
 526 0034 0A40     		ands	r2, r1
 527 0036 1A60     		str	r2, [r3]
ARM GAS  C:\Users\7709\AppData\Local\Temp\ccEdLAil.s 			page 18


 430:Generated_Source\PSoC4/UART_SPI_UART.c ****             UART_ClearTxInterruptSource(UART_INTR_TX_ALL);
 528              		.loc 1 430 0
 529 0038 094B     		ldr	r3, .L37+20
 530 003a 0A4A     		ldr	r2, .L37+24
 531 003c 1A60     		str	r2, [r3]
 431:Generated_Source\PSoC4/UART_SPI_UART.c **** 
 432:Generated_Source\PSoC4/UART_SPI_UART.c ****             /* Release lock */
 433:Generated_Source\PSoC4/UART_SPI_UART.c ****             UART_EnableInt();
 532              		.loc 1 433 0
 533 003e 0920     		movs	r0, #9
 534 0040 FFF7FEFF 		bl	CyIntEnable
 434:Generated_Source\PSoC4/UART_SPI_UART.c ****         }
 435:Generated_Source\PSoC4/UART_SPI_UART.c ****         #else
 436:Generated_Source\PSoC4/UART_SPI_UART.c ****         {
 437:Generated_Source\PSoC4/UART_SPI_UART.c ****             UART_CLEAR_TX_FIFO;
 438:Generated_Source\PSoC4/UART_SPI_UART.c ****         }
 439:Generated_Source\PSoC4/UART_SPI_UART.c ****         #endif
 440:Generated_Source\PSoC4/UART_SPI_UART.c ****     }
 535              		.loc 1 440 0
 536 0044 C046     		nop
 537 0046 BD46     		mov	sp, r7
 538              		@ sp needed
 539 0048 80BD     		pop	{r7, pc}
 540              	.L38:
 541 004a C046     		.align	2
 542              	.L37:
 543 004c 00000000 		.word	UART_txBufferTail
 544 0050 00000000 		.word	UART_txBufferHead
 545 0054 880F2440 		.word	1076105096
 546 0058 04022440 		.word	1076101636
 547 005c FFFFFEFF 		.word	-65537
 548 0060 800F2440 		.word	1076105088
 549 0064 F3070000 		.word	2035
 550              		.cfi_endproc
 551              	.LFE8:
 552              		.size	UART_SpiUartClearTxBuffer, .-UART_SpiUartClearTxBuffer
 553              		.section	.text.UART_SpiUartDisableIntRx,"ax",%progbits
 554              		.align	2
 555              		.global	UART_SpiUartDisableIntRx
 556              		.code	16
 557              		.thumb_func
 558              		.type	UART_SpiUartDisableIntRx, %function
 559              	UART_SpiUartDisableIntRx:
 560              	.LFB9:
 441:Generated_Source\PSoC4/UART_SPI_UART.c **** 
 442:Generated_Source\PSoC4/UART_SPI_UART.c **** #endif /* (UART_TX_DIRECTION) */
 443:Generated_Source\PSoC4/UART_SPI_UART.c **** 
 444:Generated_Source\PSoC4/UART_SPI_UART.c **** 
 445:Generated_Source\PSoC4/UART_SPI_UART.c **** /*******************************************************************************
 446:Generated_Source\PSoC4/UART_SPI_UART.c **** * Function Name: UART_SpiUartDisableIntRx
 447:Generated_Source\PSoC4/UART_SPI_UART.c **** ****************************************************************************//**
 448:Generated_Source\PSoC4/UART_SPI_UART.c **** *
 449:Generated_Source\PSoC4/UART_SPI_UART.c **** *  Disables the RX interrupt sources.
 450:Generated_Source\PSoC4/UART_SPI_UART.c **** *
 451:Generated_Source\PSoC4/UART_SPI_UART.c **** *  \return
 452:Generated_Source\PSoC4/UART_SPI_UART.c **** *   Returns the RX interrupt sources enabled before the function call.
 453:Generated_Source\PSoC4/UART_SPI_UART.c **** *
ARM GAS  C:\Users\7709\AppData\Local\Temp\ccEdLAil.s 			page 19


 454:Generated_Source\PSoC4/UART_SPI_UART.c **** *******************************************************************************/
 455:Generated_Source\PSoC4/UART_SPI_UART.c **** uint32 UART_SpiUartDisableIntRx(void)
 456:Generated_Source\PSoC4/UART_SPI_UART.c **** {
 561              		.loc 1 456 0
 562              		.cfi_startproc
 563              		@ args = 0, pretend = 0, frame = 8
 564              		@ frame_needed = 1, uses_anonymous_args = 0
 565 0000 80B5     		push	{r7, lr}
 566              		.cfi_def_cfa_offset 8
 567              		.cfi_offset 7, -8
 568              		.cfi_offset 14, -4
 569 0002 82B0     		sub	sp, sp, #8
 570              		.cfi_def_cfa_offset 16
 571 0004 00AF     		add	r7, sp, #0
 572              		.cfi_def_cfa_register 7
 457:Generated_Source\PSoC4/UART_SPI_UART.c ****     uint32 intSource;
 458:Generated_Source\PSoC4/UART_SPI_UART.c **** 
 459:Generated_Source\PSoC4/UART_SPI_UART.c ****     intSource = UART_GetRxInterruptMode();
 573              		.loc 1 459 0
 574 0006 054B     		ldr	r3, .L41
 575 0008 1B68     		ldr	r3, [r3]
 576 000a 7B60     		str	r3, [r7, #4]
 460:Generated_Source\PSoC4/UART_SPI_UART.c **** 
 461:Generated_Source\PSoC4/UART_SPI_UART.c ****     UART_SetRxInterruptMode(UART_NO_INTR_SOURCES);
 577              		.loc 1 461 0
 578 000c 034B     		ldr	r3, .L41
 579 000e 0022     		movs	r2, #0
 580 0010 1A60     		str	r2, [r3]
 462:Generated_Source\PSoC4/UART_SPI_UART.c **** 
 463:Generated_Source\PSoC4/UART_SPI_UART.c ****     return (intSource);
 581              		.loc 1 463 0
 582 0012 7B68     		ldr	r3, [r7, #4]
 464:Generated_Source\PSoC4/UART_SPI_UART.c **** }
 583              		.loc 1 464 0
 584 0014 1800     		movs	r0, r3
 585 0016 BD46     		mov	sp, r7
 586 0018 02B0     		add	sp, sp, #8
 587              		@ sp needed
 588 001a 80BD     		pop	{r7, pc}
 589              	.L42:
 590              		.align	2
 591              	.L41:
 592 001c C80F2440 		.word	1076105160
 593              		.cfi_endproc
 594              	.LFE9:
 595              		.size	UART_SpiUartDisableIntRx, .-UART_SpiUartDisableIntRx
 596              		.section	.text.UART_SpiUartDisableIntTx,"ax",%progbits
 597              		.align	2
 598              		.global	UART_SpiUartDisableIntTx
 599              		.code	16
 600              		.thumb_func
 601              		.type	UART_SpiUartDisableIntTx, %function
 602              	UART_SpiUartDisableIntTx:
 603              	.LFB10:
 465:Generated_Source\PSoC4/UART_SPI_UART.c **** 
 466:Generated_Source\PSoC4/UART_SPI_UART.c **** 
 467:Generated_Source\PSoC4/UART_SPI_UART.c **** /*******************************************************************************
ARM GAS  C:\Users\7709\AppData\Local\Temp\ccEdLAil.s 			page 20


 468:Generated_Source\PSoC4/UART_SPI_UART.c **** * Function Name: UART_SpiUartDisableIntTx
 469:Generated_Source\PSoC4/UART_SPI_UART.c **** ****************************************************************************//**
 470:Generated_Source\PSoC4/UART_SPI_UART.c **** *
 471:Generated_Source\PSoC4/UART_SPI_UART.c **** *  Disables TX interrupt sources.
 472:Generated_Source\PSoC4/UART_SPI_UART.c **** *
 473:Generated_Source\PSoC4/UART_SPI_UART.c **** *  \return
 474:Generated_Source\PSoC4/UART_SPI_UART.c **** *   Returns TX interrupt sources enabled before function call.
 475:Generated_Source\PSoC4/UART_SPI_UART.c **** *
 476:Generated_Source\PSoC4/UART_SPI_UART.c **** *******************************************************************************/
 477:Generated_Source\PSoC4/UART_SPI_UART.c **** uint32 UART_SpiUartDisableIntTx(void)
 478:Generated_Source\PSoC4/UART_SPI_UART.c **** {
 604              		.loc 1 478 0
 605              		.cfi_startproc
 606              		@ args = 0, pretend = 0, frame = 8
 607              		@ frame_needed = 1, uses_anonymous_args = 0
 608 0000 80B5     		push	{r7, lr}
 609              		.cfi_def_cfa_offset 8
 610              		.cfi_offset 7, -8
 611              		.cfi_offset 14, -4
 612 0002 82B0     		sub	sp, sp, #8
 613              		.cfi_def_cfa_offset 16
 614 0004 00AF     		add	r7, sp, #0
 615              		.cfi_def_cfa_register 7
 479:Generated_Source\PSoC4/UART_SPI_UART.c ****     uint32 intSourceMask;
 480:Generated_Source\PSoC4/UART_SPI_UART.c **** 
 481:Generated_Source\PSoC4/UART_SPI_UART.c ****     intSourceMask = UART_GetTxInterruptMode();
 616              		.loc 1 481 0
 617 0006 054B     		ldr	r3, .L45
 618 0008 1B68     		ldr	r3, [r3]
 619 000a 7B60     		str	r3, [r7, #4]
 482:Generated_Source\PSoC4/UART_SPI_UART.c **** 
 483:Generated_Source\PSoC4/UART_SPI_UART.c ****     UART_SetTxInterruptMode(UART_NO_INTR_SOURCES);
 620              		.loc 1 483 0
 621 000c 034B     		ldr	r3, .L45
 622 000e 0022     		movs	r2, #0
 623 0010 1A60     		str	r2, [r3]
 484:Generated_Source\PSoC4/UART_SPI_UART.c **** 
 485:Generated_Source\PSoC4/UART_SPI_UART.c ****     return (intSourceMask);
 624              		.loc 1 485 0
 625 0012 7B68     		ldr	r3, [r7, #4]
 486:Generated_Source\PSoC4/UART_SPI_UART.c **** }
 626              		.loc 1 486 0
 627 0014 1800     		movs	r0, r3
 628 0016 BD46     		mov	sp, r7
 629 0018 02B0     		add	sp, sp, #8
 630              		@ sp needed
 631 001a 80BD     		pop	{r7, pc}
 632              	.L46:
 633              		.align	2
 634              	.L45:
 635 001c 880F2440 		.word	1076105096
 636              		.cfi_endproc
 637              	.LFE10:
 638              		.size	UART_SpiUartDisableIntTx, .-UART_SpiUartDisableIntTx
 639              		.text
 640              	.Letext0:
 641              		.file 2 "Generated_Source\\PSoC4/cytypes.h"
ARM GAS  C:\Users\7709\AppData\Local\Temp\ccEdLAil.s 			page 21

