ARM GAS  C:\Users\7709\AppData\Local\Temp\ccvvJmqr.s 			page 1


   1              		.syntax unified
   2              		.cpu cortex-m0
   3              		.fpu softvfp
   4              		.eabi_attribute 20, 1
   5              		.eabi_attribute 21, 1
   6              		.eabi_attribute 23, 3
   7              		.eabi_attribute 24, 1
   8              		.eabi_attribute 25, 1
   9              		.eabi_attribute 26, 1
  10              		.eabi_attribute 30, 6
  11              		.eabi_attribute 34, 0
  12              		.eabi_attribute 18, 4
  13              		.thumb
  14              		.syntax unified
  15              		.file	"app_Ble.c"
  16              		.text
  17              	.Ltext0:
  18              		.cfi_sections	.debug_frame
  19              		.comm	UT,4,4
  20              		.comm	UH,4,4
  21              		.comm	htutemp,4,4
  22              		.comm	htuhum,4,4
  23              		.comm	hum,4,4
  24              		.comm	temp,4,4
  25              		.comm	UT280,4,4
  26              		.comm	UH280,4,4
  27              		.comm	UP280,4,4
  28              		.comm	temp280,4,4
  29              		.comm	hum280,4,4
  30              		.comm	press280,4,4
  31              		.comm	bleApiResult,2,2
  32              		.comm	count,1,1
  33              		.comm	buffer,6,4
  34              		.comm	api,4,4
  35              		.comm	lasTemp,4,4
  36              		.comm	lastHum,4,4
  37              		.comm	sameTemp,4,4
  38              		.comm	sameHum,4,4
  39              		.comm	sensor,5,4
  40              		.comm	mode,1,1
  41              		.global	mtuSize
  42              		.data
  43              		.align	1
  44              		.type	mtuSize, %object
  45              		.size	mtuSize, 2
  46              	mtuSize:
  47 0000 1700     		.short	23
  48              		.comm	cyBle_last_state,1,1
  49              		.section	.rodata
  50              		.align	2
  51              	.LC3:
  52 0000 0A0D2043 		.ascii	"\012\015 CYBLE_STATE_ADVERTISING \012\015 \000"
  52      59424C45 
  52      5F535441 
  52      54455F41 
  52      44564552 
  53 001f 00       		.align	2
ARM GAS  C:\Users\7709\AppData\Local\Temp\ccvvJmqr.s 			page 2


  54              	.LC5:
  55 0020 0A0D2043 		.ascii	"\012\015 CYBLE_STATE_CONNECTED \012\015 \000"
  55      59424C45 
  55      5F535441 
  55      54455F43 
  55      4F4E4E45 
  56 003d 000000   		.align	2
  57              	.LC9:
  58 0040 0A0D2043 		.ascii	"\012\015 CYBLE_STATE_DISCONNECTED \012\015 \000"
  58      59424C45 
  58      5F535441 
  58      54455F44 
  58      4953434F 
  59              		.align	2
  60              	.LC11:
  61 0060 0A0D2043 		.ascii	"\012\015 CYBLE_STATE_INITIALIZING \012\015 \000"
  61      59424C45 
  61      5F535441 
  61      54455F49 
  61      4E495449 
  62              		.align	2
  63              	.LC13:
  64 0080 0A0D2043 		.ascii	"\012\015 CYBLE_STATE_STOPPED \012\015 \000"
  64      59424C45 
  64      5F535441 
  64      54455F53 
  64      544F5050 
  65              		.section	.text.HandleBleProcessing,"ax",%progbits
  66              		.align	2
  67              		.global	HandleBleProcessing
  68              		.code	16
  69              		.thumb_func
  70              		.type	HandleBleProcessing, %function
  71              	HandleBleProcessing:
  72              	.LFB35:
  73              		.file 1 "app_Ble.c"
   1:app_Ble.c     **** /*******************************************************************************
   2:app_Ble.c     **** * File Name: app_Ble.c
   3:app_Ble.c     **** *
   4:app_Ble.c     **** * Description:
   5:app_Ble.c     **** *  Common BLE application code for client devices.
   6:app_Ble.c     **** *
   7:app_Ble.c     **** *******************************************************************************
   8:app_Ble.c     **** * Copyright 2015, Cypress Semiconductor Corporation.  All rights reserved.
   9:app_Ble.c     **** * You may use this file only in accordance with the license, terms, conditions,
  10:app_Ble.c     **** * disclaimers, and limitations in the end user license agreement accompanying
  11:app_Ble.c     **** * the software package with which this file was provided.
  12:app_Ble.c     **** *******************************************************************************/
  13:app_Ble.c     **** 
  14:app_Ble.c     **** #include "app_ble.h"
  15:app_Ble.c     **** 
  16:app_Ble.c     **** /* MTU size to be used by Client and Server after MTU exchange */
  17:app_Ble.c     **** uint16 mtuSize      = CYBLE_GATT_MTU;   
  18:app_Ble.c     **** 
  19:app_Ble.c     **** 
  20:app_Ble.c     **** /*******************************************************************************
  21:app_Ble.c     **** * Function Name: HandleBleProcessing
ARM GAS  C:\Users\7709\AppData\Local\Temp\ccvvJmqr.s 			page 3


  22:app_Ble.c     **** ********************************************************************************
  23:app_Ble.c     **** *
  24:app_Ble.c     **** * Summary:
  25:app_Ble.c     **** *   Handles the BLE state machine for intiating different procedures
  26:app_Ble.c     **** *   during different states of BLESS.
  27:app_Ble.c     **** *
  28:app_Ble.c     **** * Parameters:
  29:app_Ble.c     **** *   None.
  30:app_Ble.c     **** *
  31:app_Ble.c     **** * Return:
  32:app_Ble.c     **** *   None.
  33:app_Ble.c     **** *
  34:app_Ble.c     **** *******************************************************************************/
  35:app_Ble.c     **** 
  36:app_Ble.c     **** CYBLE_STATE_T cyBle_last_state;
  37:app_Ble.c     **** 
  38:app_Ble.c     **** void HandleBleProcessing(void)
  39:app_Ble.c     **** {    
  74              		.loc 1 39 0
  75              		.cfi_startproc
  76              		@ args = 0, pretend = 0, frame = 16
  77              		@ frame_needed = 1, uses_anonymous_args = 0
  78 0000 80B5     		push	{r7, lr}
  79              		.cfi_def_cfa_offset 8
  80              		.cfi_offset 7, -8
  81              		.cfi_offset 14, -4
  82 0002 84B0     		sub	sp, sp, #16
  83              		.cfi_def_cfa_offset 24
  84 0004 00AF     		add	r7, sp, #0
  85              		.cfi_def_cfa_register 7
  40:app_Ble.c     ****     uint8 txDataClientConfigDesc[2];
  41:app_Ble.c     ****    
  42:app_Ble.c     ****     CYBLE_GATT_HANDLE_VALUE_PAIR_T  attrValue = { 
  86              		.loc 1 42 0
  87 0006 3B00     		movs	r3, r7
  88 0008 0C22     		movs	r2, #12
  89 000a BA18     		adds	r2, r7, r2
  90 000c 1A60     		str	r2, [r3]
  91 000e 3B00     		movs	r3, r7
  92 0010 0222     		movs	r2, #2
  93 0012 9A80     		strh	r2, [r3, #4]
  94 0014 3B00     		movs	r3, r7
  95 0016 0222     		movs	r2, #2
  96 0018 DA80     		strh	r2, [r3, #6]
  97 001a 3B00     		movs	r3, r7
  98 001c 0F22     		movs	r2, #15
  99 001e 1A81     		strh	r2, [r3, #8]
  43:app_Ble.c     ****                                                     {(uint8 *)txDataClientConfigDesc, 2, 2}, 
  44:app_Ble.c     ****                                                     CYBLE_SERVER_UART_SERVER_UART_TX_DATA_CLIENT_CH
  45:app_Ble.c     ****                                                 };
  46:app_Ble.c     ****     switch (cyBle_state)
 100              		.loc 1 46 0
 101 0020 3A4B     		ldr	r3, .L21
 102 0022 1B78     		ldrb	r3, [r3]
 103 0024 042B     		cmp	r3, #4
 104 0026 60D8     		bhi	.L16
 105 0028 9A00     		lsls	r2, r3, #2
ARM GAS  C:\Users\7709\AppData\Local\Temp\ccvvJmqr.s 			page 4


 106 002a 394B     		ldr	r3, .L21+4
 107 002c D318     		adds	r3, r2, r3
 108 002e 1B68     		ldr	r3, [r3]
 109 0030 9F46     		mov	pc, r3
 110              		.section	.rodata
 111 009b 00       		.align	2
 112              	.L4:
 113 009c D4000000 		.word	.L3
 114 00a0 BE000000 		.word	.L5
 115 00a4 48000000 		.word	.L6
 116 00a8 32000000 		.word	.L7
 117 00ac 82000000 		.word	.L8
 118              		.section	.text.HandleBleProcessing
 119              	.L7:
  47:app_Ble.c     ****     {
  48:app_Ble.c     ****         case CYBLE_STATE_ADVERTISING:
  49:app_Ble.c     ****                     /* RESET Uart and flush all buffers */
  50:app_Ble.c     **** 
  51:app_Ble.c     ****             if (cyBle_last_state != cyBle_state) {
 120              		.loc 1 51 0
 121 0032 384B     		ldr	r3, .L21+8
 122 0034 1A78     		ldrb	r2, [r3]
 123 0036 354B     		ldr	r3, .L21
 124 0038 1B78     		ldrb	r3, [r3]
 125 003a 9A42     		cmp	r2, r3
 126 003c 57D0     		beq	.L17
  52:app_Ble.c     ****                 #ifdef PRINT_MESSAGE_LOG   
  53:app_Ble.c     ****                 UART_UartPutString("\n\r CYBLE_STATE_ADVERTISING \n\r ");
 127              		.loc 1 53 0
 128 003e 364B     		ldr	r3, .L21+12
 129 0040 1800     		movs	r0, r3
 130 0042 FFF7FEFF 		bl	UART_UartPutString
  54:app_Ble.c     ****                 #endif            
  55:app_Ble.c     ****             }
  56:app_Ble.c     ****             break;
 131              		.loc 1 56 0
 132 0046 52E0     		b	.L17
 133              	.L6:
  57:app_Ble.c     ****         
  58:app_Ble.c     ****         case CYBLE_STATE_CONNECTED:
  59:app_Ble.c     ****         if (cyBle_last_state != cyBle_state) {
 134              		.loc 1 59 0
 135 0048 324B     		ldr	r3, .L21+8
 136 004a 1A78     		ldrb	r2, [r3]
 137 004c 2F4B     		ldr	r3, .L21
 138 004e 1B78     		ldrb	r3, [r3]
 139 0050 9A42     		cmp	r2, r3
 140 0052 03D0     		beq	.L11
  60:app_Ble.c     ****                 #ifdef PRINT_MESSAGE_LOG   
  61:app_Ble.c     ****                 UART_UartPutString("\n\r CYBLE_STATE_CONNECTED \n\r ");
 141              		.loc 1 61 0
 142 0054 314B     		ldr	r3, .L21+16
 143 0056 1800     		movs	r0, r3
 144 0058 FFF7FEFF 		bl	UART_UartPutString
 145              	.L11:
  62:app_Ble.c     ****                 #endif
  63:app_Ble.c     ****         }
ARM GAS  C:\Users\7709\AppData\Local\Temp\ccvvJmqr.s 			page 5


  64:app_Ble.c     ****             /* read CCCD for TX characteristic for checking if notifications are enabled*/
  65:app_Ble.c     ****             CyBle_GattsReadAttributeValue(&attrValue, &cyBle_connHandle, CYBLE_GATT_DB_LOCALLY_INIT
 146              		.loc 1 65 0
 147 005c 3049     		ldr	r1, .L21+20
 148 005e 3B00     		movs	r3, r7
 149 0060 0022     		movs	r2, #0
 150 0062 1800     		movs	r0, r3
 151 0064 FFF7FEFF 		bl	CyBle_GattsReadAttributeValue
  66:app_Ble.c     ****             
  67:app_Ble.c     ****             /* if stack is free, handle UART traffic */
  68:app_Ble.c     ****             if(CyBle_GattGetBusStatus() != CYBLE_STACK_STATE_BUSY)
 152              		.loc 1 68 0
 153 0068 2E4B     		ldr	r3, .L21+24
 154 006a 1B78     		ldrb	r3, [r3]
 155 006c DBB2     		uxtb	r3, r3
 156 006e 012B     		cmp	r3, #1
 157 0070 3FD0     		beq	.L18
  69:app_Ble.c     ****             {
  70:app_Ble.c     ****                 HandleUartTxTraffic((uint16)txDataClientConfigDesc[0]);
 158              		.loc 1 70 0
 159 0072 0C23     		movs	r3, #12
 160 0074 FB18     		adds	r3, r7, r3
 161 0076 1B78     		ldrb	r3, [r3]
 162 0078 9BB2     		uxth	r3, r3
 163 007a 1800     		movs	r0, r3
 164 007c FFF7FEFF 		bl	HandleUartTxTraffic
  71:app_Ble.c     ****             }
  72:app_Ble.c     ****             break;
 165              		.loc 1 72 0
 166 0080 37E0     		b	.L18
 167              	.L8:
  73:app_Ble.c     ****                 
  74:app_Ble.c     ****         case CYBLE_STATE_DISCONNECTED:
  75:app_Ble.c     ****             if (cyBle_last_state != cyBle_state) {
 168              		.loc 1 75 0
 169 0082 244B     		ldr	r3, .L21+8
 170 0084 1A78     		ldrb	r2, [r3]
 171 0086 214B     		ldr	r3, .L21
 172 0088 1B78     		ldrb	r3, [r3]
 173 008a 9A42     		cmp	r2, r3
 174 008c 03D0     		beq	.L13
  76:app_Ble.c     ****                 #ifdef PRINT_MESSAGE_LOG   
  77:app_Ble.c     ****                 UART_UartPutString("\n\r CYBLE_STATE_DISCONNECTED \n\r ");
 175              		.loc 1 77 0
 176 008e 264B     		ldr	r3, .L21+28
 177 0090 1800     		movs	r0, r3
 178 0092 FFF7FEFF 		bl	UART_UartPutString
 179              	.L13:
  78:app_Ble.c     ****                 #endif
  79:app_Ble.c     ****             }
  80:app_Ble.c     ****             txDataClientConfigDesc[0] = NOTIFICATON_DISABLED;
 180              		.loc 1 80 0
 181 0096 0C23     		movs	r3, #12
 182 0098 FB18     		adds	r3, r7, r3
 183 009a 0022     		movs	r2, #0
 184 009c 1A70     		strb	r2, [r3]
  81:app_Ble.c     ****             txDataClientConfigDesc[1] = NOTIFICATON_DISABLED;
ARM GAS  C:\Users\7709\AppData\Local\Temp\ccvvJmqr.s 			page 6


 185              		.loc 1 81 0
 186 009e 0C23     		movs	r3, #12
 187 00a0 FB18     		adds	r3, r7, r3
 188 00a2 0022     		movs	r2, #0
 189 00a4 5A70     		strb	r2, [r3, #1]
  82:app_Ble.c     ****             
  83:app_Ble.c     ****             CyBle_GappStartAdvertisement(CYBLE_ADVERTISING_FAST);
 190              		.loc 1 83 0
 191 00a6 0020     		movs	r0, #0
 192 00a8 FFF7FEFF 		bl	CyBle_GappStartAdvertisement
  84:app_Ble.c     ****             
  85:app_Ble.c     ****             UART_Stop();
 193              		.loc 1 85 0
 194 00ac FFF7FEFF 		bl	UART_Stop
  86:app_Ble.c     ****             UART_SpiUartClearTxBuffer();
 195              		.loc 1 86 0
 196 00b0 FFF7FEFF 		bl	UART_SpiUartClearTxBuffer
  87:app_Ble.c     ****             UART_SpiUartClearRxBuffer();
 197              		.loc 1 87 0
 198 00b4 FFF7FEFF 		bl	UART_SpiUartClearRxBuffer
  88:app_Ble.c     ****             UART_Start();
 199              		.loc 1 88 0
 200 00b8 FFF7FEFF 		bl	UART_Start
  89:app_Ble.c     ****             
  90:app_Ble.c     ****             break;
 201              		.loc 1 90 0
 202 00bc 1EE0     		b	.L10
 203              	.L5:
  91:app_Ble.c     ****        
  92:app_Ble.c     ****         case CYBLE_STATE_INITIALIZING:
  93:app_Ble.c     ****             if (cyBle_last_state != cyBle_state) {
 204              		.loc 1 93 0
 205 00be 154B     		ldr	r3, .L21+8
 206 00c0 1A78     		ldrb	r2, [r3]
 207 00c2 124B     		ldr	r3, .L21
 208 00c4 1B78     		ldrb	r3, [r3]
 209 00c6 9A42     		cmp	r2, r3
 210 00c8 15D0     		beq	.L19
  94:app_Ble.c     ****                 #ifdef PRINT_MESSAGE_LOG   
  95:app_Ble.c     ****                 UART_UartPutString("\n\r CYBLE_STATE_INITIALIZING \n\r ");
 211              		.loc 1 95 0
 212 00ca 184B     		ldr	r3, .L21+32
 213 00cc 1800     		movs	r0, r3
 214 00ce FFF7FEFF 		bl	UART_UartPutString
  96:app_Ble.c     ****                 #endif            
  97:app_Ble.c     ****             }
  98:app_Ble.c     ****             break;
 215              		.loc 1 98 0
 216 00d2 10E0     		b	.L19
 217              	.L3:
  99:app_Ble.c     ****         case CYBLE_STATE_STOPPED:
 100:app_Ble.c     ****             if (cyBle_last_state != cyBle_state) {
 218              		.loc 1 100 0
 219 00d4 0F4B     		ldr	r3, .L21+8
 220 00d6 1A78     		ldrb	r2, [r3]
 221 00d8 0C4B     		ldr	r3, .L21
 222 00da 1B78     		ldrb	r3, [r3]
ARM GAS  C:\Users\7709\AppData\Local\Temp\ccvvJmqr.s 			page 7


 223 00dc 9A42     		cmp	r2, r3
 224 00de 0CD0     		beq	.L20
 101:app_Ble.c     ****                 #ifdef PRINT_MESSAGE_LOG   
 102:app_Ble.c     ****                 UART_UartPutString("\n\r CYBLE_STATE_STOPPED \n\r ");
 225              		.loc 1 102 0
 226 00e0 134B     		ldr	r3, .L21+36
 227 00e2 1800     		movs	r0, r3
 228 00e4 FFF7FEFF 		bl	UART_UartPutString
 103:app_Ble.c     ****                 #endif                            
 104:app_Ble.c     ****             }
 105:app_Ble.c     ****             break;
 229              		.loc 1 105 0
 230 00e8 07E0     		b	.L20
 231              	.L16:
 106:app_Ble.c     ****         default:
 107:app_Ble.c     ****             break;       
 232              		.loc 1 107 0
 233 00ea C046     		nop
 234 00ec 06E0     		b	.L10
 235              	.L17:
  56:app_Ble.c     ****         
 236              		.loc 1 56 0
 237 00ee C046     		nop
 238 00f0 04E0     		b	.L10
 239              	.L18:
  72:app_Ble.c     ****                 
 240              		.loc 1 72 0
 241 00f2 C046     		nop
 242 00f4 02E0     		b	.L10
 243              	.L19:
  98:app_Ble.c     ****         case CYBLE_STATE_STOPPED:
 244              		.loc 1 98 0
 245 00f6 C046     		nop
 246 00f8 00E0     		b	.L10
 247              	.L20:
 105:app_Ble.c     ****         default:
 248              		.loc 1 105 0
 249 00fa C046     		nop
 250              	.L10:
 108:app_Ble.c     ****     }
 109:app_Ble.c     ****     cyBle_last_state = cyBle_state;
 251              		.loc 1 109 0
 252 00fc 034B     		ldr	r3, .L21
 253 00fe 1A78     		ldrb	r2, [r3]
 254 0100 044B     		ldr	r3, .L21+8
 255 0102 1A70     		strb	r2, [r3]
 110:app_Ble.c     **** }
 256              		.loc 1 110 0
 257 0104 C046     		nop
 258 0106 BD46     		mov	sp, r7
 259 0108 04B0     		add	sp, sp, #16
 260              		@ sp needed
 261 010a 80BD     		pop	{r7, pc}
 262              	.L22:
 263              		.align	2
 264              	.L21:
 265 010c 00000000 		.word	cyBle_state
ARM GAS  C:\Users\7709\AppData\Local\Temp\ccvvJmqr.s 			page 8


 266 0110 9C000000 		.word	.L4
 267 0114 00000000 		.word	cyBle_last_state
 268 0118 00000000 		.word	.LC3
 269 011c 20000000 		.word	.LC5
 270 0120 00000000 		.word	cyBle_connHandle
 271 0124 00000000 		.word	cyBle_busyStatus
 272 0128 40000000 		.word	.LC9
 273 012c 60000000 		.word	.LC11
 274 0130 80000000 		.word	.LC13
 275              		.cfi_endproc
 276              	.LFE35:
 277              		.size	HandleBleProcessing, .-HandleBleProcessing
 278              		.section	.rodata
 279              		.align	2
 280              	.LC15:
 281 00b0 0A0D2043 		.ascii	"\012\015 CYBLE_EVT_STACK_ON \012\015 \000"
 281      59424C45 
 281      5F455654 
 281      5F535441 
 281      434B5F4F 
 282 00ca 0000     		.align	2
 283              	.LC17:
 284 00cc 0A0D2043 		.ascii	"\012\015 CYBLE_EVT_GAP_DEVICE_DISCONNECTED \012\015"
 284      59424C45 
 284      5F455654 
 284      5F474150 
 284      5F444556 
 285 00f3 2000     		.ascii	" \000"
 286 00f5 000000   		.align	2
 287              	.LC19:
 288 00f8 0A0D2043 		.ascii	"\012\015 CYBLE_EVT_GATT_CONNECT_IND \012\015 \000"
 288      59424C45 
 288      5F455654 
 288      5F474154 
 288      545F434F 
 289 011a 0000     		.align	2
 290              	.LC21:
 291 011c 0A0D2043 		.ascii	"\012\015 CYBLE_EVT_GATTS_WRITE_CMD_REQ \012\015 \000"
 291      59424C45 
 291      5F455654 
 291      5F474154 
 291      54535F57 
 292 0141 000000   		.align	2
 293              	.LC23:
 294 0144 0A0D2043 		.ascii	"\012\015 CYBLE_EVT_GATTS_XCNHG_MTU_REQ \012\015 \000"
 294      59424C45 
 294      5F455654 
 294      5F474154 
 294      54535F58 
 295 0169 000000   		.align	2
 296              	.LC26:
 297 016c 0A0D2043 		.ascii	"\012\015 CYBLE_EVT_GATTS_WRITE_REQ \012\015 \000"
 297      59424C45 
 297      5F455654 
 297      5F474154 
 297      54535F57 
 298              		.section	.text.AppCallBack,"ax",%progbits
ARM GAS  C:\Users\7709\AppData\Local\Temp\ccvvJmqr.s 			page 9


 299              		.align	2
 300              		.global	AppCallBack
 301              		.code	16
 302              		.thumb_func
 303              		.type	AppCallBack, %function
 304              	AppCallBack:
 305              	.LFB36:
 111:app_Ble.c     **** 
 112:app_Ble.c     **** 
 113:app_Ble.c     **** /*******************************************************************************
 114:app_Ble.c     **** * Function Name: AppCallBack
 115:app_Ble.c     **** ********************************************************************************
 116:app_Ble.c     **** *
 117:app_Ble.c     **** * Summary:
 118:app_Ble.c     **** *   Call back function for BLE stack to handle BLESS events
 119:app_Ble.c     **** *
 120:app_Ble.c     **** * Parameters:
 121:app_Ble.c     **** *   event       - the event generated by stack
 122:app_Ble.c     **** *   eventParam  - the parameters related to the corresponding event
 123:app_Ble.c     **** *
 124:app_Ble.c     **** * Return:
 125:app_Ble.c     **** *   None.
 126:app_Ble.c     **** *
 127:app_Ble.c     **** *******************************************************************************/
 128:app_Ble.c     **** void AppCallBack(uint32 event, void *eventParam)
 129:app_Ble.c     **** {   
 306              		.loc 1 129 0
 307              		.cfi_startproc
 308              		@ args = 0, pretend = 0, frame = 8
 309              		@ frame_needed = 1, uses_anonymous_args = 0
 310 0000 80B5     		push	{r7, lr}
 311              		.cfi_def_cfa_offset 8
 312              		.cfi_offset 7, -8
 313              		.cfi_offset 14, -4
 314 0002 82B0     		sub	sp, sp, #8
 315              		.cfi_def_cfa_offset 16
 316 0004 00AF     		add	r7, sp, #0
 317              		.cfi_def_cfa_register 7
 318 0006 7860     		str	r0, [r7, #4]
 319 0008 3960     		str	r1, [r7]
 130:app_Ble.c     ****     CYBLE_GATT_ERR_CODE_T           errorCode;
 131:app_Ble.c     ****     CYBLE_GATTS_WRITE_REQ_PARAM_T   *writeReqParam;
 132:app_Ble.c     ****     
 133:app_Ble.c     ****     switch (event)
 320              		.loc 1 133 0
 321 000a 7B68     		ldr	r3, [r7, #4]
 322 000c 412B     		cmp	r3, #65
 323 000e 16D0     		beq	.L25
 324 0010 04D8     		bhi	.L26
 325 0012 012B     		cmp	r3, #1
 326 0014 09D0     		beq	.L27
 327 0016 282B     		cmp	r3, #40
 328 0018 0CD0     		beq	.L28
 134:app_Ble.c     ****     {
 135:app_Ble.c     ****         case CYBLE_EVT_STACK_ON:
 136:app_Ble.c     ****                 #ifdef PRINT_MESSAGE_LOG   
 137:app_Ble.c     ****                  UART_UartPutString("\n\r CYBLE_EVT_STACK_ON \n\r ");
ARM GAS  C:\Users\7709\AppData\Local\Temp\ccvvJmqr.s 			page 10


 138:app_Ble.c     ****                 #endif            
 139:app_Ble.c     ****             break;
 140:app_Ble.c     ****             
 141:app_Ble.c     ****         case CYBLE_EVT_GAP_DEVICE_DISCONNECTED:
 142:app_Ble.c     ****                 #ifdef PRINT_MESSAGE_LOG   
 143:app_Ble.c     ****                  UART_UartPutString("\n\r CYBLE_EVT_GAP_DEVICE_DISCONNECTED \n\r ");
 144:app_Ble.c     ****                 #endif
 145:app_Ble.c     ****             break;
 146:app_Ble.c     ****             
 147:app_Ble.c     ****         case CYBLE_EVT_GATT_CONNECT_IND:
 148:app_Ble.c     ****                 #ifdef PRINT_MESSAGE_LOG   
 149:app_Ble.c     ****                  UART_UartPutString("\n\r CYBLE_EVT_GATT_CONNECT_IND \n\r ");
 150:app_Ble.c     ****                 #endif                
 151:app_Ble.c     ****             break;
 152:app_Ble.c     ****         
 153:app_Ble.c     ****         case CYBLE_EVT_GATTS_WRITE_CMD_REQ:
 154:app_Ble.c     ****         /** 'Write Command' Request from client device.*/
 155:app_Ble.c     ****                 #ifdef PRINT_MESSAGE_LOG   
 156:app_Ble.c     ****                  UART_UartPutString("\n\r CYBLE_EVT_GATTS_WRITE_CMD_REQ \n\r ");
 157:app_Ble.c     ****                 #endif 
 158:app_Ble.c     ****                 HandleUartRxTraffic((CYBLE_GATTS_WRITE_REQ_PARAM_T *) eventParam);
 159:app_Ble.c     ****             break;
 160:app_Ble.c     ****         
 161:app_Ble.c     ****         case CYBLE_EVT_GATTS_XCNHG_MTU_REQ:
 162:app_Ble.c     ****             /** 'GATT MTU Exchange Request'*/
 163:app_Ble.c     ****                 
 164:app_Ble.c     ****             #ifdef PRINT_MESSAGE_LOG       
 165:app_Ble.c     ****                  UART_UartPutString("\n\r CYBLE_EVT_GATTS_XCNHG_MTU_REQ \n\r ");
 166:app_Ble.c     ****             #endif
 167:app_Ble.c     ****                 
 168:app_Ble.c     ****             if(CYBLE_GATT_MTU > ((CYBLE_GATT_XCHG_MTU_PARAM_T *)eventParam)->mtu)
 169:app_Ble.c     ****             {
 170:app_Ble.c     ****                 mtuSize = ((CYBLE_GATT_XCHG_MTU_PARAM_T *)eventParam)->mtu;
 171:app_Ble.c     ****             }
 172:app_Ble.c     ****             else
 173:app_Ble.c     ****             {
 174:app_Ble.c     ****                 mtuSize = CYBLE_GATT_MTU;
 175:app_Ble.c     ****             }
 176:app_Ble.c     ****             
 177:app_Ble.c     ****             break;
 178:app_Ble.c     ****             
 179:app_Ble.c     ****         case CYBLE_EVT_GATTS_WRITE_REQ:
 180:app_Ble.c     ****                  #ifdef PRINT_MESSAGE_LOG       
 181:app_Ble.c     ****                  UART_UartPutString("\n\r CYBLE_EVT_GATTS_WRITE_REQ \n\r ");
 182:app_Ble.c     ****                  #endif
 183:app_Ble.c     ****           
 184:app_Ble.c     ****             break;
 185:app_Ble.c     ****         
 186:app_Ble.c     ****         default:
 187:app_Ble.c     ****             break;
 329              		.loc 1 187 0
 330 001a 34E0     		b	.L32
 331              	.L26:
 133:app_Ble.c     ****     {
 332              		.loc 1 133 0
 333 001c 4C2B     		cmp	r3, #76
 334 001e 2DD0     		beq	.L29
ARM GAS  C:\Users\7709\AppData\Local\Temp\ccvvJmqr.s 			page 11


 335 0020 4E2B     		cmp	r3, #78
 336 0022 11D0     		beq	.L30
 337 0024 432B     		cmp	r3, #67
 338 0026 18D0     		beq	.L31
 339              		.loc 1 187 0
 340 0028 2DE0     		b	.L32
 341              	.L27:
 137:app_Ble.c     ****                 #endif            
 342              		.loc 1 137 0
 343 002a 194B     		ldr	r3, .L35
 344 002c 1800     		movs	r0, r3
 345 002e FFF7FEFF 		bl	UART_UartPutString
 139:app_Ble.c     ****             
 346              		.loc 1 139 0
 347 0032 28E0     		b	.L32
 348              	.L28:
 143:app_Ble.c     ****                 #endif
 349              		.loc 1 143 0
 350 0034 174B     		ldr	r3, .L35+4
 351 0036 1800     		movs	r0, r3
 352 0038 FFF7FEFF 		bl	UART_UartPutString
 145:app_Ble.c     ****             
 353              		.loc 1 145 0
 354 003c 23E0     		b	.L32
 355              	.L25:
 149:app_Ble.c     ****                 #endif                
 356              		.loc 1 149 0
 357 003e 164B     		ldr	r3, .L35+8
 358 0040 1800     		movs	r0, r3
 359 0042 FFF7FEFF 		bl	UART_UartPutString
 151:app_Ble.c     ****         
 360              		.loc 1 151 0
 361 0046 1EE0     		b	.L32
 362              	.L30:
 156:app_Ble.c     ****                 #endif 
 363              		.loc 1 156 0
 364 0048 144B     		ldr	r3, .L35+12
 365 004a 1800     		movs	r0, r3
 366 004c FFF7FEFF 		bl	UART_UartPutString
 158:app_Ble.c     ****             break;
 367              		.loc 1 158 0
 368 0050 3B68     		ldr	r3, [r7]
 369 0052 1800     		movs	r0, r3
 370 0054 FFF7FEFF 		bl	HandleUartRxTraffic
 159:app_Ble.c     ****         
 371              		.loc 1 159 0
 372 0058 15E0     		b	.L32
 373              	.L31:
 165:app_Ble.c     ****             #endif
 374              		.loc 1 165 0
 375 005a 114B     		ldr	r3, .L35+16
 376 005c 1800     		movs	r0, r3
 377 005e FFF7FEFF 		bl	UART_UartPutString
 168:app_Ble.c     ****             {
 378              		.loc 1 168 0
 379 0062 3B68     		ldr	r3, [r7]
 380 0064 5B88     		ldrh	r3, [r3, #2]
ARM GAS  C:\Users\7709\AppData\Local\Temp\ccvvJmqr.s 			page 12


 381 0066 162B     		cmp	r3, #22
 382 0068 04D8     		bhi	.L33
 170:app_Ble.c     ****             }
 383              		.loc 1 170 0
 384 006a 3B68     		ldr	r3, [r7]
 385 006c 5A88     		ldrh	r2, [r3, #2]
 386 006e 0D4B     		ldr	r3, .L35+20
 387 0070 1A80     		strh	r2, [r3]
 177:app_Ble.c     ****             
 388              		.loc 1 177 0
 389 0072 08E0     		b	.L32
 390              	.L33:
 174:app_Ble.c     ****             }
 391              		.loc 1 174 0
 392 0074 0B4B     		ldr	r3, .L35+20
 393 0076 1722     		movs	r2, #23
 394 0078 1A80     		strh	r2, [r3]
 177:app_Ble.c     ****             
 395              		.loc 1 177 0
 396 007a 04E0     		b	.L32
 397              	.L29:
 181:app_Ble.c     ****                  #endif
 398              		.loc 1 181 0
 399 007c 0A4B     		ldr	r3, .L35+24
 400 007e 1800     		movs	r0, r3
 401 0080 FFF7FEFF 		bl	UART_UartPutString
 184:app_Ble.c     ****         
 402              		.loc 1 184 0
 403 0084 C046     		nop
 404              	.L32:
 188:app_Ble.c     ****     }
 189:app_Ble.c     **** }
 405              		.loc 1 189 0
 406 0086 C046     		nop
 407 0088 BD46     		mov	sp, r7
 408 008a 02B0     		add	sp, sp, #8
 409              		@ sp needed
 410 008c 80BD     		pop	{r7, pc}
 411              	.L36:
 412 008e C046     		.align	2
 413              	.L35:
 414 0090 B0000000 		.word	.LC15
 415 0094 CC000000 		.word	.LC17
 416 0098 F8000000 		.word	.LC19
 417 009c 1C010000 		.word	.LC21
 418 00a0 44010000 		.word	.LC23
 419 00a4 00000000 		.word	mtuSize
 420 00a8 6C010000 		.word	.LC26
 421              		.cfi_endproc
 422              	.LFE36:
 423              		.size	AppCallBack, .-AppCallBack
 424              		.text
 425              	.Letext0:
 426              		.file 2 "Generated_Source\\PSoC4/cytypes.h"
 427              		.file 3 "Generated_Source\\PSoC4/BLE_Stack.h"
 428              		.file 4 "Generated_Source\\PSoC4/BLE_StackGatt.h"
 429              		.file 5 "Generated_Source\\PSoC4/BLE_StackGattServer.h"
ARM GAS  C:\Users\7709\AppData\Local\Temp\ccvvJmqr.s 			page 13


 430              		.file 6 "Generated_Source\\PSoC4/BLE_eventHandler.h"
 431              		.file 7 "main.h"
 432              		.file 8 "htu21d.h"
 433              		.file 9 "bme280.h"