ARM GAS  C:\Users\7709\AppData\Local\Temp\ccl3tk1y.s 			page 1


   1              		.syntax unified
   2              		.cpu cortex-m0
   3              		.fpu softvfp
   4              		.eabi_attribute 20, 1
   5              		.eabi_attribute 21, 1
   6              		.eabi_attribute 23, 3
   7              		.eabi_attribute 24, 1
   8              		.eabi_attribute 25, 1
   9              		.eabi_attribute 26, 1
  10              		.eabi_attribute 30, 6
  11              		.eabi_attribute 34, 0
  12              		.eabi_attribute 18, 4
  13              		.thumb
  14              		.syntax unified
  15              		.file	"bme280.c"
  16              		.text
  17              	.Ltext0:
  18              		.cfi_sections	.debug_frame
  19              		.comm	UT280,4,4
  20              		.comm	UH280,4,4
  21              		.comm	UP280,4,4
  22              		.comm	temp280,4,4
  23              		.comm	hum280,4,4
  24              		.comm	press280,4,4
  25              		.comm	SensorCalibrationData,22,4
  26              		.comm	X1,4,4
  27              		.comm	X2,4,4
  28              		.comm	X3,4,4
  29              		.comm	B3,4,4
  30              		.comm	B5,4,4
  31              		.comm	B6,4,4
  32              		.comm	UT,4,4
  33              		.comm	UP,4,4
  34              		.comm	B4,4,4
  35              		.comm	B7,4,4
  36              		.comm	AC1,2,2
  37              		.comm	AC2,2,2
  38              		.comm	AC3,2,2
  39              		.comm	B1,2,2
  40              		.comm	B2,2,2
  41              		.comm	MC,2,2
  42              		.comm	MD,2,2
  43              		.comm	AC4,2,2
  44              		.comm	AC5,2,2
  45              		.comm	AC6,2,2
  46              		.comm	Temperature,4,4
  47              		.comm	Pressure,4,4
  48              		.comm	Altitude,4,4
  49              		.global	PressureAtSeaLevel
  50              		.data
  51              		.align	3
  52              		.type	PressureAtSeaLevel, %object
  53              		.size	PressureAtSeaLevel, 8
  54              	PressureAtSeaLevel:
  55 0000 00000000 		.word	0
  56 0004 D0BCF840 		.word	1090043088
  57              		.global	CalibrationDataAvailable
ARM GAS  C:\Users\7709\AppData\Local\Temp\ccl3tk1y.s 			page 2


  58              		.bss
  59              		.type	CalibrationDataAvailable, %object
  60              		.size	CalibrationDataAvailable, 1
  61              	CalibrationDataAvailable:
  62 0000 00       		.space	1
  63              		.section	.text.gettemp280,"ax",%progbits
  64              		.align	2
  65              		.global	gettemp280
  66              		.code	16
  67              		.thumb_func
  68              		.type	gettemp280, %function
  69              	gettemp280:
  70              	.LFB35:
  71              		.file 1 "bme280.c"
   1:bme280.c      **** /* ========================================
   2:bme280.c      ****  *
   3:bme280.c      ****  *  Device driver to read temperature, humidity and pressure from BME280 Sensor using I2C interface
   4:bme280.c      ****  *
   5:bme280.c      ****  * ========================================
   6:bme280.c      **** */
   7:bme280.c      **** 
   8:bme280.c      **** #include "bme280.h"
   9:bme280.c      **** #include "I2C_1.h"
  10:bme280.c      **** #include "project.h"
  11:bme280.c      **** #include "teste.h"
  12:bme280.c      **** #include "math.h"  
  13:bme280.c      **** 
  14:bme280.c      **** /*************************Variables Declaration****************************************************
  15:bme280.c      **** uint8 SensorCalibrationData[0x16]; //Calibration data is stored in this array
  16:bme280.c      **** long X1, X2, X3, B3, B5, B6, UT, UP; //Variables to store calibration coefficients
  17:bme280.c      **** unsigned long B4, B7; //Variables to store calibration coefficients
  18:bme280.c      **** short AC1, AC2, AC3, B1, B2, MC, MD; //Variables to store calibration coefficients
  19:bme280.c      **** unsigned short AC4, AC5, AC6; //Variables to store calibration coefficients
  20:bme280.c      **** long UT, UP; //Variables to store uncompensated temperature and pressure data
  21:bme280.c      **** long Temperature, Pressure, Altitude; //Variables to store the true temperature, pressure and altit
  22:bme280.c      **** double PressureAtSeaLevel = 101325.0; //Pressure at sea level in Pascal
  23:bme280.c      **** uint8 CalibrationDataAvailable = FALSE; //This flag is to whether the calibration data is available
  24:bme280.c      **** 
  25:bme280.c      **** 
  26:bme280.c      **** int gettemp280(void)
  27:bme280.c      **** {
  72              		.loc 1 27 0
  73              		.cfi_startproc
  74              		@ args = 0, pretend = 0, frame = 0
  75              		@ frame_needed = 1, uses_anonymous_args = 0
  76 0000 80B5     		push	{r7, lr}
  77              		.cfi_def_cfa_offset 8
  78              		.cfi_offset 7, -8
  79              		.cfi_offset 14, -4
  80 0002 00AF     		add	r7, sp, #0
  81              		.cfi_def_cfa_register 7
  28:bme280.c      ****     //I2C_1_Start(); 
  29:bme280.c      ****     I2C_1_scl_SetDriveMode(I2C_1_scl_DM_OD_LO);
  82              		.loc 1 29 0
  83 0004 0420     		movs	r0, #4
  84 0006 FFF7FEFF 		bl	I2C_1_scl_SetDriveMode
  30:bme280.c      ****     I2C_1_sda_SetDriveMode(I2C_1_sda_DM_OD_LO);
ARM GAS  C:\Users\7709\AppData\Local\Temp\ccl3tk1y.s 			page 3


  85              		.loc 1 30 0
  86 000a 0420     		movs	r0, #4
  87 000c FFF7FEFF 		bl	I2C_1_sda_SetDriveMode
  31:bme280.c      ****     static uint8 I2CReadBufferT[0x02]; //The uncompensated temperature read from the sensor is stor
  32:bme280.c      ****     static uint8 I2CWriteBufferT[0x01] = {0xF4}; //Command for temperature conversion - Register ad
  33:bme280.c      ****   //  static uint8 SetReadAddressBufferT[0x01] = {0xF6}; //Register address from which the data is 
  34:bme280.c      ****     
  35:bme280.c      ****     /* Do a write operation with the memory address bytes to get temperature data */
  36:bme280.c      **** 	I2C_1_I2CMasterWriteBuf(I2CSlaveAddress, (uint8 *) I2CWriteBufferT, sizeof(I2CWriteBufferT), I2C_I
  88              		.loc 1 36 0
  89 0010 1549     		ldr	r1, .L5
  90 0012 0023     		movs	r3, #0
  91 0014 0122     		movs	r2, #1
  92 0016 7620     		movs	r0, #118
  93 0018 FFF7FEFF 		bl	I2C_1_I2CMasterWriteBuf
  37:bme280.c      ****     while(!(I2C_1_I2CMasterStatus() & I2C_I2C_MSTAT_WR_CMPLT)); //Wait till the master completes wr
  94              		.loc 1 37 0
  95 001c C046     		nop
  96              	.L2:
  97              		.loc 1 37 0 is_stmt 0 discriminator 1
  98 001e FFF7FEFF 		bl	I2C_1_I2CMasterStatus
  99 0022 0200     		movs	r2, r0
 100 0024 0223     		movs	r3, #2
 101 0026 1340     		ands	r3, r2
 102 0028 F9D0     		beq	.L2
  38:bme280.c      ****     I2C_1_I2CMasterClearStatus(); //Clear I2C master status
 103              		.loc 1 38 0 is_stmt 1
 104 002a FFF7FEFF 		bl	I2C_1_I2CMasterClearStatus
  39:bme280.c      ****     
  40:bme280.c      ****     //CyDelay(5); //Wait for 5ms temperature conversion
  41:bme280.c      ****     
  42:bme280.c      **** //    /* In order to do a read from a specific address, do a write operation with the memory addres
  43:bme280.c      **** //	I2C_1_I2CMasterWriteBuf(I2CSlaveAddress, (uint8 *) SetReadAddressBufferT, sizeof(SetReadAddressB
  44:bme280.c      **** //    while(!(I2C_1_I2CMasterStatus() & I2C_I2C_MSTAT_WR_CMPLT)); //Wait till the master completes 
  45:bme280.c      **** //    I2C_1_I2CMasterClearStatus(); //Clear I2C master status
  46:bme280.c      ****     
  47:bme280.c      ****     /* Read temperature from the sensor and store it in a buffer */
  48:bme280.c      **** 	I2C_1_I2CMasterReadBuf(I2CSlaveAddress, (uint8 *) I2CReadBufferT, sizeof(I2CReadBufferT), I2C_I2C_
 105              		.loc 1 48 0
 106 002e 0F49     		ldr	r1, .L5+4
 107 0030 0023     		movs	r3, #0
 108 0032 0222     		movs	r2, #2
 109 0034 7620     		movs	r0, #118
 110 0036 FFF7FEFF 		bl	I2C_1_I2CMasterReadBuf
  49:bme280.c      ****     while(!(I2C_1_I2CMasterStatus() & I2C_I2C_MSTAT_RD_CMPLT)); //Wait till the master completes re
 111              		.loc 1 49 0
 112 003a C046     		nop
 113              	.L3:
 114              		.loc 1 49 0 is_stmt 0 discriminator 1
 115 003c FFF7FEFF 		bl	I2C_1_I2CMasterStatus
 116 0040 0200     		movs	r2, r0
 117 0042 0123     		movs	r3, #1
 118 0044 1340     		ands	r3, r2
 119 0046 F9D0     		beq	.L3
  50:bme280.c      ****     I2C_1_I2CMasterClearStatus(); //Clear I2C master status
 120              		.loc 1 50 0 is_stmt 1
 121 0048 FFF7FEFF 		bl	I2C_1_I2CMasterClearStatus
ARM GAS  C:\Users\7709\AppData\Local\Temp\ccl3tk1y.s 			page 4


  51:bme280.c      ****     
  52:bme280.c      **** 	UT280 = (I2CReadBufferT[0x00] << 0x08) | I2CReadBufferT[0x01]; //Return uncompensated temperature 
 122              		.loc 1 52 0
 123 004c 074B     		ldr	r3, .L5+4
 124 004e 1B78     		ldrb	r3, [r3]
 125 0050 1B02     		lsls	r3, r3, #8
 126 0052 064A     		ldr	r2, .L5+4
 127 0054 5278     		ldrb	r2, [r2, #1]
 128 0056 1A43     		orrs	r2, r3
 129 0058 054B     		ldr	r3, .L5+8
 130 005a 1A60     		str	r2, [r3]
  53:bme280.c      **** 
  54:bme280.c      ****     return UT280;
 131              		.loc 1 54 0
 132 005c 044B     		ldr	r3, .L5+8
 133 005e 1B68     		ldr	r3, [r3]
  55:bme280.c      **** }
 134              		.loc 1 55 0
 135 0060 1800     		movs	r0, r3
 136 0062 BD46     		mov	sp, r7
 137              		@ sp needed
 138 0064 80BD     		pop	{r7, pc}
 139              	.L6:
 140 0066 C046     		.align	2
 141              	.L5:
 142 0068 08000000 		.word	I2CWriteBufferT.8043
 143 006c 04000000 		.word	I2CReadBufferT.8042
 144 0070 00000000 		.word	UT280
 145              		.cfi_endproc
 146              	.LFE35:
 147              		.size	gettemp280, .-gettemp280
 148              		.section	.text.getpress280,"ax",%progbits
 149              		.align	2
 150              		.global	getpress280
 151              		.code	16
 152              		.thumb_func
 153              		.type	getpress280, %function
 154              	getpress280:
 155              	.LFB36:
  56:bme280.c      **** /**************************************************************************************************
  57:bme280.c      **** 
  58:bme280.c      **** /**************************************************************************************************
  59:bme280.c      **** * Function Name: ReadUncompensatedPressure
  60:bme280.c      **** ***************************************************************************************************
  61:bme280.c      **** * Summary: This function writes the pressure conversion command to the sensor and
  62:bme280.c      **** * waits for conversion to complete, and then reads the converted data (uncompensated pressure) and 
  63:bme280.c      **** *
  64:bme280.c      **** * Parameters:
  65:bme280.c      **** *  void
  66:bme280.c      **** *
  67:bme280.c      **** * Return:
  68:bme280.c      **** *  void
  69:bme280.c      **** *
  70:bme280.c      **** ***************************************************************************************************
  71:bme280.c      **** int getpress280(void)
  72:bme280.c      **** {   I2C_1_scl_SetDriveMode(I2C_1_sda_DM_OD_LO);
 156              		.loc 1 72 0
ARM GAS  C:\Users\7709\AppData\Local\Temp\ccl3tk1y.s 			page 5


 157              		.cfi_startproc
 158              		@ args = 0, pretend = 0, frame = 0
 159              		@ frame_needed = 1, uses_anonymous_args = 0
 160 0000 80B5     		push	{r7, lr}
 161              		.cfi_def_cfa_offset 8
 162              		.cfi_offset 7, -8
 163              		.cfi_offset 14, -4
 164 0002 00AF     		add	r7, sp, #0
 165              		.cfi_def_cfa_register 7
 166              		.loc 1 72 0
 167 0004 0420     		movs	r0, #4
 168 0006 FFF7FEFF 		bl	I2C_1_scl_SetDriveMode
  73:bme280.c      ****     I2C_1_sda_SetDriveMode(I2C_1_sda_DM_OD_LO);
 169              		.loc 1 73 0
 170 000a 0420     		movs	r0, #4
 171 000c FFF7FEFF 		bl	I2C_1_sda_SetDriveMode
  74:bme280.c      ****     I2C_1_Start(); 
 172              		.loc 1 74 0
 173 0010 FFF7FEFF 		bl	I2C_1_Start
  75:bme280.c      ****     static uint8 I2CReadBufferP[0x03]; //The uncompensated pressure read from the sensor is stored 
  76:bme280.c      ****     static uint8 I2CWriteBufferP[0x01] = {0xF7}; //0x34 + (OSS << 0x06)}; //Command for pressure co
  77:bme280.c      ****     static uint8 SetReadAddressBufferP[0x01] = {0xF6}; //Register address from which the data is re
  78:bme280.c      ****     
  79:bme280.c      ****     /* Do a write operation with the memory address bytes to get pressure data */
  80:bme280.c      **** 	I2C_1_I2CMasterWriteBuf(I2CSlaveAddress, (uint8 *) I2CWriteBufferP, sizeof(I2CWriteBufferP), I2C_I
 174              		.loc 1 80 0
 175 0014 2049     		ldr	r1, .L12
 176 0016 0023     		movs	r3, #0
 177 0018 0122     		movs	r2, #1
 178 001a 7620     		movs	r0, #118
 179 001c FFF7FEFF 		bl	I2C_1_I2CMasterWriteBuf
  81:bme280.c      ****     while(!(I2C_1_I2CMasterStatus() & I2C_I2C_MSTAT_WR_CMPLT)); //Wait till the master completes wr
 180              		.loc 1 81 0
 181 0020 C046     		nop
 182              	.L8:
 183              		.loc 1 81 0 is_stmt 0 discriminator 1
 184 0022 FFF7FEFF 		bl	I2C_1_I2CMasterStatus
 185 0026 0200     		movs	r2, r0
 186 0028 0223     		movs	r3, #2
 187 002a 1340     		ands	r3, r2
 188 002c F9D0     		beq	.L8
  82:bme280.c      ****     I2C_1_I2CMasterClearStatus(); //Clear I2C master status
 189              		.loc 1 82 0 is_stmt 1
 190 002e FFF7FEFF 		bl	I2C_1_I2CMasterClearStatus
  83:bme280.c      ****     
  84:bme280.c      ****     CyDelay(26); //Wait for 26ms pressure conversion
 191              		.loc 1 84 0
 192 0032 1A20     		movs	r0, #26
 193 0034 FFF7FEFF 		bl	CyDelay
  85:bme280.c      ****     
  86:bme280.c      ****     /* In order to do a read from a specific address, do a write operation with the memory address 
  87:bme280.c      **** 	I2C_1_I2CMasterWriteBuf(I2CSlaveAddress, (uint8 *) SetReadAddressBufferP, sizeof(SetReadAddressBuf
 194              		.loc 1 87 0
 195 0038 1849     		ldr	r1, .L12+4
 196 003a 0023     		movs	r3, #0
 197 003c 0122     		movs	r2, #1
 198 003e 7620     		movs	r0, #118
ARM GAS  C:\Users\7709\AppData\Local\Temp\ccl3tk1y.s 			page 6


 199 0040 FFF7FEFF 		bl	I2C_1_I2CMasterWriteBuf
  88:bme280.c      ****     while(!(I2C_1_I2CMasterStatus() & I2C_I2C_MSTAT_WR_CMPLT)); //Wait till the master completes wr
 200              		.loc 1 88 0
 201 0044 C046     		nop
 202              	.L9:
 203              		.loc 1 88 0 is_stmt 0 discriminator 1
 204 0046 FFF7FEFF 		bl	I2C_1_I2CMasterStatus
 205 004a 0200     		movs	r2, r0
 206 004c 0223     		movs	r3, #2
 207 004e 1340     		ands	r3, r2
 208 0050 F9D0     		beq	.L9
  89:bme280.c      ****     I2C_1_I2CMasterClearStatus(); //Clear I2C master status
 209              		.loc 1 89 0 is_stmt 1
 210 0052 FFF7FEFF 		bl	I2C_1_I2CMasterClearStatus
  90:bme280.c      ****     
  91:bme280.c      ****     /* Read pressure from the sensor and store it in a buffer */
  92:bme280.c      **** 	I2C_1_I2CMasterReadBuf(I2CSlaveAddress, (uint8 *) I2CReadBufferP, sizeof(I2CReadBufferP), I2C_I2C_
 211              		.loc 1 92 0
 212 0056 1249     		ldr	r1, .L12+8
 213 0058 0023     		movs	r3, #0
 214 005a 0322     		movs	r2, #3
 215 005c 7620     		movs	r0, #118
 216 005e FFF7FEFF 		bl	I2C_1_I2CMasterReadBuf
  93:bme280.c      ****     while(!(I2C_1_I2CMasterStatus() & I2C_I2C_MSTAT_RD_CMPLT)); //Wait till the master completes re
 217              		.loc 1 93 0
 218 0062 C046     		nop
 219              	.L10:
 220              		.loc 1 93 0 is_stmt 0 discriminator 1
 221 0064 FFF7FEFF 		bl	I2C_1_I2CMasterStatus
 222 0068 0200     		movs	r2, r0
 223 006a 0123     		movs	r3, #1
 224 006c 1340     		ands	r3, r2
 225 006e F9D0     		beq	.L10
  94:bme280.c      ****     I2C_1_I2CMasterClearStatus(); //Clear I2C master status
 226              		.loc 1 94 0 is_stmt 1
 227 0070 FFF7FEFF 		bl	I2C_1_I2CMasterClearStatus
  95:bme280.c      ****     
  96:bme280.c      **** 	UP280 = ((I2CReadBufferP[0x00] << 0x10) | (I2CReadBufferP[0x01] << 0x08) | I2CReadBufferP[0x02]) >
 228              		.loc 1 96 0
 229 0074 0A4B     		ldr	r3, .L12+8
 230 0076 1B78     		ldrb	r3, [r3]
 231 0078 1A04     		lsls	r2, r3, #16
 232 007a 094B     		ldr	r3, .L12+8
 233 007c 5B78     		ldrb	r3, [r3, #1]
 234 007e 1B02     		lsls	r3, r3, #8
 235 0080 1343     		orrs	r3, r2
 236 0082 074A     		ldr	r2, .L12+8
 237 0084 9278     		ldrb	r2, [r2, #2]
 238 0086 1343     		orrs	r3, r2
 239 0088 5A11     		asrs	r2, r3, #5
 240 008a 064B     		ldr	r3, .L12+12
 241 008c 1A60     		str	r2, [r3]
  97:bme280.c      ****     
  98:bme280.c      ****     return UP280;
 242              		.loc 1 98 0
 243 008e 054B     		ldr	r3, .L12+12
 244 0090 1B68     		ldr	r3, [r3]
ARM GAS  C:\Users\7709\AppData\Local\Temp\ccl3tk1y.s 			page 7


  99:bme280.c      **** }
 245              		.loc 1 99 0
 246 0092 1800     		movs	r0, r3
 247 0094 BD46     		mov	sp, r7
 248              		@ sp needed
 249 0096 80BD     		pop	{r7, pc}
 250              	.L13:
 251              		.align	2
 252              	.L12:
 253 0098 0C000000 		.word	I2CWriteBufferP.8054
 254 009c 10000000 		.word	SetReadAddressBufferP.8055
 255 00a0 08000000 		.word	I2CReadBufferP.8053
 256 00a4 00000000 		.word	UP280
 257              		.cfi_endproc
 258              	.LFE36:
 259              		.size	getpress280, .-getpress280
 260              		.section	.text.readPressure,"ax",%progbits
 261              		.align	2
 262              		.global	readPressure
 263              		.code	16
 264              		.thumb_func
 265              		.type	readPressure, %function
 266              	readPressure:
 267              	.LFB37:
 100:bme280.c      **** 
 101:bme280.c      **** int readPressure(){
 268              		.loc 1 101 0
 269              		.cfi_startproc
 270              		@ args = 0, pretend = 0, frame = 0
 271              		@ frame_needed = 1, uses_anonymous_args = 0
 272 0000 80B5     		push	{r7, lr}
 273              		.cfi_def_cfa_offset 8
 274              		.cfi_offset 7, -8
 275              		.cfi_offset 14, -4
 276 0002 00AF     		add	r7, sp, #0
 277              		.cfi_def_cfa_register 7
 102:bme280.c      ****     
 103:bme280.c      ****     return Pressure;
 278              		.loc 1 103 0
 279 0004 024B     		ldr	r3, .L16
 280 0006 1B68     		ldr	r3, [r3]
 104:bme280.c      **** }
 281              		.loc 1 104 0
 282 0008 1800     		movs	r0, r3
 283 000a BD46     		mov	sp, r7
 284              		@ sp needed
 285 000c 80BD     		pop	{r7, pc}
 286              	.L17:
 287 000e C046     		.align	2
 288              	.L16:
 289 0010 00000000 		.word	Pressure
 290              		.cfi_endproc
 291              	.LFE37:
 292              		.size	readPressure, .-readPressure
 293              		.section	.text.readTemp,"ax",%progbits
 294              		.align	2
 295              		.global	readTemp
ARM GAS  C:\Users\7709\AppData\Local\Temp\ccl3tk1y.s 			page 8


 296              		.code	16
 297              		.thumb_func
 298              		.type	readTemp, %function
 299              	readTemp:
 300              	.LFB38:
 105:bme280.c      **** int readTemp(){
 301              		.loc 1 105 0
 302              		.cfi_startproc
 303              		@ args = 0, pretend = 0, frame = 0
 304              		@ frame_needed = 1, uses_anonymous_args = 0
 305 0000 80B5     		push	{r7, lr}
 306              		.cfi_def_cfa_offset 8
 307              		.cfi_offset 7, -8
 308              		.cfi_offset 14, -4
 309 0002 00AF     		add	r7, sp, #0
 310              		.cfi_def_cfa_register 7
 106:bme280.c      ****     
 107:bme280.c      ****     return Temperature;
 311              		.loc 1 107 0
 312 0004 024B     		ldr	r3, .L20
 313 0006 1B68     		ldr	r3, [r3]
 108:bme280.c      **** }
 314              		.loc 1 108 0
 315 0008 1800     		movs	r0, r3
 316 000a BD46     		mov	sp, r7
 317              		@ sp needed
 318 000c 80BD     		pop	{r7, pc}
 319              	.L21:
 320 000e C046     		.align	2
 321              	.L20:
 322 0010 00000000 		.word	Temperature
 323              		.cfi_endproc
 324              	.LFE38:
 325              		.size	readTemp, .-readTemp
 326              		.section	.text.ReadSensorCalibrationData,"ax",%progbits
 327              		.align	2
 328              		.global	ReadSensorCalibrationData
 329              		.code	16
 330              		.thumb_func
 331              		.type	ReadSensorCalibrationData, %function
 332              	ReadSensorCalibrationData:
 333              	.LFB39:
 109:bme280.c      **** void ReadSensorCalibrationData(void)
 110:bme280.c      **** {
 334              		.loc 1 110 0
 335              		.cfi_startproc
 336              		@ args = 0, pretend = 0, frame = 0
 337              		@ frame_needed = 1, uses_anonymous_args = 0
 338 0000 80B5     		push	{r7, lr}
 339              		.cfi_def_cfa_offset 8
 340              		.cfi_offset 7, -8
 341              		.cfi_offset 14, -4
 342 0002 00AF     		add	r7, sp, #0
 343              		.cfi_def_cfa_register 7
 111:bme280.c      ****     
 112:bme280.c      ****     static uint8 I2CWriteBuffer[0x01] = {0xAA}; //Location from which the calibration data is to be
 113:bme280.c      ****     //I2C_1_Start(); 
ARM GAS  C:\Users\7709\AppData\Local\Temp\ccl3tk1y.s 			page 9


 114:bme280.c      ****     /* Do a write operation with the memory address bytes to get calibration data */
 115:bme280.c      **** 	I2C_1_I2CMasterWriteBuf(I2CSlaveAddress, (uint8 *) I2CWriteBuffer, sizeof(I2CWriteBuffer), I2C_I2C
 344              		.loc 1 115 0
 345 0004 4A49     		ldr	r1, .L25
 346 0006 0023     		movs	r3, #0
 347 0008 0122     		movs	r2, #1
 348 000a 7620     		movs	r0, #118
 349 000c FFF7FEFF 		bl	I2C_1_I2CMasterWriteBuf
 116:bme280.c      ****     while(!(I2C_1_I2CMasterStatus() & I2C_I2C_MSTAT_WR_CMPLT)); //Wait till the master completes wr
 350              		.loc 1 116 0
 351 0010 C046     		nop
 352              	.L23:
 353              		.loc 1 116 0 is_stmt 0 discriminator 1
 354 0012 FFF7FEFF 		bl	I2C_1_I2CMasterStatus
 355 0016 0200     		movs	r2, r0
 356 0018 0223     		movs	r3, #2
 357 001a 1340     		ands	r3, r2
 358 001c F9D0     		beq	.L23
 117:bme280.c      ****     I2C_1_I2CMasterClearStatus(); //Clear I2C master status
 359              		.loc 1 117 0 is_stmt 1
 360 001e FFF7FEFF 		bl	I2C_1_I2CMasterClearStatus
 118:bme280.c      ****     
 119:bme280.c      ****     /* Read calibration from the sensor EEPROM and store it in a buffer */
 120:bme280.c      **** 	I2C_1_I2CMasterReadBuf(I2CSlaveAddress, (uint8 *) SensorCalibrationData, sizeof(SensorCalibrationD
 361              		.loc 1 120 0
 362 0022 4449     		ldr	r1, .L25+4
 363 0024 0023     		movs	r3, #0
 364 0026 1622     		movs	r2, #22
 365 0028 7620     		movs	r0, #118
 366 002a FFF7FEFF 		bl	I2C_1_I2CMasterReadBuf
 121:bme280.c      ****     while(!(I2C_1_I2CMasterStatus() & I2C_I2C_MSTAT_RD_CMPLT)); //Wait till the master completes re
 367              		.loc 1 121 0
 368 002e C046     		nop
 369              	.L24:
 370              		.loc 1 121 0 is_stmt 0 discriminator 1
 371 0030 FFF7FEFF 		bl	I2C_1_I2CMasterStatus
 372 0034 0200     		movs	r2, r0
 373 0036 0123     		movs	r3, #1
 374 0038 1340     		ands	r3, r2
 375 003a F9D0     		beq	.L24
 122:bme280.c      ****     I2C_1_I2CMasterClearStatus(); //Clear I2C master status
 376              		.loc 1 122 0 is_stmt 1
 377 003c FFF7FEFF 		bl	I2C_1_I2CMasterClearStatus
 123:bme280.c      ****     
 124:bme280.c      ****     CalibrationDataAvailable = TRUE; //Set sensor calibration data available flag
 378              		.loc 1 124 0
 379 0040 3D4B     		ldr	r3, .L25+8
 380 0042 0122     		movs	r2, #1
 381 0044 1A70     		strb	r2, [r3]
 125:bme280.c      ****     
 126:bme280.c      ****     /* Assign calibration data to coefficient variables as described in sensor datasheet */
 127:bme280.c      ****     AC1 = (SensorCalibrationData[0x00] << 0x08) | SensorCalibrationData[0x01];
 382              		.loc 1 127 0
 383 0046 3B4B     		ldr	r3, .L25+4
 384 0048 1B78     		ldrb	r3, [r3]
 385 004a 1B02     		lsls	r3, r3, #8
 386 004c 1AB2     		sxth	r2, r3
ARM GAS  C:\Users\7709\AppData\Local\Temp\ccl3tk1y.s 			page 10


 387 004e 394B     		ldr	r3, .L25+4
 388 0050 5B78     		ldrb	r3, [r3, #1]
 389 0052 1BB2     		sxth	r3, r3
 390 0054 1343     		orrs	r3, r2
 391 0056 1AB2     		sxth	r2, r3
 392 0058 384B     		ldr	r3, .L25+12
 393 005a 1A80     		strh	r2, [r3]
 128:bme280.c      ****     AC2 = (SensorCalibrationData[0x02] << 0x08) | SensorCalibrationData[0x03];
 394              		.loc 1 128 0
 395 005c 354B     		ldr	r3, .L25+4
 396 005e 9B78     		ldrb	r3, [r3, #2]
 397 0060 1B02     		lsls	r3, r3, #8
 398 0062 1AB2     		sxth	r2, r3
 399 0064 334B     		ldr	r3, .L25+4
 400 0066 DB78     		ldrb	r3, [r3, #3]
 401 0068 1BB2     		sxth	r3, r3
 402 006a 1343     		orrs	r3, r2
 403 006c 1AB2     		sxth	r2, r3
 404 006e 344B     		ldr	r3, .L25+16
 405 0070 1A80     		strh	r2, [r3]
 129:bme280.c      ****     AC3 = (SensorCalibrationData[0x04] << 0x08) | SensorCalibrationData[0x05];
 406              		.loc 1 129 0
 407 0072 304B     		ldr	r3, .L25+4
 408 0074 1B79     		ldrb	r3, [r3, #4]
 409 0076 1B02     		lsls	r3, r3, #8
 410 0078 1AB2     		sxth	r2, r3
 411 007a 2E4B     		ldr	r3, .L25+4
 412 007c 5B79     		ldrb	r3, [r3, #5]
 413 007e 1BB2     		sxth	r3, r3
 414 0080 1343     		orrs	r3, r2
 415 0082 1AB2     		sxth	r2, r3
 416 0084 2F4B     		ldr	r3, .L25+20
 417 0086 1A80     		strh	r2, [r3]
 130:bme280.c      ****     AC4 = (SensorCalibrationData[0x06] << 0x08) | SensorCalibrationData[0x07];
 418              		.loc 1 130 0
 419 0088 2A4B     		ldr	r3, .L25+4
 420 008a 9B79     		ldrb	r3, [r3, #6]
 421 008c 1B02     		lsls	r3, r3, #8
 422 008e 1AB2     		sxth	r2, r3
 423 0090 284B     		ldr	r3, .L25+4
 424 0092 DB79     		ldrb	r3, [r3, #7]
 425 0094 1BB2     		sxth	r3, r3
 426 0096 1343     		orrs	r3, r2
 427 0098 1BB2     		sxth	r3, r3
 428 009a 9AB2     		uxth	r2, r3
 429 009c 2A4B     		ldr	r3, .L25+24
 430 009e 1A80     		strh	r2, [r3]
 131:bme280.c      ****     AC5 = (SensorCalibrationData[0x08] << 0x08) | SensorCalibrationData[0x09];
 431              		.loc 1 131 0
 432 00a0 244B     		ldr	r3, .L25+4
 433 00a2 1B7A     		ldrb	r3, [r3, #8]
 434 00a4 1B02     		lsls	r3, r3, #8
 435 00a6 1AB2     		sxth	r2, r3
 436 00a8 224B     		ldr	r3, .L25+4
 437 00aa 5B7A     		ldrb	r3, [r3, #9]
 438 00ac 1BB2     		sxth	r3, r3
 439 00ae 1343     		orrs	r3, r2
ARM GAS  C:\Users\7709\AppData\Local\Temp\ccl3tk1y.s 			page 11


 440 00b0 1BB2     		sxth	r3, r3
 441 00b2 9AB2     		uxth	r2, r3
 442 00b4 254B     		ldr	r3, .L25+28
 443 00b6 1A80     		strh	r2, [r3]
 132:bme280.c      ****     AC6 = (SensorCalibrationData[0x0A] << 0x08) | SensorCalibrationData[0x0B];
 444              		.loc 1 132 0
 445 00b8 1E4B     		ldr	r3, .L25+4
 446 00ba 9B7A     		ldrb	r3, [r3, #10]
 447 00bc 1B02     		lsls	r3, r3, #8
 448 00be 1AB2     		sxth	r2, r3
 449 00c0 1C4B     		ldr	r3, .L25+4
 450 00c2 DB7A     		ldrb	r3, [r3, #11]
 451 00c4 1BB2     		sxth	r3, r3
 452 00c6 1343     		orrs	r3, r2
 453 00c8 1BB2     		sxth	r3, r3
 454 00ca 9AB2     		uxth	r2, r3
 455 00cc 204B     		ldr	r3, .L25+32
 456 00ce 1A80     		strh	r2, [r3]
 133:bme280.c      ****     B1 = (SensorCalibrationData[0x0C] << 0x08) | SensorCalibrationData[0x0D];
 457              		.loc 1 133 0
 458 00d0 184B     		ldr	r3, .L25+4
 459 00d2 1B7B     		ldrb	r3, [r3, #12]
 460 00d4 1B02     		lsls	r3, r3, #8
 461 00d6 1AB2     		sxth	r2, r3
 462 00d8 164B     		ldr	r3, .L25+4
 463 00da 5B7B     		ldrb	r3, [r3, #13]
 464 00dc 1BB2     		sxth	r3, r3
 465 00de 1343     		orrs	r3, r2
 466 00e0 1AB2     		sxth	r2, r3
 467 00e2 1C4B     		ldr	r3, .L25+36
 468 00e4 1A80     		strh	r2, [r3]
 134:bme280.c      ****     B2 = (SensorCalibrationData[0x0E] << 0x08) | SensorCalibrationData[0x0F];
 469              		.loc 1 134 0
 470 00e6 134B     		ldr	r3, .L25+4
 471 00e8 9B7B     		ldrb	r3, [r3, #14]
 472 00ea 1B02     		lsls	r3, r3, #8
 473 00ec 1AB2     		sxth	r2, r3
 474 00ee 114B     		ldr	r3, .L25+4
 475 00f0 DB7B     		ldrb	r3, [r3, #15]
 476 00f2 1BB2     		sxth	r3, r3
 477 00f4 1343     		orrs	r3, r2
 478 00f6 1AB2     		sxth	r2, r3
 479 00f8 174B     		ldr	r3, .L25+40
 480 00fa 1A80     		strh	r2, [r3]
 135:bme280.c      ****     MC = (SensorCalibrationData[0x012] << 0x08) | SensorCalibrationData[0x013];
 481              		.loc 1 135 0
 482 00fc 0D4B     		ldr	r3, .L25+4
 483 00fe 9B7C     		ldrb	r3, [r3, #18]
 484 0100 1B02     		lsls	r3, r3, #8
 485 0102 1AB2     		sxth	r2, r3
 486 0104 0B4B     		ldr	r3, .L25+4
 487 0106 DB7C     		ldrb	r3, [r3, #19]
 488 0108 1BB2     		sxth	r3, r3
 489 010a 1343     		orrs	r3, r2
 490 010c 1AB2     		sxth	r2, r3
 491 010e 134B     		ldr	r3, .L25+44
 492 0110 1A80     		strh	r2, [r3]
ARM GAS  C:\Users\7709\AppData\Local\Temp\ccl3tk1y.s 			page 12


 136:bme280.c      ****     MD = (SensorCalibrationData[0x014] << 0x08) | SensorCalibrationData[0x015];
 493              		.loc 1 136 0
 494 0112 084B     		ldr	r3, .L25+4
 495 0114 1B7D     		ldrb	r3, [r3, #20]
 496 0116 1B02     		lsls	r3, r3, #8
 497 0118 1AB2     		sxth	r2, r3
 498 011a 064B     		ldr	r3, .L25+4
 499 011c 5B7D     		ldrb	r3, [r3, #21]
 500 011e 1BB2     		sxth	r3, r3
 501 0120 1343     		orrs	r3, r2
 502 0122 1AB2     		sxth	r2, r3
 503 0124 0E4B     		ldr	r3, .L25+48
 504 0126 1A80     		strh	r2, [r3]
 137:bme280.c      ****   //  I2C_1_Stop();
 138:bme280.c      **** }
 505              		.loc 1 138 0
 506 0128 C046     		nop
 507 012a BD46     		mov	sp, r7
 508              		@ sp needed
 509 012c 80BD     		pop	{r7, pc}
 510              	.L26:
 511 012e C046     		.align	2
 512              	.L25:
 513 0130 14000000 		.word	I2CWriteBuffer.8072
 514 0134 00000000 		.word	SensorCalibrationData
 515 0138 00000000 		.word	CalibrationDataAvailable
 516 013c 00000000 		.word	AC1
 517 0140 00000000 		.word	AC2
 518 0144 00000000 		.word	AC3
 519 0148 00000000 		.word	AC4
 520 014c 00000000 		.word	AC5
 521 0150 00000000 		.word	AC6
 522 0154 00000000 		.word	B1
 523 0158 00000000 		.word	B2
 524 015c 00000000 		.word	MC
 525 0160 00000000 		.word	MD
 526              		.cfi_endproc
 527              	.LFE39:
 528              		.size	ReadSensorCalibrationData, .-ReadSensorCalibrationData
 529              		.global	__aeabi_i2d
 530              		.global	__aeabi_ddiv
 531              		.global	__aeabi_d2iz
 532              		.global	__aeabi_dmul
 533              		.section	.rodata
 534              		.align	2
 535              	.LC31:
 536 0000 0A0D2054 		.ascii	"\012\015 TEMP \012\015 \000"
 536      454D5020 
 536      0A0D2000 
 537              		.global	__aeabi_ui2d
 538              		.global	__aeabi_d2uiz
 539              		.global	__aeabi_uidiv
 540              		.align	2
 541              	.LC46:
 542 000c 0A0D2050 		.ascii	"\012\015 PRESS \012\015 \000"
 542      52455353 
 542      200A0D20 
ARM GAS  C:\Users\7709\AppData\Local\Temp\ccl3tk1y.s 			page 13


 542      00
 543              		.section	.text.ReadAndCalculateSensorData,"ax",%progbits
 544              		.align	2
 545              		.global	ReadAndCalculateSensorData
 546              		.code	16
 547              		.thumb_func
 548              		.type	ReadAndCalculateSensorData, %function
 549              	ReadAndCalculateSensorData:
 550              	.LFB40:
 139:bme280.c      **** 
 140:bme280.c      **** void ReadAndCalculateSensorData(void)
 141:bme280.c      **** {
 551              		.loc 1 141 0
 552              		.cfi_startproc
 553              		@ args = 0, pretend = 0, frame = 0
 554              		@ frame_needed = 1, uses_anonymous_args = 0
 555 0000 B0B5     		push	{r4, r5, r7, lr}
 556              		.cfi_def_cfa_offset 16
 557              		.cfi_offset 4, -16
 558              		.cfi_offset 5, -12
 559              		.cfi_offset 7, -8
 560              		.cfi_offset 14, -4
 561 0002 00AF     		add	r7, sp, #0
 562              		.cfi_def_cfa_register 7
 142:bme280.c      ****     
 143:bme280.c      **** //    /* Read the sensor calibration data if not already available */
 144:bme280.c      **** //	if(!CalibrationDataAvailable)
 145:bme280.c      **** //    {
 146:bme280.c      **** //        ReadSensorCalibrationData(); //Read sensor calibration data
 147:bme280.c      **** //        
 148:bme280.c      **** //    }
 149:bme280.c      ****     
 150:bme280.c      ****     gettemp280(); //Read the uncompensated temperature value
 563              		.loc 1 150 0
 564 0004 FFF7FEFF 		bl	gettemp280
 151:bme280.c      ****     getpress280(); //Read the uncompensated pressure value
 565              		.loc 1 151 0
 566 0008 FFF7FEFF 		bl	getpress280
 152:bme280.c      ****     
 153:bme280.c      ****     /* Calculate the true temperature as described in sensor datasheet */
 154:bme280.c      ****     X1 = (UT280 - AC6) * AC5 / pow(2, 15);
 567              		.loc 1 154 0
 568 000c D94B     		ldr	r3, .L31
 569 000e 1B68     		ldr	r3, [r3]
 570 0010 D94A     		ldr	r2, .L31+4
 571 0012 1288     		ldrh	r2, [r2]
 572 0014 9B1A     		subs	r3, r3, r2
 573 0016 D94A     		ldr	r2, .L31+8
 574 0018 1288     		ldrh	r2, [r2]
 575 001a 5343     		muls	r3, r2
 576 001c 1800     		movs	r0, r3
 577 001e FFF7FEFF 		bl	__aeabi_i2d
 578 0022 0022     		movs	r2, #0
 579 0024 D64B     		ldr	r3, .L31+12
 580 0026 FFF7FEFF 		bl	__aeabi_ddiv
 581 002a 0300     		movs	r3, r0
 582 002c 0C00     		movs	r4, r1
ARM GAS  C:\Users\7709\AppData\Local\Temp\ccl3tk1y.s 			page 14


 583 002e 1800     		movs	r0, r3
 584 0030 2100     		movs	r1, r4
 585 0032 FFF7FEFF 		bl	__aeabi_d2iz
 586 0036 0200     		movs	r2, r0
 587 0038 D24B     		ldr	r3, .L31+16
 588 003a 1A60     		str	r2, [r3]
 155:bme280.c      ****     X2 = MC * pow(2, 11) / (X1 + MD);
 589              		.loc 1 155 0
 590 003c D24B     		ldr	r3, .L31+20
 591 003e 0022     		movs	r2, #0
 592 0040 9B5E     		ldrsh	r3, [r3, r2]
 593 0042 1800     		movs	r0, r3
 594 0044 FFF7FEFF 		bl	__aeabi_i2d
 595 0048 0022     		movs	r2, #0
 596 004a D04B     		ldr	r3, .L31+24
 597 004c FFF7FEFF 		bl	__aeabi_dmul
 598 0050 0300     		movs	r3, r0
 599 0052 0C00     		movs	r4, r1
 600 0054 2500     		movs	r5, r4
 601 0056 1C00     		movs	r4, r3
 602 0058 CD4B     		ldr	r3, .L31+28
 603 005a 0022     		movs	r2, #0
 604 005c 9B5E     		ldrsh	r3, [r3, r2]
 605 005e 1A00     		movs	r2, r3
 606 0060 C84B     		ldr	r3, .L31+16
 607 0062 1B68     		ldr	r3, [r3]
 608 0064 D318     		adds	r3, r2, r3
 609 0066 1800     		movs	r0, r3
 610 0068 FFF7FEFF 		bl	__aeabi_i2d
 611 006c 0200     		movs	r2, r0
 612 006e 0B00     		movs	r3, r1
 613 0070 2000     		movs	r0, r4
 614 0072 2900     		movs	r1, r5
 615 0074 FFF7FEFF 		bl	__aeabi_ddiv
 616 0078 0300     		movs	r3, r0
 617 007a 0C00     		movs	r4, r1
 618 007c 1800     		movs	r0, r3
 619 007e 2100     		movs	r1, r4
 620 0080 FFF7FEFF 		bl	__aeabi_d2iz
 621 0084 0200     		movs	r2, r0
 622 0086 C34B     		ldr	r3, .L31+32
 623 0088 1A60     		str	r2, [r3]
 156:bme280.c      ****     B5 = X1 + X2;
 624              		.loc 1 156 0
 625 008a BE4B     		ldr	r3, .L31+16
 626 008c 1A68     		ldr	r2, [r3]
 627 008e C14B     		ldr	r3, .L31+32
 628 0090 1B68     		ldr	r3, [r3]
 629 0092 D218     		adds	r2, r2, r3
 630 0094 C04B     		ldr	r3, .L31+36
 631 0096 1A60     		str	r2, [r3]
 157:bme280.c      ****   //  Temperature = (B5 + 8) / pow(2, 4);
 158:bme280.c      ****    
 159:bme280.c      ****     Temperature= gettemp280();
 632              		.loc 1 159 0
 633 0098 FFF7FEFF 		bl	gettemp280
 634 009c 0200     		movs	r2, r0
ARM GAS  C:\Users\7709\AppData\Local\Temp\ccl3tk1y.s 			page 15


 635 009e BF4B     		ldr	r3, .L31+40
 636 00a0 1A60     		str	r2, [r3]
 160:bme280.c      ****     UART_UartPutString("\n\r TEMP \n\r ");
 637              		.loc 1 160 0
 638 00a2 BF4B     		ldr	r3, .L31+44
 639 00a4 1800     		movs	r0, r3
 640 00a6 FFF7FEFF 		bl	UART_UartPutString
 161:bme280.c      **** 
 162:bme280.c      ****     UART_UartPutString(ltoa(Temperature));
 641              		.loc 1 162 0
 642 00aa BC4B     		ldr	r3, .L31+40
 643 00ac 1B68     		ldr	r3, [r3]
 644 00ae 1800     		movs	r0, r3
 645 00b0 FFF7FEFF 		bl	ltoa
 646 00b4 0300     		movs	r3, r0
 647 00b6 1800     		movs	r0, r3
 648 00b8 FFF7FEFF 		bl	UART_UartPutString
 163:bme280.c      ****     
 164:bme280.c      ****     
 165:bme280.c      ****     /* Calculate the true barometric pressure as described in sensor datasheet */
 166:bme280.c      ****     B6 = B5 - 4000;
 649              		.loc 1 166 0
 650 00bc B64B     		ldr	r3, .L31+36
 651 00be 1B68     		ldr	r3, [r3]
 652 00c0 B84A     		ldr	r2, .L31+48
 653 00c2 9A18     		adds	r2, r3, r2
 654 00c4 B84B     		ldr	r3, .L31+52
 655 00c6 1A60     		str	r2, [r3]
 167:bme280.c      ****     X1 = (B2 * (B6 * B6 / pow(2, 12))) / pow(2, 11);
 656              		.loc 1 167 0
 657 00c8 B84B     		ldr	r3, .L31+56
 658 00ca 0022     		movs	r2, #0
 659 00cc 9B5E     		ldrsh	r3, [r3, r2]
 660 00ce 1800     		movs	r0, r3
 661 00d0 FFF7FEFF 		bl	__aeabi_i2d
 662 00d4 0400     		movs	r4, r0
 663 00d6 0D00     		movs	r5, r1
 664 00d8 B34B     		ldr	r3, .L31+52
 665 00da 1A68     		ldr	r2, [r3]
 666 00dc B24B     		ldr	r3, .L31+52
 667 00de 1B68     		ldr	r3, [r3]
 668 00e0 5343     		muls	r3, r2
 669 00e2 1800     		movs	r0, r3
 670 00e4 FFF7FEFF 		bl	__aeabi_i2d
 671 00e8 0022     		movs	r2, #0
 672 00ea B14B     		ldr	r3, .L31+60
 673 00ec FFF7FEFF 		bl	__aeabi_ddiv
 674 00f0 0200     		movs	r2, r0
 675 00f2 0B00     		movs	r3, r1
 676 00f4 2000     		movs	r0, r4
 677 00f6 2900     		movs	r1, r5
 678 00f8 FFF7FEFF 		bl	__aeabi_dmul
 679 00fc 0300     		movs	r3, r0
 680 00fe 0C00     		movs	r4, r1
 681 0100 1800     		movs	r0, r3
 682 0102 2100     		movs	r1, r4
 683 0104 0022     		movs	r2, #0
ARM GAS  C:\Users\7709\AppData\Local\Temp\ccl3tk1y.s 			page 16


 684 0106 A14B     		ldr	r3, .L31+24
 685 0108 FFF7FEFF 		bl	__aeabi_ddiv
 686 010c 0300     		movs	r3, r0
 687 010e 0C00     		movs	r4, r1
 688 0110 1800     		movs	r0, r3
 689 0112 2100     		movs	r1, r4
 690 0114 FFF7FEFF 		bl	__aeabi_d2iz
 691 0118 0200     		movs	r2, r0
 692 011a 9A4B     		ldr	r3, .L31+16
 693 011c 1A60     		str	r2, [r3]
 168:bme280.c      ****     X2 = AC2 * B6 / pow(2, 11);
 694              		.loc 1 168 0
 695 011e A54B     		ldr	r3, .L31+64
 696 0120 0022     		movs	r2, #0
 697 0122 9B5E     		ldrsh	r3, [r3, r2]
 698 0124 1A00     		movs	r2, r3
 699 0126 A04B     		ldr	r3, .L31+52
 700 0128 1B68     		ldr	r3, [r3]
 701 012a 5343     		muls	r3, r2
 702 012c 1800     		movs	r0, r3
 703 012e FFF7FEFF 		bl	__aeabi_i2d
 704 0132 0022     		movs	r2, #0
 705 0134 954B     		ldr	r3, .L31+24
 706 0136 FFF7FEFF 		bl	__aeabi_ddiv
 707 013a 0300     		movs	r3, r0
 708 013c 0C00     		movs	r4, r1
 709 013e 1800     		movs	r0, r3
 710 0140 2100     		movs	r1, r4
 711 0142 FFF7FEFF 		bl	__aeabi_d2iz
 712 0146 0200     		movs	r2, r0
 713 0148 924B     		ldr	r3, .L31+32
 714 014a 1A60     		str	r2, [r3]
 169:bme280.c      ****     X3 = X1 + X2;
 715              		.loc 1 169 0
 716 014c 8D4B     		ldr	r3, .L31+16
 717 014e 1A68     		ldr	r2, [r3]
 718 0150 904B     		ldr	r3, .L31+32
 719 0152 1B68     		ldr	r3, [r3]
 720 0154 D218     		adds	r2, r2, r3
 721 0156 984B     		ldr	r3, .L31+68
 722 0158 1A60     		str	r2, [r3]
 170:bme280.c      ****     B3 = (((AC1 * 4 + X3) << OSS) + 2) / 4;
 723              		.loc 1 170 0
 724 015a 984B     		ldr	r3, .L31+72
 725 015c 0022     		movs	r2, #0
 726 015e 9B5E     		ldrsh	r3, [r3, r2]
 727 0160 9A00     		lsls	r2, r3, #2
 728 0162 954B     		ldr	r3, .L31+68
 729 0164 1B68     		ldr	r3, [r3]
 730 0166 D318     		adds	r3, r2, r3
 731 0168 DB00     		lsls	r3, r3, #3
 732 016a 0233     		adds	r3, r3, #2
 733 016c 002B     		cmp	r3, #0
 734 016e 00DA     		bge	.L28
 735 0170 0333     		adds	r3, r3, #3
 736              	.L28:
 737 0172 9B10     		asrs	r3, r3, #2
ARM GAS  C:\Users\7709\AppData\Local\Temp\ccl3tk1y.s 			page 17


 738 0174 1A00     		movs	r2, r3
 739 0176 924B     		ldr	r3, .L31+76
 740 0178 1A60     		str	r2, [r3]
 171:bme280.c      ****     X1 = AC3 * B6 / pow(2, 13);
 741              		.loc 1 171 0
 742 017a 924B     		ldr	r3, .L31+80
 743 017c 0022     		movs	r2, #0
 744 017e 9B5E     		ldrsh	r3, [r3, r2]
 745 0180 1A00     		movs	r2, r3
 746 0182 894B     		ldr	r3, .L31+52
 747 0184 1B68     		ldr	r3, [r3]
 748 0186 5343     		muls	r3, r2
 749 0188 1800     		movs	r0, r3
 750 018a FFF7FEFF 		bl	__aeabi_i2d
 751 018e 0022     		movs	r2, #0
 752 0190 8D4B     		ldr	r3, .L31+84
 753 0192 FFF7FEFF 		bl	__aeabi_ddiv
 754 0196 0300     		movs	r3, r0
 755 0198 0C00     		movs	r4, r1
 756 019a 1800     		movs	r0, r3
 757 019c 2100     		movs	r1, r4
 758 019e FFF7FEFF 		bl	__aeabi_d2iz
 759 01a2 0200     		movs	r2, r0
 760 01a4 774B     		ldr	r3, .L31+16
 761 01a6 1A60     		str	r2, [r3]
 172:bme280.c      ****     X2 = (B1 * (B6 * B6 / pow(2, 12))) / pow(2, 16);
 762              		.loc 1 172 0
 763 01a8 884B     		ldr	r3, .L31+88
 764 01aa 0022     		movs	r2, #0
 765 01ac 9B5E     		ldrsh	r3, [r3, r2]
 766 01ae 1800     		movs	r0, r3
 767 01b0 FFF7FEFF 		bl	__aeabi_i2d
 768 01b4 0400     		movs	r4, r0
 769 01b6 0D00     		movs	r5, r1
 770 01b8 7B4B     		ldr	r3, .L31+52
 771 01ba 1A68     		ldr	r2, [r3]
 772 01bc 7A4B     		ldr	r3, .L31+52
 773 01be 1B68     		ldr	r3, [r3]
 774 01c0 5343     		muls	r3, r2
 775 01c2 1800     		movs	r0, r3
 776 01c4 FFF7FEFF 		bl	__aeabi_i2d
 777 01c8 0022     		movs	r2, #0
 778 01ca 794B     		ldr	r3, .L31+60
 779 01cc FFF7FEFF 		bl	__aeabi_ddiv
 780 01d0 0200     		movs	r2, r0
 781 01d2 0B00     		movs	r3, r1
 782 01d4 2000     		movs	r0, r4
 783 01d6 2900     		movs	r1, r5
 784 01d8 FFF7FEFF 		bl	__aeabi_dmul
 785 01dc 0300     		movs	r3, r0
 786 01de 0C00     		movs	r4, r1
 787 01e0 1800     		movs	r0, r3
 788 01e2 2100     		movs	r1, r4
 789 01e4 0022     		movs	r2, #0
 790 01e6 7A4B     		ldr	r3, .L31+92
 791 01e8 FFF7FEFF 		bl	__aeabi_ddiv
 792 01ec 0300     		movs	r3, r0
ARM GAS  C:\Users\7709\AppData\Local\Temp\ccl3tk1y.s 			page 18


 793 01ee 0C00     		movs	r4, r1
 794 01f0 1800     		movs	r0, r3
 795 01f2 2100     		movs	r1, r4
 796 01f4 FFF7FEFF 		bl	__aeabi_d2iz
 797 01f8 0200     		movs	r2, r0
 798 01fa 664B     		ldr	r3, .L31+32
 799 01fc 1A60     		str	r2, [r3]
 173:bme280.c      ****     X3 = ((X1 + X2) + 2) / pow(2, 2);
 800              		.loc 1 173 0
 801 01fe 614B     		ldr	r3, .L31+16
 802 0200 1A68     		ldr	r2, [r3]
 803 0202 644B     		ldr	r3, .L31+32
 804 0204 1B68     		ldr	r3, [r3]
 805 0206 D318     		adds	r3, r2, r3
 806 0208 0233     		adds	r3, r3, #2
 807 020a 1800     		movs	r0, r3
 808 020c FFF7FEFF 		bl	__aeabi_i2d
 809 0210 0022     		movs	r2, #0
 810 0212 704B     		ldr	r3, .L31+96
 811 0214 FFF7FEFF 		bl	__aeabi_ddiv
 812 0218 0300     		movs	r3, r0
 813 021a 0C00     		movs	r4, r1
 814 021c 1800     		movs	r0, r3
 815 021e 2100     		movs	r1, r4
 816 0220 FFF7FEFF 		bl	__aeabi_d2iz
 817 0224 0200     		movs	r2, r0
 818 0226 644B     		ldr	r3, .L31+68
 819 0228 1A60     		str	r2, [r3]
 174:bme280.c      ****     B4 = (AC4 * (unsigned long)(X3 + 32768)) / pow(2, 15);
 820              		.loc 1 174 0
 821 022a 6B4B     		ldr	r3, .L31+100
 822 022c 1B88     		ldrh	r3, [r3]
 823 022e 1A00     		movs	r2, r3
 824 0230 614B     		ldr	r3, .L31+68
 825 0232 1B68     		ldr	r3, [r3]
 826 0234 8021     		movs	r1, #128
 827 0236 0902     		lsls	r1, r1, #8
 828 0238 8C46     		mov	ip, r1
 829 023a 6344     		add	r3, r3, ip
 830 023c 5343     		muls	r3, r2
 831 023e 1800     		movs	r0, r3
 832 0240 FFF7FEFF 		bl	__aeabi_ui2d
 833 0244 0022     		movs	r2, #0
 834 0246 4E4B     		ldr	r3, .L31+12
 835 0248 FFF7FEFF 		bl	__aeabi_ddiv
 836 024c 0300     		movs	r3, r0
 837 024e 0C00     		movs	r4, r1
 838 0250 1800     		movs	r0, r3
 839 0252 2100     		movs	r1, r4
 840 0254 FFF7FEFF 		bl	__aeabi_d2uiz
 841 0258 0200     		movs	r2, r0
 842 025a 604B     		ldr	r3, .L31+104
 843 025c 1A60     		str	r2, [r3]
 175:bme280.c      ****     B7 = ((unsigned long)UP280 - B3) * (50000 >> OSS);
 844              		.loc 1 175 0
 845 025e 604B     		ldr	r3, .L31+108
 846 0260 1B68     		ldr	r3, [r3]
ARM GAS  C:\Users\7709\AppData\Local\Temp\ccl3tk1y.s 			page 19


 847 0262 1A00     		movs	r2, r3
 848 0264 564B     		ldr	r3, .L31+76
 849 0266 1B68     		ldr	r3, [r3]
 850 0268 D31A     		subs	r3, r2, r3
 851 026a 5E4A     		ldr	r2, .L31+112
 852 026c 5A43     		muls	r2, r3
 853 026e 5E4B     		ldr	r3, .L31+116
 854 0270 1A60     		str	r2, [r3]
 176:bme280.c      ****     if(B7 < 0x80000000)
 855              		.loc 1 176 0
 856 0272 5D4B     		ldr	r3, .L31+116
 857 0274 1B68     		ldr	r3, [r3]
 858 0276 002B     		cmp	r3, #0
 859 0278 0DDB     		blt	.L29
 177:bme280.c      ****     {
 178:bme280.c      ****         Pressure = (B7 *2) / B4;
 860              		.loc 1 178 0
 861 027a 5B4B     		ldr	r3, .L31+116
 862 027c 1B68     		ldr	r3, [r3]
 863 027e 5A00     		lsls	r2, r3, #1
 864 0280 564B     		ldr	r3, .L31+104
 865 0282 1B68     		ldr	r3, [r3]
 866 0284 1900     		movs	r1, r3
 867 0286 1000     		movs	r0, r2
 868 0288 FFF7FEFF 		bl	__aeabi_uidiv
 869 028c 0300     		movs	r3, r0
 870 028e 1A00     		movs	r2, r3
 871 0290 564B     		ldr	r3, .L31+120
 872 0292 1A60     		str	r2, [r3]
 873 0294 0CE0     		b	.L30
 874              	.L29:
 179:bme280.c      ****     }
 180:bme280.c      ****     else 
 181:bme280.c      ****     {
 182:bme280.c      ****         Pressure = (B7 / B4) *2;
 875              		.loc 1 182 0
 876 0296 544B     		ldr	r3, .L31+116
 877 0298 1A68     		ldr	r2, [r3]
 878 029a 504B     		ldr	r3, .L31+104
 879 029c 1B68     		ldr	r3, [r3]
 880 029e 1900     		movs	r1, r3
 881 02a0 1000     		movs	r0, r2
 882 02a2 FFF7FEFF 		bl	__aeabi_uidiv
 883 02a6 0300     		movs	r3, r0
 884 02a8 5B00     		lsls	r3, r3, #1
 885 02aa 1A00     		movs	r2, r3
 886 02ac 4F4B     		ldr	r3, .L31+120
 887 02ae 1A60     		str	r2, [r3]
 888              	.L30:
 183:bme280.c      ****     }
 184:bme280.c      ****     X1 = (Pressure / pow(2, 8)) * (Pressure / pow(2, 8));
 889              		.loc 1 184 0
 890 02b0 4E4B     		ldr	r3, .L31+120
 891 02b2 1B68     		ldr	r3, [r3]
 892 02b4 1800     		movs	r0, r3
 893 02b6 FFF7FEFF 		bl	__aeabi_i2d
 894 02ba 0022     		movs	r2, #0
ARM GAS  C:\Users\7709\AppData\Local\Temp\ccl3tk1y.s 			page 20


 895 02bc 4C4B     		ldr	r3, .L31+124
 896 02be FFF7FEFF 		bl	__aeabi_ddiv
 897 02c2 0300     		movs	r3, r0
 898 02c4 0C00     		movs	r4, r1
 899 02c6 2500     		movs	r5, r4
 900 02c8 1C00     		movs	r4, r3
 901 02ca 484B     		ldr	r3, .L31+120
 902 02cc 1B68     		ldr	r3, [r3]
 903 02ce 1800     		movs	r0, r3
 904 02d0 FFF7FEFF 		bl	__aeabi_i2d
 905 02d4 0022     		movs	r2, #0
 906 02d6 464B     		ldr	r3, .L31+124
 907 02d8 FFF7FEFF 		bl	__aeabi_ddiv
 908 02dc 0200     		movs	r2, r0
 909 02de 0B00     		movs	r3, r1
 910 02e0 2000     		movs	r0, r4
 911 02e2 2900     		movs	r1, r5
 912 02e4 FFF7FEFF 		bl	__aeabi_dmul
 913 02e8 0300     		movs	r3, r0
 914 02ea 0C00     		movs	r4, r1
 915 02ec 1800     		movs	r0, r3
 916 02ee 2100     		movs	r1, r4
 917 02f0 FFF7FEFF 		bl	__aeabi_d2iz
 918 02f4 0200     		movs	r2, r0
 919 02f6 234B     		ldr	r3, .L31+16
 920 02f8 1A60     		str	r2, [r3]
 185:bme280.c      ****     X1 = (X1 * 3038) / pow(2, 16);
 921              		.loc 1 185 0
 922 02fa 224B     		ldr	r3, .L31+16
 923 02fc 1B68     		ldr	r3, [r3]
 924 02fe 3D4A     		ldr	r2, .L31+128
 925 0300 5343     		muls	r3, r2
 926 0302 1800     		movs	r0, r3
 927 0304 FFF7FEFF 		bl	__aeabi_i2d
 928 0308 0022     		movs	r2, #0
 929 030a 314B     		ldr	r3, .L31+92
 930 030c FFF7FEFF 		bl	__aeabi_ddiv
 931 0310 0300     		movs	r3, r0
 932 0312 0C00     		movs	r4, r1
 933 0314 1800     		movs	r0, r3
 934 0316 2100     		movs	r1, r4
 935 0318 FFF7FEFF 		bl	__aeabi_d2iz
 936 031c 0200     		movs	r2, r0
 937 031e 194B     		ldr	r3, .L31+16
 938 0320 1A60     		str	r2, [r3]
 186:bme280.c      ****     X2 = (-7357 * Pressure) / pow(2, 16);
 939              		.loc 1 186 0
 940 0322 324B     		ldr	r3, .L31+120
 941 0324 1B68     		ldr	r3, [r3]
 942 0326 344A     		ldr	r2, .L31+132
 943 0328 5343     		muls	r3, r2
 944 032a 1800     		movs	r0, r3
 945 032c FFF7FEFF 		bl	__aeabi_i2d
 946 0330 0022     		movs	r2, #0
 947 0332 274B     		ldr	r3, .L31+92
 948 0334 FFF7FEFF 		bl	__aeabi_ddiv
 949 0338 0300     		movs	r3, r0
ARM GAS  C:\Users\7709\AppData\Local\Temp\ccl3tk1y.s 			page 21


 950 033a 0C00     		movs	r4, r1
 951 033c 1800     		movs	r0, r3
 952 033e 2100     		movs	r1, r4
 953 0340 FFF7FEFF 		bl	__aeabi_d2iz
 954 0344 0200     		movs	r2, r0
 955 0346 134B     		ldr	r3, .L31+32
 956 0348 1A60     		str	r2, [r3]
 187:bme280.c      ****     //Pressure = Pressure + (X1 + X2 + 3791) / pow(2, 4);
 188:bme280.c      ****     Pressure= getpress280(); 
 957              		.loc 1 188 0
 958 034a FFF7FEFF 		bl	getpress280
 959 034e 0200     		movs	r2, r0
 960 0350 264B     		ldr	r3, .L31+120
 961 0352 1A60     		str	r2, [r3]
 189:bme280.c      ****     
 190:bme280.c      ****     UART_UartPutString("\n\r PRESS \n\r ");
 962              		.loc 1 190 0
 963 0354 294B     		ldr	r3, .L31+136
 964 0356 1800     		movs	r0, r3
 965 0358 FFF7FEFF 		bl	UART_UartPutString
 191:bme280.c      ****     UART_UartPutString(ltoa(Pressure));
 966              		.loc 1 191 0
 967 035c 234B     		ldr	r3, .L31+120
 968 035e 1B68     		ldr	r3, [r3]
 969 0360 1800     		movs	r0, r3
 970 0362 FFF7FEFF 		bl	ltoa
 971 0366 0300     		movs	r3, r0
 972 0368 1800     		movs	r0, r3
 973 036a FFF7FEFF 		bl	UART_UartPutString
 192:bme280.c      ****     /* Calculate the true altitude based on pressure at sea level as described in sensor datasheet 
 193:bme280.c      ****     //Altitude = 44330 * (1 - ( pow(Pressure/PressureAtSeaLevel, 1/5.255)));
 194:bme280.c      **** }
 974              		.loc 1 194 0
 975 036e C046     		nop
 976 0370 BD46     		mov	sp, r7
 977              		@ sp needed
 978 0372 B0BD     		pop	{r4, r5, r7, pc}
 979              	.L32:
 980              		.align	2
 981              	.L31:
 982 0374 00000000 		.word	UT280
 983 0378 00000000 		.word	AC6
 984 037c 00000000 		.word	AC5
 985 0380 0000E040 		.word	1088421888
 986 0384 00000000 		.word	X1
 987 0388 00000000 		.word	MC
 988 038c 0000A040 		.word	1084227584
 989 0390 00000000 		.word	MD
 990 0394 00000000 		.word	X2
 991 0398 00000000 		.word	B5
 992 039c 00000000 		.word	Temperature
 993 03a0 00000000 		.word	.LC31
 994 03a4 60F0FFFF 		.word	-4000
 995 03a8 00000000 		.word	B6
 996 03ac 00000000 		.word	B2
 997 03b0 0000B040 		.word	1085276160
 998 03b4 00000000 		.word	AC2
ARM GAS  C:\Users\7709\AppData\Local\Temp\ccl3tk1y.s 			page 22


 999 03b8 00000000 		.word	X3
 1000 03bc 00000000 		.word	AC1
 1001 03c0 00000000 		.word	B3
 1002 03c4 00000000 		.word	AC3
 1003 03c8 0000C040 		.word	1086324736
 1004 03cc 00000000 		.word	B1
 1005 03d0 0000F040 		.word	1089470464
 1006 03d4 00001040 		.word	1074790400
 1007 03d8 00000000 		.word	AC4
 1008 03dc 00000000 		.word	B4
 1009 03e0 00000000 		.word	UP280
 1010 03e4 6A180000 		.word	6250
 1011 03e8 00000000 		.word	B7
 1012 03ec 00000000 		.word	Pressure
 1013 03f0 00007040 		.word	1081081856
 1014 03f4 DE0B0000 		.word	3038
 1015 03f8 43E3FFFF 		.word	-7357
 1016 03fc 0C000000 		.word	.LC46
 1017              		.cfi_endproc
 1018              	.LFE40:
 1019              		.size	ReadAndCalculateSensorData, .-ReadAndCalculateSensorData
 1020              		.data
 1021              		.align	2
 1022              		.type	I2CWriteBufferT.8043, %object
 1023              		.size	I2CWriteBufferT.8043, 1
 1024              	I2CWriteBufferT.8043:
 1025 0008 F4       		.byte	-12
 1026              		.bss
 1027 0001 000000   		.align	2
 1028              	I2CReadBufferT.8042:
 1029 0004 0000     		.space	2
 1030              		.data
 1031 0009 000000   		.align	2
 1032              		.type	I2CWriteBufferP.8054, %object
 1033              		.size	I2CWriteBufferP.8054, 1
 1034              	I2CWriteBufferP.8054:
 1035 000c F7       		.byte	-9
 1036 000d 000000   		.align	2
 1037              		.type	SetReadAddressBufferP.8055, %object
 1038              		.size	SetReadAddressBufferP.8055, 1
 1039              	SetReadAddressBufferP.8055:
 1040 0010 F6       		.byte	-10
 1041              		.bss
 1042 0006 0000     		.align	2
 1043              	I2CReadBufferP.8053:
 1044 0008 000000   		.space	3
 1045              		.data
 1046 0011 000000   		.align	2
 1047              		.type	I2CWriteBuffer.8072, %object
 1048              		.size	I2CWriteBuffer.8072, 1
 1049              	I2CWriteBuffer.8072:
 1050 0014 AA       		.byte	-86
 1051              		.text
 1052              	.Letext0:
 1053              		.file 2 "Generated_Source\\PSoC4/cytypes.h"
 1054              		.file 3 "bme280.h"
 1055              		.file 4 "Generated_Source\\PSoC4/BLE_Stack.h"
ARM GAS  C:\Users\7709\AppData\Local\Temp\ccl3tk1y.s 			page 23

