ARM GAS  C:\Users\7709\AppData\Local\Temp\ccDZBoC8.s 			page 1


   1              		.syntax unified
   2              		.cpu cortex-m0
   3              		.fpu softvfp
   4              		.eabi_attribute 20, 1
   5              		.eabi_attribute 21, 1
   6              		.eabi_attribute 23, 3
   7              		.eabi_attribute 24, 1
   8              		.eabi_attribute 25, 1
   9              		.eabi_attribute 26, 1
  10              		.eabi_attribute 30, 6
  11              		.eabi_attribute 34, 0
  12              		.eabi_attribute 18, 4
  13              		.thumb
  14              		.syntax unified
  15              		.file	"HTU21D.c"
  16              		.text
  17              	.Ltext0:
  18              		.cfi_sections	.debug_frame
  19              		.comm	UT,4,4
  20              		.comm	UH,4,4
  21              		.comm	htutemp,4,4
  22              		.comm	htuhum,4,4
  23              		.comm	hum,4,4
  24              		.comm	temp,4,4
  25              		.global	__aeabi_i2f
  26              		.global	__aeabi_f2d
  27              		.global	__aeabi_dmul
  28              		.global	__aeabi_d2f
  29              		.global	__aeabi_fdiv
  30              		.global	__aeabi_dsub
  31              		.global	__aeabi_f2uiz
  32              		.section	.text.getTemp,"ax",%progbits
  33              		.align	2
  34              		.global	getTemp
  35              		.code	16
  36              		.thumb_func
  37              		.type	getTemp, %function
  38              	getTemp:
  39              	.LFB2:
  40              		.file 1 "HTU21D.c"
   1:HTU21D.c      **** /* ========================================
   2:HTU21D.c      ****  *
   3:HTU21D.c      ****  * HTU21D Sensor 
   4:HTU21D.c      ****  *  I2C interface communication
   5:HTU21D.c      **** 
   6:HTU21D.c      ****  * ========================================
   7:HTU21D.c      **** */
   8:HTU21D.c      **** 
   9:HTU21D.c      **** #include "htu21d.h"
  10:HTU21D.c      **** #include "I2C_1.h"
  11:HTU21D.c      **** 
  12:HTU21D.c      **** 
  13:HTU21D.c      **** int getTemp(){
  41              		.loc 1 13 0
  42              		.cfi_startproc
  43              		@ args = 0, pretend = 0, frame = 0
  44              		@ frame_needed = 1, uses_anonymous_args = 0
ARM GAS  C:\Users\7709\AppData\Local\Temp\ccDZBoC8.s 			page 2


  45 0000 B0B5     		push	{r4, r5, r7, lr}
  46              		.cfi_def_cfa_offset 16
  47              		.cfi_offset 4, -16
  48              		.cfi_offset 5, -12
  49              		.cfi_offset 7, -8
  50              		.cfi_offset 14, -4
  51 0002 00AF     		add	r7, sp, #0
  52              		.cfi_def_cfa_register 7
  14:HTU21D.c      ****     I2C_1_Start(); 
  53              		.loc 1 14 0
  54 0004 FFF7FEFF 		bl	I2C_1_Start
  15:HTU21D.c      ****     //static uint8 softreset[0x01]={0xfe}; // Soft reset code
  16:HTU21D.c      ****     static uint8 I2CReadBuffer[0x04]; //The uncompensated temperature read from the sensor is store
  17:HTU21D.c      ****     static uint8 I2CWriteBuffer[0x01] = {0xE3}; //Command for temperature conversion - Register add
  18:HTU21D.c      ****    // static uint8 SetReadAddressBuffer[0x01] = {0x40}; //Register address from which the data is r
  19:HTU21D.c      ****     //CyDelay(15);
  20:HTU21D.c      ****     /* Do a write operation with the memory address bytes to get temperature data */
  21:HTU21D.c      **** 	I2C_1_I2CMasterWriteBuf(DEVICEADDRESS, (uint8 *) I2CWriteBuffer, sizeof(I2CWriteBuffer), I2C_I2C_M
  55              		.loc 1 21 0
  56 0008 3449     		ldr	r1, .L5
  57 000a 0023     		movs	r3, #0
  58 000c 0122     		movs	r2, #1
  59 000e 4020     		movs	r0, #64
  60 0010 FFF7FEFF 		bl	I2C_1_I2CMasterWriteBuf
  22:HTU21D.c      ****     while(!(I2C_1_I2CMasterStatus() & I2C_I2C_MSTAT_WR_CMPLT)); //Wait till the master completes wr
  61              		.loc 1 22 0
  62 0014 C046     		nop
  63              	.L2:
  64              		.loc 1 22 0 is_stmt 0 discriminator 1
  65 0016 FFF7FEFF 		bl	I2C_1_I2CMasterStatus
  66 001a 0200     		movs	r2, r0
  67 001c 0223     		movs	r3, #2
  68 001e 1340     		ands	r3, r2
  69 0020 F9D0     		beq	.L2
  23:HTU21D.c      ****     I2C_1_I2CMasterClearStatus(); //Clear I2C master status
  70              		.loc 1 23 0 is_stmt 1
  71 0022 FFF7FEFF 		bl	I2C_1_I2CMasterClearStatus
  24:HTU21D.c      ****     
  25:HTU21D.c      ****     CyDelay(5); //Wait for 5ms temperature conversion
  72              		.loc 1 25 0
  73 0026 0520     		movs	r0, #5
  74 0028 FFF7FEFF 		bl	CyDelay
  26:HTU21D.c      ****  
  27:HTU21D.c      ****     /* Read temperature from the sensor and store it in a buffer */
  28:HTU21D.c      **** 	I2C_1_I2CMasterReadBuf(DEVICEADDRESS, (uint8 *) I2CReadBuffer, sizeof(I2CReadBuffer), I2C_I2C_MODE
  75              		.loc 1 28 0
  76 002c 2C49     		ldr	r1, .L5+4
  77 002e 0023     		movs	r3, #0
  78 0030 0422     		movs	r2, #4
  79 0032 4020     		movs	r0, #64
  80 0034 FFF7FEFF 		bl	I2C_1_I2CMasterReadBuf
  29:HTU21D.c      ****     while(!(I2C_1_I2CMasterStatus() & I2C_I2C_MSTAT_RD_CMPLT)); //Wait till the master completes re
  81              		.loc 1 29 0
  82 0038 C046     		nop
  83              	.L3:
  84              		.loc 1 29 0 is_stmt 0 discriminator 1
  85 003a FFF7FEFF 		bl	I2C_1_I2CMasterStatus
ARM GAS  C:\Users\7709\AppData\Local\Temp\ccDZBoC8.s 			page 3


  86 003e 0200     		movs	r2, r0
  87 0040 0123     		movs	r3, #1
  88 0042 1340     		ands	r3, r2
  89 0044 F9D0     		beq	.L3
  30:HTU21D.c      ****     I2C_1_I2CMasterClearStatus(); //Clear I2C master status
  90              		.loc 1 30 0 is_stmt 1
  91 0046 FFF7FEFF 		bl	I2C_1_I2CMasterClearStatus
  31:HTU21D.c      ****     
  32:HTU21D.c      **** 	UT = (I2CReadBuffer[0x00] << 0x08) | I2CReadBuffer[0x01]; //Return uncompensated temperature value
  92              		.loc 1 32 0
  93 004a 254B     		ldr	r3, .L5+4
  94 004c 1B78     		ldrb	r3, [r3]
  95 004e 1B02     		lsls	r3, r3, #8
  96 0050 234A     		ldr	r2, .L5+4
  97 0052 5278     		ldrb	r2, [r2, #1]
  98 0054 1A43     		orrs	r2, r3
  99 0056 234B     		ldr	r3, .L5+8
 100 0058 1A60     		str	r2, [r3]
  33:HTU21D.c      ****     
  34:HTU21D.c      ****                             // Conversion //
  35:HTU21D.c      ****     temp=UT;
 101              		.loc 1 35 0
 102 005a 224B     		ldr	r3, .L5+8
 103 005c 1B68     		ldr	r3, [r3]
 104 005e 1800     		movs	r0, r3
 105 0060 FFF7FEFF 		bl	__aeabi_i2f
 106 0064 021C     		adds	r2, r0, #0
 107 0066 204B     		ldr	r3, .L5+12
 108 0068 1A60     		str	r2, [r3]
  36:HTU21D.c      ****     temp *= 175.72;
 109              		.loc 1 36 0
 110 006a 1F4B     		ldr	r3, .L5+12
 111 006c 1B68     		ldr	r3, [r3]
 112 006e 181C     		adds	r0, r3, #0
 113 0070 FFF7FEFF 		bl	__aeabi_f2d
 114 0074 1D4A     		ldr	r2, .L5+16
 115 0076 1E4B     		ldr	r3, .L5+20
 116 0078 FFF7FEFF 		bl	__aeabi_dmul
 117 007c 0300     		movs	r3, r0
 118 007e 0C00     		movs	r4, r1
 119 0080 1800     		movs	r0, r3
 120 0082 2100     		movs	r1, r4
 121 0084 FFF7FEFF 		bl	__aeabi_d2f
 122 0088 021C     		adds	r2, r0, #0
 123 008a 174B     		ldr	r3, .L5+12
 124 008c 1A60     		str	r2, [r3]
  37:HTU21D.c      ****     temp /= 65536;
 125              		.loc 1 37 0
 126 008e 164B     		ldr	r3, .L5+12
 127 0090 1B68     		ldr	r3, [r3]
 128 0092 8F21     		movs	r1, #143
 129 0094 C905     		lsls	r1, r1, #23
 130 0096 181C     		adds	r0, r3, #0
 131 0098 FFF7FEFF 		bl	__aeabi_fdiv
 132 009c 031C     		adds	r3, r0, #0
 133 009e 1A1C     		adds	r2, r3, #0
 134 00a0 114B     		ldr	r3, .L5+12
ARM GAS  C:\Users\7709\AppData\Local\Temp\ccDZBoC8.s 			page 4


 135 00a2 1A60     		str	r2, [r3]
  38:HTU21D.c      ****     temp -= 46.85;
 136              		.loc 1 38 0
 137 00a4 104B     		ldr	r3, .L5+12
 138 00a6 1B68     		ldr	r3, [r3]
 139 00a8 181C     		adds	r0, r3, #0
 140 00aa FFF7FEFF 		bl	__aeabi_f2d
 141 00ae 114A     		ldr	r2, .L5+24
 142 00b0 114B     		ldr	r3, .L5+28
 143 00b2 FFF7FEFF 		bl	__aeabi_dsub
 144 00b6 0300     		movs	r3, r0
 145 00b8 0C00     		movs	r4, r1
 146 00ba 1800     		movs	r0, r3
 147 00bc 2100     		movs	r1, r4
 148 00be FFF7FEFF 		bl	__aeabi_d2f
 149 00c2 021C     		adds	r2, r0, #0
 150 00c4 084B     		ldr	r3, .L5+12
 151 00c6 1A60     		str	r2, [r3]
  39:HTU21D.c      ****     return (uint8)temp;
 152              		.loc 1 39 0
 153 00c8 074B     		ldr	r3, .L5+12
 154 00ca 1B68     		ldr	r3, [r3]
 155 00cc 181C     		adds	r0, r3, #0
 156 00ce FFF7FEFF 		bl	__aeabi_f2uiz
 157 00d2 0300     		movs	r3, r0
 158 00d4 DBB2     		uxtb	r3, r3
  40:HTU21D.c      **** }
 159              		.loc 1 40 0
 160 00d6 1800     		movs	r0, r3
 161 00d8 BD46     		mov	sp, r7
 162              		@ sp needed
 163 00da B0BD     		pop	{r4, r5, r7, pc}
 164              	.L6:
 165              		.align	2
 166              	.L5:
 167 00dc 00000000 		.word	I2CWriteBuffer.5569
 168 00e0 00000000 		.word	I2CReadBuffer.5568
 169 00e4 00000000 		.word	UT
 170 00e8 00000000 		.word	temp
 171 00ec D7A3703D 		.word	1030792151
 172 00f0 0AF76540 		.word	1080424202
 173 00f4 CDCCCCCC 		.word	-858993459
 174 00f8 CC6C4740 		.word	1078422732
 175              		.cfi_endproc
 176              	.LFE2:
 177              		.size	getTemp, .-getTemp
 178              		.global	__aeabi_fmul
 179              		.global	__aeabi_fsub
 180              		.section	.text.getHum,"ax",%progbits
 181              		.align	2
 182              		.global	getHum
 183              		.code	16
 184              		.thumb_func
 185              		.type	getHum, %function
 186              	getHum:
 187              	.LFB3:
  41:HTU21D.c      **** 
ARM GAS  C:\Users\7709\AppData\Local\Temp\ccDZBoC8.s 			page 5


  42:HTU21D.c      **** int getHum(){
 188              		.loc 1 42 0
 189              		.cfi_startproc
 190              		@ args = 0, pretend = 0, frame = 0
 191              		@ frame_needed = 1, uses_anonymous_args = 0
 192 0000 80B5     		push	{r7, lr}
 193              		.cfi_def_cfa_offset 8
 194              		.cfi_offset 7, -8
 195              		.cfi_offset 14, -4
 196 0002 00AF     		add	r7, sp, #0
 197              		.cfi_def_cfa_register 7
  43:HTU21D.c      ****     I2C_1_Start(); 
 198              		.loc 1 43 0
 199 0004 FFF7FEFF 		bl	I2C_1_Start
  44:HTU21D.c      ****     static uint8 I2CReadBuffer[0x04]; //The uncompensated humidity read from the sensor is stored h
  45:HTU21D.c      ****     static uint8 I2CWriteBuffer[0x01] = {0xE5}; //Command for hui conversion - Register address and
  46:HTU21D.c      ****    // static uint8 SetReadAddressBuffer[0x01] = {0x40}; //Register address from which the data is r
  47:HTU21D.c      ****     
  48:HTU21D.c      ****     /* Do a write operation with the memory address bytes to get humidity data */
  49:HTU21D.c      **** 	I2C_1_I2CMasterWriteBuf(DEVICEADDRESS, (uint8 *) I2CWriteBuffer, sizeof(I2CWriteBuffer), I2C_I2C_M
 200              		.loc 1 49 0
 201 0008 2C49     		ldr	r1, .L11
 202 000a 0023     		movs	r3, #0
 203 000c 0122     		movs	r2, #1
 204 000e 4020     		movs	r0, #64
 205 0010 FFF7FEFF 		bl	I2C_1_I2CMasterWriteBuf
  50:HTU21D.c      ****     while(!(I2C_1_I2CMasterStatus() & I2C_I2C_MSTAT_WR_CMPLT)); //Wait till the master completes wr
 206              		.loc 1 50 0
 207 0014 C046     		nop
 208              	.L8:
 209              		.loc 1 50 0 is_stmt 0 discriminator 1
 210 0016 FFF7FEFF 		bl	I2C_1_I2CMasterStatus
 211 001a 0200     		movs	r2, r0
 212 001c 0223     		movs	r3, #2
 213 001e 1340     		ands	r3, r2
 214 0020 F9D0     		beq	.L8
  51:HTU21D.c      ****     I2C_1_I2CMasterClearStatus(); //Clear I2C master status
 215              		.loc 1 51 0 is_stmt 1
 216 0022 FFF7FEFF 		bl	I2C_1_I2CMasterClearStatus
  52:HTU21D.c      ****     
  53:HTU21D.c      ****     CyDelay(5); //Wait for 5ms huidity conversion
 217              		.loc 1 53 0
 218 0026 0520     		movs	r0, #5
 219 0028 FFF7FEFF 		bl	CyDelay
  54:HTU21D.c      ****     
  55:HTU21D.c      ****     /* Read pressure from the sensor and store it in a buffer */
  56:HTU21D.c      **** 	I2C_1_I2CMasterReadBuf(DEVICEADDRESS, (uint8 *) I2CReadBuffer, sizeof(I2CReadBuffer), I2C_I2C_MODE
 220              		.loc 1 56 0
 221 002c 2449     		ldr	r1, .L11+4
 222 002e 0023     		movs	r3, #0
 223 0030 0422     		movs	r2, #4
 224 0032 4020     		movs	r0, #64
 225 0034 FFF7FEFF 		bl	I2C_1_I2CMasterReadBuf
  57:HTU21D.c      ****     while(!(I2C_1_I2CMasterStatus() & I2C_I2C_MSTAT_RD_CMPLT)); //Wait till the master completes re
 226              		.loc 1 57 0
 227 0038 C046     		nop
 228              	.L9:
ARM GAS  C:\Users\7709\AppData\Local\Temp\ccDZBoC8.s 			page 6


 229              		.loc 1 57 0 is_stmt 0 discriminator 1
 230 003a FFF7FEFF 		bl	I2C_1_I2CMasterStatus
 231 003e 0200     		movs	r2, r0
 232 0040 0123     		movs	r3, #1
 233 0042 1340     		ands	r3, r2
 234 0044 F9D0     		beq	.L9
  58:HTU21D.c      ****     I2C_1_I2CMasterClearStatus(); //Clear I2C master status
 235              		.loc 1 58 0 is_stmt 1
 236 0046 FFF7FEFF 		bl	I2C_1_I2CMasterClearStatus
  59:HTU21D.c      **** 	UH =  (I2CReadBuffer[0x00] << 0x08) | I2CReadBuffer[0x01]; //Return uncompensated HUM value
 237              		.loc 1 59 0
 238 004a 1D4B     		ldr	r3, .L11+4
 239 004c 1B78     		ldrb	r3, [r3]
 240 004e 1B02     		lsls	r3, r3, #8
 241 0050 1B4A     		ldr	r2, .L11+4
 242 0052 5278     		ldrb	r2, [r2, #1]
 243 0054 1A43     		orrs	r2, r3
 244 0056 1B4B     		ldr	r3, .L11+8
 245 0058 1A60     		str	r2, [r3]
  60:HTU21D.c      ****     
  61:HTU21D.c      ****                         // Conversion //
  62:HTU21D.c      ****     hum = UH;
 246              		.loc 1 62 0
 247 005a 1A4B     		ldr	r3, .L11+8
 248 005c 1B68     		ldr	r3, [r3]
 249 005e 1800     		movs	r0, r3
 250 0060 FFF7FEFF 		bl	__aeabi_i2f
 251 0064 021C     		adds	r2, r0, #0
 252 0066 184B     		ldr	r3, .L11+12
 253 0068 1A60     		str	r2, [r3]
  63:HTU21D.c      ****     hum *= 125;
 254              		.loc 1 63 0
 255 006a 174B     		ldr	r3, .L11+12
 256 006c 1B68     		ldr	r3, [r3]
 257 006e 1749     		ldr	r1, .L11+16
 258 0070 181C     		adds	r0, r3, #0
 259 0072 FFF7FEFF 		bl	__aeabi_fmul
 260 0076 031C     		adds	r3, r0, #0
 261 0078 1A1C     		adds	r2, r3, #0
 262 007a 134B     		ldr	r3, .L11+12
 263 007c 1A60     		str	r2, [r3]
  64:HTU21D.c      ****     hum /= 65536;
 264              		.loc 1 64 0
 265 007e 124B     		ldr	r3, .L11+12
 266 0080 1B68     		ldr	r3, [r3]
 267 0082 8F21     		movs	r1, #143
 268 0084 C905     		lsls	r1, r1, #23
 269 0086 181C     		adds	r0, r3, #0
 270 0088 FFF7FEFF 		bl	__aeabi_fdiv
 271 008c 031C     		adds	r3, r0, #0
 272 008e 1A1C     		adds	r2, r3, #0
 273 0090 0D4B     		ldr	r3, .L11+12
 274 0092 1A60     		str	r2, [r3]
  65:HTU21D.c      ****     hum -= 6;
 275              		.loc 1 65 0
 276 0094 0C4B     		ldr	r3, .L11+12
 277 0096 1B68     		ldr	r3, [r3]
ARM GAS  C:\Users\7709\AppData\Local\Temp\ccDZBoC8.s 			page 7


 278 0098 0D49     		ldr	r1, .L11+20
 279 009a 181C     		adds	r0, r3, #0
 280 009c FFF7FEFF 		bl	__aeabi_fsub
 281 00a0 031C     		adds	r3, r0, #0
 282 00a2 1A1C     		adds	r2, r3, #0
 283 00a4 084B     		ldr	r3, .L11+12
 284 00a6 1A60     		str	r2, [r3]
  66:HTU21D.c      ****     
  67:HTU21D.c      ****     return (uint8)hum;
 285              		.loc 1 67 0
 286 00a8 074B     		ldr	r3, .L11+12
 287 00aa 1B68     		ldr	r3, [r3]
 288 00ac 181C     		adds	r0, r3, #0
 289 00ae FFF7FEFF 		bl	__aeabi_f2uiz
 290 00b2 0300     		movs	r3, r0
 291 00b4 DBB2     		uxtb	r3, r3
  68:HTU21D.c      **** }
 292              		.loc 1 68 0
 293 00b6 1800     		movs	r0, r3
 294 00b8 BD46     		mov	sp, r7
 295              		@ sp needed
 296 00ba 80BD     		pop	{r7, pc}
 297              	.L12:
 298              		.align	2
 299              	.L11:
 300 00bc 04000000 		.word	I2CWriteBuffer.5579
 301 00c0 04000000 		.word	I2CReadBuffer.5578
 302 00c4 00000000 		.word	UH
 303 00c8 00000000 		.word	hum
 304 00cc 0000FA42 		.word	1123680256
 305 00d0 0000C040 		.word	1086324736
 306              		.cfi_endproc
 307              	.LFE3:
 308              		.size	getHum, .-getHum
 309              		.data
 310              		.align	2
 311              		.type	I2CWriteBuffer.5569, %object
 312              		.size	I2CWriteBuffer.5569, 1
 313              	I2CWriteBuffer.5569:
 314 0000 E3       		.byte	-29
 315              		.bss
 316              		.align	2
 317              	I2CReadBuffer.5568:
 318 0000 00000000 		.space	4
 319              		.data
 320 0001 000000   		.align	2
 321              		.type	I2CWriteBuffer.5579, %object
 322              		.size	I2CWriteBuffer.5579, 1
 323              	I2CWriteBuffer.5579:
 324 0004 E5       		.byte	-27
 325              		.bss
 326              		.align	2
 327              	I2CReadBuffer.5578:
 328 0004 00000000 		.space	4
 329              		.text
 330              	.Letext0:
 331              		.file 2 "Generated_Source\\PSoC4/cytypes.h"
ARM GAS  C:\Users\7709\AppData\Local\Temp\ccDZBoC8.s 			page 8


 332              		.file 3 "htu21d.h"
 333              		.section	.debug_info,"",%progbits
 334              	.Ldebug_info0:
 335 0000 9F010000 		.4byte	0x19f
 336 0004 0400     		.2byte	0x4
 337 0006 00000000 		.4byte	.Ldebug_abbrev0
 338 000a 04       		.byte	0x4
 339 000b 01       		.uleb128 0x1
 340 000c 2E000000 		.4byte	.LASF23
 341 0010 0C       		.byte	0xc
 342 0011 2C010000 		.4byte	.LASF24
 343 0015 BC000000 		.4byte	.LASF25
 344 0019 00000000 		.4byte	.Ldebug_ranges0+0
 345 001d 00000000 		.4byte	0
 346 0021 00000000 		.4byte	.Ldebug_line0
 347 0025 02       		.uleb128 0x2
 348 0026 01       		.byte	0x1
 349 0027 06       		.byte	0x6
 350 0028 9F010000 		.4byte	.LASF0
 351 002c 02       		.uleb128 0x2
 352 002d 01       		.byte	0x1
 353 002e 08       		.byte	0x8
 354 002f 61010000 		.4byte	.LASF1
 355 0033 02       		.uleb128 0x2
 356 0034 02       		.byte	0x2
 357 0035 05       		.byte	0x5
 358 0036 BE010000 		.4byte	.LASF2
 359 003a 02       		.uleb128 0x2
 360 003b 02       		.byte	0x2
 361 003c 07       		.byte	0x7
 362 003d 8C010000 		.4byte	.LASF3
 363 0041 02       		.uleb128 0x2
 364 0042 04       		.byte	0x4
 365 0043 05       		.byte	0x5
 366 0044 7C010000 		.4byte	.LASF4
 367 0048 02       		.uleb128 0x2
 368 0049 04       		.byte	0x4
 369 004a 07       		.byte	0x7
 370 004b 1A010000 		.4byte	.LASF5
 371 004f 02       		.uleb128 0x2
 372 0050 08       		.byte	0x8
 373 0051 05       		.byte	0x5
 374 0052 00000000 		.4byte	.LASF6
 375 0056 02       		.uleb128 0x2
 376 0057 08       		.byte	0x8
 377 0058 07       		.byte	0x7
 378 0059 35010000 		.4byte	.LASF7
 379 005d 03       		.uleb128 0x3
 380 005e 04       		.byte	0x4
 381 005f 05       		.byte	0x5
 382 0060 696E7400 		.ascii	"int\000"
 383 0064 02       		.uleb128 0x2
 384 0065 04       		.byte	0x4
 385 0066 07       		.byte	0x7
 386 0067 0E000000 		.4byte	.LASF8
 387 006b 04       		.uleb128 0x4
 388 006c 14010000 		.4byte	.LASF9
ARM GAS  C:\Users\7709\AppData\Local\Temp\ccDZBoC8.s 			page 9


 389 0070 02       		.byte	0x2
 390 0071 D201     		.2byte	0x1d2
 391 0073 2C000000 		.4byte	0x2c
 392 0077 04       		.uleb128 0x4
 393 0078 C8010000 		.4byte	.LASF10
 394 007c 02       		.byte	0x2
 395 007d D301     		.2byte	0x1d3
 396 007f 3A000000 		.4byte	0x3a
 397 0083 02       		.uleb128 0x2
 398 0084 04       		.byte	0x4
 399 0085 04       		.byte	0x4
 400 0086 54010000 		.4byte	.LASF11
 401 008a 02       		.uleb128 0x2
 402 008b 08       		.byte	0x8
 403 008c 04       		.byte	0x4
 404 008d 85010000 		.4byte	.LASF12
 405 0091 02       		.uleb128 0x2
 406 0092 01       		.byte	0x1
 407 0093 08       		.byte	0x8
 408 0094 77010000 		.4byte	.LASF13
 409 0098 02       		.uleb128 0x2
 410 0099 08       		.byte	0x8
 411 009a 04       		.byte	0x4
 412 009b B2010000 		.4byte	.LASF14
 413 009f 02       		.uleb128 0x2
 414 00a0 04       		.byte	0x4
 415 00a1 07       		.byte	0x7
 416 00a2 CF010000 		.4byte	.LASF15
 417 00a6 05       		.uleb128 0x5
 418 00a7 4C010000 		.4byte	.LASF18
 419 00ab 01       		.byte	0x1
 420 00ac 0D       		.byte	0xd
 421 00ad 5D000000 		.4byte	0x5d
 422 00b1 00000000 		.4byte	.LFB2
 423 00b5 FC000000 		.4byte	.LFE2-.LFB2
 424 00b9 01       		.uleb128 0x1
 425 00ba 9C       		.byte	0x9c
 426 00bb E2000000 		.4byte	0xe2
 427 00bf 06       		.uleb128 0x6
 428 00c0 1B000000 		.4byte	.LASF16
 429 00c4 01       		.byte	0x1
 430 00c5 10       		.byte	0x10
 431 00c6 E2000000 		.4byte	0xe2
 432 00ca 05       		.uleb128 0x5
 433 00cb 03       		.byte	0x3
 434 00cc 00000000 		.4byte	I2CReadBuffer.5568
 435 00d0 06       		.uleb128 0x6
 436 00d1 05010000 		.4byte	.LASF17
 437 00d5 01       		.byte	0x1
 438 00d6 11       		.byte	0x11
 439 00d7 F2000000 		.4byte	0xf2
 440 00db 05       		.uleb128 0x5
 441 00dc 03       		.byte	0x3
 442 00dd 00000000 		.4byte	I2CWriteBuffer.5569
 443 00e1 00       		.byte	0
 444 00e2 07       		.uleb128 0x7
 445 00e3 6B000000 		.4byte	0x6b
ARM GAS  C:\Users\7709\AppData\Local\Temp\ccDZBoC8.s 			page 10


 446 00e7 F2000000 		.4byte	0xf2
 447 00eb 08       		.uleb128 0x8
 448 00ec 9F000000 		.4byte	0x9f
 449 00f0 03       		.byte	0x3
 450 00f1 00       		.byte	0
 451 00f2 07       		.uleb128 0x7
 452 00f3 6B000000 		.4byte	0x6b
 453 00f7 02010000 		.4byte	0x102
 454 00fb 08       		.uleb128 0x8
 455 00fc 9F000000 		.4byte	0x9f
 456 0100 00       		.byte	0
 457 0101 00       		.byte	0
 458 0102 05       		.uleb128 0x5
 459 0103 AB010000 		.4byte	.LASF19
 460 0107 01       		.byte	0x1
 461 0108 2A       		.byte	0x2a
 462 0109 5D000000 		.4byte	0x5d
 463 010d 00000000 		.4byte	.LFB3
 464 0111 D4000000 		.4byte	.LFE3-.LFB3
 465 0115 01       		.uleb128 0x1
 466 0116 9C       		.byte	0x9c
 467 0117 3E010000 		.4byte	0x13e
 468 011b 06       		.uleb128 0x6
 469 011c 1B000000 		.4byte	.LASF16
 470 0120 01       		.byte	0x1
 471 0121 2C       		.byte	0x2c
 472 0122 E2000000 		.4byte	0xe2
 473 0126 05       		.uleb128 0x5
 474 0127 03       		.byte	0x3
 475 0128 04000000 		.4byte	I2CReadBuffer.5578
 476 012c 06       		.uleb128 0x6
 477 012d 05010000 		.4byte	.LASF17
 478 0131 01       		.byte	0x1
 479 0132 2D       		.byte	0x2d
 480 0133 F2000000 		.4byte	0xf2
 481 0137 05       		.uleb128 0x5
 482 0138 03       		.byte	0x3
 483 0139 04000000 		.4byte	I2CWriteBuffer.5579
 484 013d 00       		.byte	0
 485 013e 09       		.uleb128 0x9
 486 013f 555400   		.ascii	"UT\000"
 487 0142 03       		.byte	0x3
 488 0143 17       		.byte	0x17
 489 0144 41000000 		.4byte	0x41
 490 0148 05       		.uleb128 0x5
 491 0149 03       		.byte	0x3
 492 014a 00000000 		.4byte	UT
 493 014e 09       		.uleb128 0x9
 494 014f 554800   		.ascii	"UH\000"
 495 0152 03       		.byte	0x3
 496 0153 17       		.byte	0x17
 497 0154 41000000 		.4byte	0x41
 498 0158 05       		.uleb128 0x5
 499 0159 03       		.byte	0x3
 500 015a 00000000 		.4byte	UH
 501 015e 0A       		.uleb128 0xa
 502 015f 6F010000 		.4byte	.LASF20
ARM GAS  C:\Users\7709\AppData\Local\Temp\ccDZBoC8.s 			page 11


 503 0163 03       		.byte	0x3
 504 0164 18       		.byte	0x18
 505 0165 41000000 		.4byte	0x41
 506 0169 05       		.uleb128 0x5
 507 016a 03       		.byte	0x3
 508 016b 00000000 		.4byte	htutemp
 509 016f 0A       		.uleb128 0xa
 510 0170 5A010000 		.4byte	.LASF21
 511 0174 03       		.byte	0x3
 512 0175 18       		.byte	0x18
 513 0176 41000000 		.4byte	0x41
 514 017a 05       		.uleb128 0x5
 515 017b 03       		.byte	0x3
 516 017c 00000000 		.4byte	htuhum
 517 0180 09       		.uleb128 0x9
 518 0181 68756D00 		.ascii	"hum\000"
 519 0185 03       		.byte	0x3
 520 0186 1F       		.byte	0x1f
 521 0187 83000000 		.4byte	0x83
 522 018b 05       		.uleb128 0x5
 523 018c 03       		.byte	0x3
 524 018d 00000000 		.4byte	hum
 525 0191 0A       		.uleb128 0xa
 526 0192 29000000 		.4byte	.LASF22
 527 0196 03       		.byte	0x3
 528 0197 20       		.byte	0x20
 529 0198 83000000 		.4byte	0x83
 530 019c 05       		.uleb128 0x5
 531 019d 03       		.byte	0x3
 532 019e 00000000 		.4byte	temp
 533 01a2 00       		.byte	0
 534              		.section	.debug_abbrev,"",%progbits
 535              	.Ldebug_abbrev0:
 536 0000 01       		.uleb128 0x1
 537 0001 11       		.uleb128 0x11
 538 0002 01       		.byte	0x1
 539 0003 25       		.uleb128 0x25
 540 0004 0E       		.uleb128 0xe
 541 0005 13       		.uleb128 0x13
 542 0006 0B       		.uleb128 0xb
 543 0007 03       		.uleb128 0x3
 544 0008 0E       		.uleb128 0xe
 545 0009 1B       		.uleb128 0x1b
 546 000a 0E       		.uleb128 0xe
 547 000b 55       		.uleb128 0x55
 548 000c 17       		.uleb128 0x17
 549 000d 11       		.uleb128 0x11
 550 000e 01       		.uleb128 0x1
 551 000f 10       		.uleb128 0x10
 552 0010 17       		.uleb128 0x17
 553 0011 00       		.byte	0
 554 0012 00       		.byte	0
 555 0013 02       		.uleb128 0x2
 556 0014 24       		.uleb128 0x24
 557 0015 00       		.byte	0
 558 0016 0B       		.uleb128 0xb
 559 0017 0B       		.uleb128 0xb
ARM GAS  C:\Users\7709\AppData\Local\Temp\ccDZBoC8.s 			page 12


 560 0018 3E       		.uleb128 0x3e
 561 0019 0B       		.uleb128 0xb
 562 001a 03       		.uleb128 0x3
 563 001b 0E       		.uleb128 0xe
 564 001c 00       		.byte	0
 565 001d 00       		.byte	0
 566 001e 03       		.uleb128 0x3
 567 001f 24       		.uleb128 0x24
 568 0020 00       		.byte	0
 569 0021 0B       		.uleb128 0xb
 570 0022 0B       		.uleb128 0xb
 571 0023 3E       		.uleb128 0x3e
 572 0024 0B       		.uleb128 0xb
 573 0025 03       		.uleb128 0x3
 574 0026 08       		.uleb128 0x8
 575 0027 00       		.byte	0
 576 0028 00       		.byte	0
 577 0029 04       		.uleb128 0x4
 578 002a 16       		.uleb128 0x16
 579 002b 00       		.byte	0
 580 002c 03       		.uleb128 0x3
 581 002d 0E       		.uleb128 0xe
 582 002e 3A       		.uleb128 0x3a
 583 002f 0B       		.uleb128 0xb
 584 0030 3B       		.uleb128 0x3b
 585 0031 05       		.uleb128 0x5
 586 0032 49       		.uleb128 0x49
 587 0033 13       		.uleb128 0x13
 588 0034 00       		.byte	0
 589 0035 00       		.byte	0
 590 0036 05       		.uleb128 0x5
 591 0037 2E       		.uleb128 0x2e
 592 0038 01       		.byte	0x1
 593 0039 3F       		.uleb128 0x3f
 594 003a 19       		.uleb128 0x19
 595 003b 03       		.uleb128 0x3
 596 003c 0E       		.uleb128 0xe
 597 003d 3A       		.uleb128 0x3a
 598 003e 0B       		.uleb128 0xb
 599 003f 3B       		.uleb128 0x3b
 600 0040 0B       		.uleb128 0xb
 601 0041 49       		.uleb128 0x49
 602 0042 13       		.uleb128 0x13
 603 0043 11       		.uleb128 0x11
 604 0044 01       		.uleb128 0x1
 605 0045 12       		.uleb128 0x12
 606 0046 06       		.uleb128 0x6
 607 0047 40       		.uleb128 0x40
 608 0048 18       		.uleb128 0x18
 609 0049 9642     		.uleb128 0x2116
 610 004b 19       		.uleb128 0x19
 611 004c 01       		.uleb128 0x1
 612 004d 13       		.uleb128 0x13
 613 004e 00       		.byte	0
 614 004f 00       		.byte	0
 615 0050 06       		.uleb128 0x6
 616 0051 34       		.uleb128 0x34
ARM GAS  C:\Users\7709\AppData\Local\Temp\ccDZBoC8.s 			page 13


 617 0052 00       		.byte	0
 618 0053 03       		.uleb128 0x3
 619 0054 0E       		.uleb128 0xe
 620 0055 3A       		.uleb128 0x3a
 621 0056 0B       		.uleb128 0xb
 622 0057 3B       		.uleb128 0x3b
 623 0058 0B       		.uleb128 0xb
 624 0059 49       		.uleb128 0x49
 625 005a 13       		.uleb128 0x13
 626 005b 02       		.uleb128 0x2
 627 005c 18       		.uleb128 0x18
 628 005d 00       		.byte	0
 629 005e 00       		.byte	0
 630 005f 07       		.uleb128 0x7
 631 0060 01       		.uleb128 0x1
 632 0061 01       		.byte	0x1
 633 0062 49       		.uleb128 0x49
 634 0063 13       		.uleb128 0x13
 635 0064 01       		.uleb128 0x1
 636 0065 13       		.uleb128 0x13
 637 0066 00       		.byte	0
 638 0067 00       		.byte	0
 639 0068 08       		.uleb128 0x8
 640 0069 21       		.uleb128 0x21
 641 006a 00       		.byte	0
 642 006b 49       		.uleb128 0x49
 643 006c 13       		.uleb128 0x13
 644 006d 2F       		.uleb128 0x2f
 645 006e 0B       		.uleb128 0xb
 646 006f 00       		.byte	0
 647 0070 00       		.byte	0
 648 0071 09       		.uleb128 0x9
 649 0072 34       		.uleb128 0x34
 650 0073 00       		.byte	0
 651 0074 03       		.uleb128 0x3
 652 0075 08       		.uleb128 0x8
 653 0076 3A       		.uleb128 0x3a
 654 0077 0B       		.uleb128 0xb
 655 0078 3B       		.uleb128 0x3b
 656 0079 0B       		.uleb128 0xb
 657 007a 49       		.uleb128 0x49
 658 007b 13       		.uleb128 0x13
 659 007c 3F       		.uleb128 0x3f
 660 007d 19       		.uleb128 0x19
 661 007e 02       		.uleb128 0x2
 662 007f 18       		.uleb128 0x18
 663 0080 00       		.byte	0
 664 0081 00       		.byte	0
 665 0082 0A       		.uleb128 0xa
 666 0083 34       		.uleb128 0x34
 667 0084 00       		.byte	0
 668 0085 03       		.uleb128 0x3
 669 0086 0E       		.uleb128 0xe
 670 0087 3A       		.uleb128 0x3a
 671 0088 0B       		.uleb128 0xb
 672 0089 3B       		.uleb128 0x3b
 673 008a 0B       		.uleb128 0xb
ARM GAS  C:\Users\7709\AppData\Local\Temp\ccDZBoC8.s 			page 14


 674 008b 49       		.uleb128 0x49
 675 008c 13       		.uleb128 0x13
 676 008d 3F       		.uleb128 0x3f
 677 008e 19       		.uleb128 0x19
 678 008f 02       		.uleb128 0x2
 679 0090 18       		.uleb128 0x18
 680 0091 00       		.byte	0
 681 0092 00       		.byte	0
 682 0093 00       		.byte	0
 683              		.section	.debug_aranges,"",%progbits
 684 0000 24000000 		.4byte	0x24
 685 0004 0200     		.2byte	0x2
 686 0006 00000000 		.4byte	.Ldebug_info0
 687 000a 04       		.byte	0x4
 688 000b 00       		.byte	0
 689 000c 0000     		.2byte	0
 690 000e 0000     		.2byte	0
 691 0010 00000000 		.4byte	.LFB2
 692 0014 FC000000 		.4byte	.LFE2-.LFB2
 693 0018 00000000 		.4byte	.LFB3
 694 001c D4000000 		.4byte	.LFE3-.LFB3
 695 0020 00000000 		.4byte	0
 696 0024 00000000 		.4byte	0
 697              		.section	.debug_ranges,"",%progbits
 698              	.Ldebug_ranges0:
 699 0000 00000000 		.4byte	.LFB2
 700 0004 FC000000 		.4byte	.LFE2
 701 0008 00000000 		.4byte	.LFB3
 702 000c D4000000 		.4byte	.LFE3
 703 0010 00000000 		.4byte	0
 704 0014 00000000 		.4byte	0
 705              		.section	.debug_line,"",%progbits
 706              	.Ldebug_line0:
 707 0000 AF000000 		.section	.debug_str,"MS",%progbits,1
 707      02004F00 
 707      00000201 
 707      FB0E0D00 
 707      01010101 
 708              	.LASF6:
 709 0000 6C6F6E67 		.ascii	"long long int\000"
 709      206C6F6E 
 709      6720696E 
 709      7400
 710              	.LASF8:
 711 000e 756E7369 		.ascii	"unsigned int\000"
 711      676E6564 
 711      20696E74 
 711      00
 712              	.LASF16:
 713 001b 49324352 		.ascii	"I2CReadBuffer\000"
 713      65616442 
 713      75666665 
 713      7200
 714              	.LASF22:
 715 0029 74656D70 		.ascii	"temp\000"
 715      00
 716              	.LASF23:
ARM GAS  C:\Users\7709\AppData\Local\Temp\ccDZBoC8.s 			page 15


 717 002e 474E5520 		.ascii	"GNU C11 5.4.1 20160609 (release) [ARM/embedded-5-br"
 717      43313120 
 717      352E342E 
 717      31203230 
 717      31363036 
 718 0061 616E6368 		.ascii	"anch revision 237715] -mcpu=cortex-m0 -mthumb -g -O"
 718      20726576 
 718      6973696F 
 718      6E203233 
 718      37373135 
 719 0094 30202D66 		.ascii	"0 -ffunction-sections -ffat-lto-objects\000"
 719      66756E63 
 719      74696F6E 
 719      2D736563 
 719      74696F6E 
 720              	.LASF25:
 721 00bc 433A5C55 		.ascii	"C:\\Users\\7709\\Desktop\\BLE\\peripheral\\BLE_Peri"
 721      73657273 
 721      5C373730 
 721      395C4465 
 721      736B746F 
 722 00e9 70686572 		.ascii	"pheral\\BLE_Peripheral.cydsn\000"
 722      616C5C42 
 722      4C455F50 
 722      65726970 
 722      68657261 
 723              	.LASF17:
 724 0105 49324357 		.ascii	"I2CWriteBuffer\000"
 724      72697465 
 724      42756666 
 724      657200
 725              	.LASF9:
 726 0114 75696E74 		.ascii	"uint8\000"
 726      3800
 727              	.LASF5:
 728 011a 6C6F6E67 		.ascii	"long unsigned int\000"
 728      20756E73 
 728      69676E65 
 728      6420696E 
 728      7400
 729              	.LASF24:
 730 012c 48545532 		.ascii	"HTU21D.c\000"
 730      31442E63 
 730      00
 731              	.LASF7:
 732 0135 6C6F6E67 		.ascii	"long long unsigned int\000"
 732      206C6F6E 
 732      6720756E 
 732      7369676E 
 732      65642069 
 733              	.LASF18:
 734 014c 67657454 		.ascii	"getTemp\000"
 734      656D7000 
 735              	.LASF11:
 736 0154 666C6F61 		.ascii	"float\000"
 736      7400
 737              	.LASF21:
ARM GAS  C:\Users\7709\AppData\Local\Temp\ccDZBoC8.s 			page 16


 738 015a 68747568 		.ascii	"htuhum\000"
 738      756D00
 739              	.LASF1:
 740 0161 756E7369 		.ascii	"unsigned char\000"
 740      676E6564 
 740      20636861 
 740      7200
 741              	.LASF20:
 742 016f 68747574 		.ascii	"htutemp\000"
 742      656D7000 
 743              	.LASF13:
 744 0177 63686172 		.ascii	"char\000"
 744      00
 745              	.LASF4:
 746 017c 6C6F6E67 		.ascii	"long int\000"
 746      20696E74 
 746      00
 747              	.LASF12:
 748 0185 646F7562 		.ascii	"double\000"
 748      6C6500
 749              	.LASF3:
 750 018c 73686F72 		.ascii	"short unsigned int\000"
 750      7420756E 
 750      7369676E 
 750      65642069 
 750      6E7400
 751              	.LASF0:
 752 019f 7369676E 		.ascii	"signed char\000"
 752      65642063 
 752      68617200 
 753              	.LASF19:
 754 01ab 67657448 		.ascii	"getHum\000"
 754      756D00
 755              	.LASF14:
 756 01b2 6C6F6E67 		.ascii	"long double\000"
 756      20646F75 
 756      626C6500 
 757              	.LASF2:
 758 01be 73686F72 		.ascii	"short int\000"
 758      7420696E 
 758      7400
 759              	.LASF10:
 760 01c8 75696E74 		.ascii	"uint16\000"
 760      313600
 761              	.LASF15:
 762 01cf 73697A65 		.ascii	"sizetype\000"
 762      74797065 
 762      00
 763              		.ident	"GCC: (GNU Tools for ARM Embedded Processors) 5.4.1 20160609 (release) [ARM/embedded-5-bran
