ARM GAS  C:\Users\7709\AppData\Local\Temp\ccnsQQdK.s 			page 1


   1              		.syntax unified
   2              		.cpu cortex-m0
   3              		.fpu softvfp
   4              		.eabi_attribute 20, 1
   5              		.eabi_attribute 21, 1
   6              		.eabi_attribute 23, 3
   7              		.eabi_attribute 24, 1
   8              		.eabi_attribute 25, 1
   9              		.eabi_attribute 26, 1
  10              		.eabi_attribute 30, 6
  11              		.eabi_attribute 34, 0
  12              		.eabi_attribute 18, 4
  13              		.thumb
  14              		.syntax unified
  15              		.file	"HTU21D.c"
  16              		.text
  17              	.Ltext0:
  18              		.cfi_sections	.debug_frame
  19              		.comm	UT,4,4
  20              		.comm	UH,4,4
  21              		.comm	htutemp,4,4
  22              		.comm	htuhum,4,4
  23              		.comm	hum,4,4
  24              		.comm	temp,4,4
  25              		.global	__aeabi_i2f
  26              		.global	__aeabi_f2d
  27              		.global	__aeabi_dmul
  28              		.global	__aeabi_d2f
  29              		.global	__aeabi_fdiv
  30              		.global	__aeabi_dsub
  31              		.global	__aeabi_f2uiz
  32              		.section	.text.getTemp,"ax",%progbits
  33              		.align	2
  34              		.global	getTemp
  35              		.code	16
  36              		.thumb_func
  37              		.type	getTemp, %function
  38              	getTemp:
  39              	.LFB2:
  40              		.file 1 "HTU21D.c"
   1:HTU21D.c      **** /* ========================================
   2:HTU21D.c      ****  *
   3:HTU21D.c      ****  * HTU21D Sensor 
   4:HTU21D.c      ****  *  I2C interface communication
   5:HTU21D.c      **** 
   6:HTU21D.c      ****  * ========================================
   7:HTU21D.c      **** */
   8:HTU21D.c      **** 
   9:HTU21D.c      **** #include "htu21d.h"
  10:HTU21D.c      **** #include "I2C_1.h"
  11:HTU21D.c      **** 
  12:HTU21D.c      **** 
  13:HTU21D.c      **** int getTemp(){
  41              		.loc 1 13 0
  42              		.cfi_startproc
  43              		@ args = 0, pretend = 0, frame = 0
  44              		@ frame_needed = 1, uses_anonymous_args = 0
ARM GAS  C:\Users\7709\AppData\Local\Temp\ccnsQQdK.s 			page 2


  45 0000 B0B5     		push	{r4, r5, r7, lr}
  46              		.cfi_def_cfa_offset 16
  47              		.cfi_offset 4, -16
  48              		.cfi_offset 5, -12
  49              		.cfi_offset 7, -8
  50              		.cfi_offset 14, -4
  51 0002 00AF     		add	r7, sp, #0
  52              		.cfi_def_cfa_register 7
  14:HTU21D.c      ****     static uint8 softreset[0x01]={0xfe}; // Soft reset code
  15:HTU21D.c      ****     static uint8 I2CReadBuffer[0x04]; //The uncompensated temperature read from the sensor is store
  16:HTU21D.c      ****     static uint8 I2CWriteBuffer[0x01] = {0xE3}; //Command for temperature conversion - Register add
  17:HTU21D.c      ****     static uint8 SetReadAddressBuffer[0x01] = {0x40}; //Register address from which the data is rea
  18:HTU21D.c      ****     //CyDelay(15);
  19:HTU21D.c      ****     /* Do a write operation with the memory address bytes to get temperature data */
  20:HTU21D.c      **** 	I2C_1_I2CMasterWriteBuf(DEVICEADDRESS, (uint8 *) I2CWriteBuffer, sizeof(I2CWriteBuffer), I2C_I2C_M
  53              		.loc 1 20 0
  54 0004 3449     		ldr	r1, .L5
  55 0006 0023     		movs	r3, #0
  56 0008 0122     		movs	r2, #1
  57 000a 4020     		movs	r0, #64
  58 000c FFF7FEFF 		bl	I2C_1_I2CMasterWriteBuf
  21:HTU21D.c      ****     while(!(I2C_1_I2CMasterStatus() & I2C_I2C_MSTAT_WR_CMPLT)); //Wait till the master completes wr
  59              		.loc 1 21 0
  60 0010 C046     		nop
  61              	.L2:
  62              		.loc 1 21 0 is_stmt 0 discriminator 1
  63 0012 FFF7FEFF 		bl	I2C_1_I2CMasterStatus
  64 0016 0200     		movs	r2, r0
  65 0018 0223     		movs	r3, #2
  66 001a 1340     		ands	r3, r2
  67 001c F9D0     		beq	.L2
  22:HTU21D.c      ****     I2C_1_I2CMasterClearStatus(); //Clear I2C master status
  68              		.loc 1 22 0 is_stmt 1
  69 001e FFF7FEFF 		bl	I2C_1_I2CMasterClearStatus
  23:HTU21D.c      ****     
  24:HTU21D.c      ****     CyDelay(5); //Wait for 5ms temperature conversion
  70              		.loc 1 24 0
  71 0022 0520     		movs	r0, #5
  72 0024 FFF7FEFF 		bl	CyDelay
  25:HTU21D.c      ****  
  26:HTU21D.c      ****     /* Read temperature from the sensor and store it in a buffer */
  27:HTU21D.c      **** 	I2C_1_I2CMasterReadBuf(DEVICEADDRESS, (uint8 *) I2CReadBuffer, sizeof(I2CReadBuffer), I2C_I2C_MODE
  73              		.loc 1 27 0
  74 0028 2C49     		ldr	r1, .L5+4
  75 002a 0023     		movs	r3, #0
  76 002c 0422     		movs	r2, #4
  77 002e 4020     		movs	r0, #64
  78 0030 FFF7FEFF 		bl	I2C_1_I2CMasterReadBuf
  28:HTU21D.c      ****     while(!(I2C_1_I2CMasterStatus() & I2C_I2C_MSTAT_RD_CMPLT)); //Wait till the master completes re
  79              		.loc 1 28 0
  80 0034 C046     		nop
  81              	.L3:
  82              		.loc 1 28 0 is_stmt 0 discriminator 1
  83 0036 FFF7FEFF 		bl	I2C_1_I2CMasterStatus
  84 003a 0200     		movs	r2, r0
  85 003c 0123     		movs	r3, #1
  86 003e 1340     		ands	r3, r2
ARM GAS  C:\Users\7709\AppData\Local\Temp\ccnsQQdK.s 			page 3


  87 0040 F9D0     		beq	.L3
  29:HTU21D.c      ****     I2C_1_I2CMasterClearStatus(); //Clear I2C master status
  88              		.loc 1 29 0 is_stmt 1
  89 0042 FFF7FEFF 		bl	I2C_1_I2CMasterClearStatus
  30:HTU21D.c      ****     
  31:HTU21D.c      **** 	UT = (I2CReadBuffer[0x00] << 0x08) | I2CReadBuffer[0x01]; //Return uncompensated temperature value
  90              		.loc 1 31 0
  91 0046 254B     		ldr	r3, .L5+4
  92 0048 1B78     		ldrb	r3, [r3]
  93 004a 1B02     		lsls	r3, r3, #8
  94 004c 234A     		ldr	r2, .L5+4
  95 004e 5278     		ldrb	r2, [r2, #1]
  96 0050 1A43     		orrs	r2, r3
  97 0052 234B     		ldr	r3, .L5+8
  98 0054 1A60     		str	r2, [r3]
  32:HTU21D.c      ****     
  33:HTU21D.c      ****                             // Conversion //
  34:HTU21D.c      ****     temp=UT;
  99              		.loc 1 34 0
 100 0056 224B     		ldr	r3, .L5+8
 101 0058 1B68     		ldr	r3, [r3]
 102 005a 1800     		movs	r0, r3
 103 005c FFF7FEFF 		bl	__aeabi_i2f
 104 0060 021C     		adds	r2, r0, #0
 105 0062 204B     		ldr	r3, .L5+12
 106 0064 1A60     		str	r2, [r3]
  35:HTU21D.c      ****     temp *= 175.72;
 107              		.loc 1 35 0
 108 0066 1F4B     		ldr	r3, .L5+12
 109 0068 1B68     		ldr	r3, [r3]
 110 006a 181C     		adds	r0, r3, #0
 111 006c FFF7FEFF 		bl	__aeabi_f2d
 112 0070 1D4A     		ldr	r2, .L5+16
 113 0072 1E4B     		ldr	r3, .L5+20
 114 0074 FFF7FEFF 		bl	__aeabi_dmul
 115 0078 0300     		movs	r3, r0
 116 007a 0C00     		movs	r4, r1
 117 007c 1800     		movs	r0, r3
 118 007e 2100     		movs	r1, r4
 119 0080 FFF7FEFF 		bl	__aeabi_d2f
 120 0084 021C     		adds	r2, r0, #0
 121 0086 174B     		ldr	r3, .L5+12
 122 0088 1A60     		str	r2, [r3]
  36:HTU21D.c      ****     temp /= 65536;
 123              		.loc 1 36 0
 124 008a 164B     		ldr	r3, .L5+12
 125 008c 1B68     		ldr	r3, [r3]
 126 008e 8F21     		movs	r1, #143
 127 0090 C905     		lsls	r1, r1, #23
 128 0092 181C     		adds	r0, r3, #0
 129 0094 FFF7FEFF 		bl	__aeabi_fdiv
 130 0098 031C     		adds	r3, r0, #0
 131 009a 1A1C     		adds	r2, r3, #0
 132 009c 114B     		ldr	r3, .L5+12
 133 009e 1A60     		str	r2, [r3]
  37:HTU21D.c      ****     temp -= 46.85;
 134              		.loc 1 37 0
ARM GAS  C:\Users\7709\AppData\Local\Temp\ccnsQQdK.s 			page 4


 135 00a0 104B     		ldr	r3, .L5+12
 136 00a2 1B68     		ldr	r3, [r3]
 137 00a4 181C     		adds	r0, r3, #0
 138 00a6 FFF7FEFF 		bl	__aeabi_f2d
 139 00aa 114A     		ldr	r2, .L5+24
 140 00ac 114B     		ldr	r3, .L5+28
 141 00ae FFF7FEFF 		bl	__aeabi_dsub
 142 00b2 0300     		movs	r3, r0
 143 00b4 0C00     		movs	r4, r1
 144 00b6 1800     		movs	r0, r3
 145 00b8 2100     		movs	r1, r4
 146 00ba FFF7FEFF 		bl	__aeabi_d2f
 147 00be 021C     		adds	r2, r0, #0
 148 00c0 084B     		ldr	r3, .L5+12
 149 00c2 1A60     		str	r2, [r3]
  38:HTU21D.c      ****     return (uint8)temp;
 150              		.loc 1 38 0
 151 00c4 074B     		ldr	r3, .L5+12
 152 00c6 1B68     		ldr	r3, [r3]
 153 00c8 181C     		adds	r0, r3, #0
 154 00ca FFF7FEFF 		bl	__aeabi_f2uiz
 155 00ce 0300     		movs	r3, r0
 156 00d0 DBB2     		uxtb	r3, r3
  39:HTU21D.c      **** }
 157              		.loc 1 39 0
 158 00d2 1800     		movs	r0, r3
 159 00d4 BD46     		mov	sp, r7
 160              		@ sp needed
 161 00d6 B0BD     		pop	{r4, r5, r7, pc}
 162              	.L6:
 163              		.align	2
 164              	.L5:
 165 00d8 00000000 		.word	I2CWriteBuffer.5570
 166 00dc 00000000 		.word	I2CReadBuffer.5569
 167 00e0 00000000 		.word	UT
 168 00e4 00000000 		.word	temp
 169 00e8 D7A3703D 		.word	1030792151
 170 00ec 0AF76540 		.word	1080424202
 171 00f0 CDCCCCCC 		.word	-858993459
 172 00f4 CC6C4740 		.word	1078422732
 173              		.cfi_endproc
 174              	.LFE2:
 175              		.size	getTemp, .-getTemp
 176              		.global	__aeabi_fmul
 177              		.global	__aeabi_fsub
 178              		.section	.text.getHum,"ax",%progbits
 179              		.align	2
 180              		.global	getHum
 181              		.code	16
 182              		.thumb_func
 183              		.type	getHum, %function
 184              	getHum:
 185              	.LFB3:
  40:HTU21D.c      **** 
  41:HTU21D.c      **** int getHum(){
 186              		.loc 1 41 0
 187              		.cfi_startproc
ARM GAS  C:\Users\7709\AppData\Local\Temp\ccnsQQdK.s 			page 5


 188              		@ args = 0, pretend = 0, frame = 0
 189              		@ frame_needed = 1, uses_anonymous_args = 0
 190 0000 80B5     		push	{r7, lr}
 191              		.cfi_def_cfa_offset 8
 192              		.cfi_offset 7, -8
 193              		.cfi_offset 14, -4
 194 0002 00AF     		add	r7, sp, #0
 195              		.cfi_def_cfa_register 7
  42:HTU21D.c      ****     
  43:HTU21D.c      ****     static uint8 I2CReadBuffer[0x04]; //The uncompensated humidity read from the sensor is stored h
  44:HTU21D.c      ****     static uint8 I2CWriteBuffer[0x01] = {0xE5}; //Command for hui conversion - Register address and
  45:HTU21D.c      ****     static uint8 SetReadAddressBuffer[0x01] = {0x40}; //Register address from which the data is rea
  46:HTU21D.c      ****     
  47:HTU21D.c      ****     /* Do a write operation with the memory address bytes to get humidity data */
  48:HTU21D.c      **** 	I2C_1_I2CMasterWriteBuf(DEVICEADDRESS, (uint8 *) I2CWriteBuffer, sizeof(I2CWriteBuffer), I2C_I2C_M
 196              		.loc 1 48 0
 197 0004 2C49     		ldr	r1, .L11
 198 0006 0023     		movs	r3, #0
 199 0008 0122     		movs	r2, #1
 200 000a 4020     		movs	r0, #64
 201 000c FFF7FEFF 		bl	I2C_1_I2CMasterWriteBuf
  49:HTU21D.c      ****     while(!(I2C_1_I2CMasterStatus() & I2C_I2C_MSTAT_WR_CMPLT)); //Wait till the master completes wr
 202              		.loc 1 49 0
 203 0010 C046     		nop
 204              	.L8:
 205              		.loc 1 49 0 is_stmt 0 discriminator 1
 206 0012 FFF7FEFF 		bl	I2C_1_I2CMasterStatus
 207 0016 0200     		movs	r2, r0
 208 0018 0223     		movs	r3, #2
 209 001a 1340     		ands	r3, r2
 210 001c F9D0     		beq	.L8
  50:HTU21D.c      ****     I2C_1_I2CMasterClearStatus(); //Clear I2C master status
 211              		.loc 1 50 0 is_stmt 1
 212 001e FFF7FEFF 		bl	I2C_1_I2CMasterClearStatus
  51:HTU21D.c      ****     
  52:HTU21D.c      ****     CyDelay(5); //Wait for 5ms huidity conversion
 213              		.loc 1 52 0
 214 0022 0520     		movs	r0, #5
 215 0024 FFF7FEFF 		bl	CyDelay
  53:HTU21D.c      ****     
  54:HTU21D.c      ****     /* Read pressure from the sensor and store it in a buffer */
  55:HTU21D.c      **** 	I2C_1_I2CMasterReadBuf(DEVICEADDRESS, (uint8 *) I2CReadBuffer, sizeof(I2CReadBuffer), I2C_I2C_MODE
 216              		.loc 1 55 0
 217 0028 2449     		ldr	r1, .L11+4
 218 002a 0023     		movs	r3, #0
 219 002c 0422     		movs	r2, #4
 220 002e 4020     		movs	r0, #64
 221 0030 FFF7FEFF 		bl	I2C_1_I2CMasterReadBuf
  56:HTU21D.c      ****     while(!(I2C_1_I2CMasterStatus() & I2C_I2C_MSTAT_RD_CMPLT)); //Wait till the master completes re
 222              		.loc 1 56 0
 223 0034 C046     		nop
 224              	.L9:
 225              		.loc 1 56 0 is_stmt 0 discriminator 1
 226 0036 FFF7FEFF 		bl	I2C_1_I2CMasterStatus
 227 003a 0200     		movs	r2, r0
 228 003c 0123     		movs	r3, #1
 229 003e 1340     		ands	r3, r2
ARM GAS  C:\Users\7709\AppData\Local\Temp\ccnsQQdK.s 			page 6


 230 0040 F9D0     		beq	.L9
  57:HTU21D.c      ****     I2C_1_I2CMasterClearStatus(); //Clear I2C master status
 231              		.loc 1 57 0 is_stmt 1
 232 0042 FFF7FEFF 		bl	I2C_1_I2CMasterClearStatus
  58:HTU21D.c      **** 	UH =  (I2CReadBuffer[0x00] << 0x08) | I2CReadBuffer[0x01]; //Return uncompensated HUM value
 233              		.loc 1 58 0
 234 0046 1D4B     		ldr	r3, .L11+4
 235 0048 1B78     		ldrb	r3, [r3]
 236 004a 1B02     		lsls	r3, r3, #8
 237 004c 1B4A     		ldr	r2, .L11+4
 238 004e 5278     		ldrb	r2, [r2, #1]
 239 0050 1A43     		orrs	r2, r3
 240 0052 1B4B     		ldr	r3, .L11+8
 241 0054 1A60     		str	r2, [r3]
  59:HTU21D.c      ****     
  60:HTU21D.c      ****                         // Conversion //
  61:HTU21D.c      ****     hum = UH;
 242              		.loc 1 61 0
 243 0056 1A4B     		ldr	r3, .L11+8
 244 0058 1B68     		ldr	r3, [r3]
 245 005a 1800     		movs	r0, r3
 246 005c FFF7FEFF 		bl	__aeabi_i2f
 247 0060 021C     		adds	r2, r0, #0
 248 0062 184B     		ldr	r3, .L11+12
 249 0064 1A60     		str	r2, [r3]
  62:HTU21D.c      ****     hum *= 125;
 250              		.loc 1 62 0
 251 0066 174B     		ldr	r3, .L11+12
 252 0068 1B68     		ldr	r3, [r3]
 253 006a 1749     		ldr	r1, .L11+16
 254 006c 181C     		adds	r0, r3, #0
 255 006e FFF7FEFF 		bl	__aeabi_fmul
 256 0072 031C     		adds	r3, r0, #0
 257 0074 1A1C     		adds	r2, r3, #0
 258 0076 134B     		ldr	r3, .L11+12
 259 0078 1A60     		str	r2, [r3]
  63:HTU21D.c      ****     hum /= 65536;
 260              		.loc 1 63 0
 261 007a 124B     		ldr	r3, .L11+12
 262 007c 1B68     		ldr	r3, [r3]
 263 007e 8F21     		movs	r1, #143
 264 0080 C905     		lsls	r1, r1, #23
 265 0082 181C     		adds	r0, r3, #0
 266 0084 FFF7FEFF 		bl	__aeabi_fdiv
 267 0088 031C     		adds	r3, r0, #0
 268 008a 1A1C     		adds	r2, r3, #0
 269 008c 0D4B     		ldr	r3, .L11+12
 270 008e 1A60     		str	r2, [r3]
  64:HTU21D.c      ****     hum -= 6;
 271              		.loc 1 64 0
 272 0090 0C4B     		ldr	r3, .L11+12
 273 0092 1B68     		ldr	r3, [r3]
 274 0094 0D49     		ldr	r1, .L11+20
 275 0096 181C     		adds	r0, r3, #0
 276 0098 FFF7FEFF 		bl	__aeabi_fsub
 277 009c 031C     		adds	r3, r0, #0
 278 009e 1A1C     		adds	r2, r3, #0
ARM GAS  C:\Users\7709\AppData\Local\Temp\ccnsQQdK.s 			page 7


 279 00a0 084B     		ldr	r3, .L11+12
 280 00a2 1A60     		str	r2, [r3]
  65:HTU21D.c      ****     
  66:HTU21D.c      ****     return (uint8)hum;
 281              		.loc 1 66 0
 282 00a4 074B     		ldr	r3, .L11+12
 283 00a6 1B68     		ldr	r3, [r3]
 284 00a8 181C     		adds	r0, r3, #0
 285 00aa FFF7FEFF 		bl	__aeabi_f2uiz
 286 00ae 0300     		movs	r3, r0
 287 00b0 DBB2     		uxtb	r3, r3
  67:HTU21D.c      **** }
 288              		.loc 1 67 0
 289 00b2 1800     		movs	r0, r3
 290 00b4 BD46     		mov	sp, r7
 291              		@ sp needed
 292 00b6 80BD     		pop	{r7, pc}
 293              	.L12:
 294              		.align	2
 295              	.L11:
 296 00b8 0C000000 		.word	I2CWriteBuffer.5581
 297 00bc 04000000 		.word	I2CReadBuffer.5580
 298 00c0 00000000 		.word	UH
 299 00c4 00000000 		.word	hum
 300 00c8 0000FA42 		.word	1123680256
 301 00cc 0000C040 		.word	1086324736
 302              		.cfi_endproc
 303              	.LFE3:
 304              		.size	getHum, .-getHum
 305              		.data
 306              		.align	2
 307              		.type	I2CWriteBuffer.5570, %object
 308              		.size	I2CWriteBuffer.5570, 1
 309              	I2CWriteBuffer.5570:
 310 0000 E3       		.byte	-29
 311              		.bss
 312              		.align	2
 313              	I2CReadBuffer.5569:
 314 0000 00000000 		.space	4
 315              		.data
 316 0001 000000   		.align	2
 317              		.type	SetReadAddressBuffer.5571, %object
 318              		.size	SetReadAddressBuffer.5571, 1
 319              	SetReadAddressBuffer.5571:
 320 0004 40       		.byte	64
 321 0005 000000   		.align	2
 322              		.type	softreset.5568, %object
 323              		.size	softreset.5568, 1
 324              	softreset.5568:
 325 0008 FE       		.byte	-2
 326 0009 000000   		.align	2
 327              		.type	I2CWriteBuffer.5581, %object
 328              		.size	I2CWriteBuffer.5581, 1
 329              	I2CWriteBuffer.5581:
 330 000c E5       		.byte	-27
 331              		.bss
 332              		.align	2
ARM GAS  C:\Users\7709\AppData\Local\Temp\ccnsQQdK.s 			page 8


 333              	I2CReadBuffer.5580:
 334 0004 00000000 		.space	4
 335              		.data
 336 000d 000000   		.align	2
 337              		.type	SetReadAddressBuffer.5582, %object
 338              		.size	SetReadAddressBuffer.5582, 1
 339              	SetReadAddressBuffer.5582:
 340 0010 40       		.byte	64
 341              		.text
 342              	.Letext0:
 343              		.file 2 "Generated_Source\\PSoC4/cytypes.h"
 344              		.file 3 "htu21d.h"