ARM GAS  C:\Users\7709\AppData\Local\Temp\cct2hrjn.s 			page 1


   1              		.syntax unified
   2              		.cpu cortex-m0
   3              		.fpu softvfp
   4              		.eabi_attribute 20, 1
   5              		.eabi_attribute 21, 1
   6              		.eabi_attribute 23, 3
   7              		.eabi_attribute 24, 1
   8              		.eabi_attribute 25, 1
   9              		.eabi_attribute 26, 1
  10              		.eabi_attribute 30, 6
  11              		.eabi_attribute 34, 0
  12              		.eabi_attribute 18, 4
  13              		.thumb
  14              		.syntax unified
  15              		.file	"main.c"
  16              		.text
  17              	.Ltext0:
  18              		.cfi_sections	.debug_frame
  19              		.comm	UT,4,4
  20              		.comm	UH,4,4
  21              		.comm	htutemp,4,4
  22              		.comm	htuhum,4,4
  23              		.comm	hum,4,4
  24              		.comm	temp,4,4
  25              		.comm	UT280,4,4
  26              		.comm	UH280,4,4
  27              		.comm	UP280,4,4
  28              		.comm	temp280,4,4
  29              		.comm	hum280,4,4
  30              		.comm	press280,4,4
  31              		.comm	timeToSleep,4,4
  32              		.comm	ciclos,1,1
  33              		.comm	bleApiResult,2,2
  34              		.comm	count,1,1
  35              		.comm	buffer,6,4
  36              		.comm	api,4,4
  37              		.comm	flag,4,4
  38              		.comm	lasTemp,1,1
  39              		.comm	lastHum,1,1
  40              		.comm	sameHum,1,1
  41              		.comm	sameTemp,1,1
  42              		.comm	sensor,7,4
  43              		.comm	mode,1,1
  44              		.section	.text.main,"ax",%progbits
  45              		.align	2
  46              		.global	main
  47              		.code	16
  48              		.thumb_func
  49              		.type	main, %function
  50              	main:
  51              	.LFB36:
  52              		.file 1 "main.c"
   1:main.c        **** /*******************************************************************************
   2:main.c        **** * File Name: main.c
   3:main.c        **** *
   4:main.c        **** * Version: 1.0
   5:main.c        **** *
ARM GAS  C:\Users\7709\AppData\Local\Temp\cct2hrjn.s 			page 2


   6:main.c        **** * Description:
   7:main.c        **** * Works as the slave(periferical) sensor, connects with the master(server);
   8:main.c        **** * based on example code from cypress -Project 20
   9:main.c        **** *
  10:main.c        **** *******************************************************************************/
  11:main.c        **** 
  12:main.c        **** #include "main.h"
  13:main.c        **** #include "stdio.h"
  14:main.c        **** 
  15:main.c        **** 
  16:main.c        **** int main()
  17:main.c        **** {      
  53              		.loc 1 17 0
  54              		.cfi_startproc
  55              		@ args = 0, pretend = 0, frame = 0
  56              		@ frame_needed = 1, uses_anonymous_args = 0
  57 0000 80B5     		push	{r7, lr}
  58              		.cfi_def_cfa_offset 8
  59              		.cfi_offset 7, -8
  60              		.cfi_offset 14, -4
  61 0002 00AF     		add	r7, sp, #0
  62              		.cfi_def_cfa_register 7
  18:main.c        **** 
  19:main.c        ****     init_globalVariables();
  63              		.loc 1 19 0
  64 0004 FFF7FEFF 		bl	init_globalVariables
  20:main.c        ****     global_int();
  65              		.loc 1 20 0
  66 0008 FFF7FEFF 		bl	global_int
  21:main.c        ****     start();
  67              		.loc 1 21 0
  68 000c FFF7FEFF 		bl	start
  22:main.c        ****   //  startBLE();
  23:main.c        ****     startBLE();
  69              		.loc 1 23 0
  70 0010 FFF7FEFF 		bl	startBLE
  71              	.L2:
  24:main.c        ****     while(1){
  25:main.c        ****         
  26:main.c        ****         
  27:main.c        ****         HandleBleProcessing();
  72              		.loc 1 27 0 discriminator 1
  73 0014 FFF7FEFF 		bl	HandleBleProcessing
  28:main.c        ****          CyBle_ProcessEvents();
  74              		.loc 1 28 0 discriminator 1
  75 0018 FFF7FEFF 		bl	CyBle_ProcessEvents
  29:main.c        ****         CyDelay(500);       //diabolico! testar com 100 e 200 e verifcar adver
  76              		.loc 1 29 0 discriminator 1
  77 001c FA23     		movs	r3, #250
  78 001e 5B00     		lsls	r3, r3, #1
  79 0020 1800     		movs	r0, r3
  80 0022 FFF7FEFF 		bl	CyDelay
  30:main.c        **** 
  31:main.c        ****         state_machine();
  81              		.loc 1 31 0 discriminator 1
  82 0026 FFF7FEFF 		bl	state_machine
  32:main.c        **** 
ARM GAS  C:\Users\7709\AppData\Local\Temp\cct2hrjn.s 			page 3


  33:main.c        ****     }
  83              		.loc 1 33 0 discriminator 1
  84 002a F3E7     		b	.L2
  85              		.cfi_endproc
  86              	.LFE36:
  87              		.size	main, .-main
  88              		.section	.rodata
  89              		.align	2
  90              	.LC1:
  91 0000 0A0D2053 		.ascii	"\012\015 START  \012\015 \000"
  91      54415254 
  91      20200A0D 
  91      2000
  92              		.section	.text.state_machine,"ax",%progbits
  93              		.align	2
  94              		.global	state_machine
  95              		.code	16
  96              		.thumb_func
  97              		.type	state_machine, %function
  98              	state_machine:
  99              	.LFB37:
  34:main.c        **** }
  35:main.c        ****     
  36:main.c        **** 
  37:main.c        **** // State machine allows to read the sensors, set the ble component and send data to the periferical
  38:main.c        **** 
  39:main.c        **** void state_machine(){ 
 100              		.loc 1 39 0
 101              		.cfi_startproc
 102              		@ args = 0, pretend = 0, frame = 0
 103              		@ frame_needed = 1, uses_anonymous_args = 0
 104 0000 80B5     		push	{r7, lr}
 105              		.cfi_def_cfa_offset 8
 106              		.cfi_offset 7, -8
 107              		.cfi_offset 14, -4
 108 0002 00AF     		add	r7, sp, #0
 109              		.cfi_def_cfa_register 7
  40:main.c        ****     
  41:main.c        ****      switch(mode){
 110              		.loc 1 41 0
 111 0004 274B     		ldr	r3, .L11
 112 0006 1B78     		ldrb	r3, [r3]
 113 0008 012B     		cmp	r3, #1
 114 000a 17D0     		beq	.L5
 115 000c 02DC     		bgt	.L6
 116 000e 002B     		cmp	r3, #0
 117 0010 05D0     		beq	.L7
 118 0012 3FE0     		b	.L4
 119              	.L6:
 120 0014 022B     		cmp	r3, #2
 121 0016 25D0     		beq	.L8
 122 0018 042B     		cmp	r3, #4
 123 001a 35D0     		beq	.L9
 124 001c 3AE0     		b	.L4
 125              	.L7:
  42:main.c        ****                
  43:main.c        ****      case START:
ARM GAS  C:\Users\7709\AppData\Local\Temp\cct2hrjn.s 			page 4


  44:main.c        ****         // init interrupts
  45:main.c        ****        //start();
  46:main.c        ****         global_int();
 126              		.loc 1 46 0
 127 001e FFF7FEFF 		bl	global_int
  47:main.c        ****         UART_UartPutString("\n\r START  \n\r ");
 128              		.loc 1 47 0
 129 0022 214B     		ldr	r3, .L11+4
 130 0024 1800     		movs	r0, r3
 131 0026 FFF7FEFF 		bl	UART_UartPutString
  48:main.c        ****         
  49:main.c        ****         CyDelay(500);
 132              		.loc 1 49 0
 133 002a FA23     		movs	r3, #250
 134 002c 5B00     		lsls	r3, r3, #1
 135 002e 1800     		movs	r0, r3
 136 0030 FFF7FEFF 		bl	CyDelay
  50:main.c        ****         
  51:main.c        ****         mode=SENSOR_PACKET;
 137              		.loc 1 51 0
 138 0034 1B4B     		ldr	r3, .L11
 139 0036 0122     		movs	r2, #1
 140 0038 1A70     		strb	r2, [r3]
  52:main.c        ****         break;
 141              		.loc 1 52 0
 142 003a 2FE0     		b	.L10
 143              	.L5:
  53:main.c        ****         
  54:main.c        ****      case SENSOR_PACKET:
  55:main.c        ****         
  56:main.c        ****         #ifdef PRINT_MESSAGE_LOG   
  57:main.c        ****             UART_UartPutString("\n\r SENSOR \n\r ");     
  58:main.c        ****         #endif
  59:main.c        ****         output_pin_3_Write(1);
 144              		.loc 1 59 0
 145 003c 0120     		movs	r0, #1
 146 003e FFF7FEFF 		bl	output_pin_3_Write
  60:main.c        ****         CyDelay(5);
 147              		.loc 1 60 0
 148 0042 0520     		movs	r0, #5
 149 0044 FFF7FEFF 		bl	CyDelay
  61:main.c        ****         createPacket();
 150              		.loc 1 61 0
 151 0048 FFF7FEFF 		bl	createPacket
  62:main.c        ****         I2C_1_Stop();
 152              		.loc 1 62 0
 153 004c FFF7FEFF 		bl	I2C_1_Stop
  63:main.c        ****         CyDelay(15);
 154              		.loc 1 63 0
 155 0050 0F20     		movs	r0, #15
 156 0052 FFF7FEFF 		bl	CyDelay
  64:main.c        ****         output_pin_3_Write(0);
 157              		.loc 1 64 0
 158 0056 0020     		movs	r0, #0
 159 0058 FFF7FEFF 		bl	output_pin_3_Write
  65:main.c        **** 
  66:main.c        ****         mode=TX;
ARM GAS  C:\Users\7709\AppData\Local\Temp\cct2hrjn.s 			page 5


 160              		.loc 1 66 0
 161 005c 114B     		ldr	r3, .L11
 162 005e 0222     		movs	r2, #2
 163 0060 1A70     		strb	r2, [r3]
  67:main.c        ****         break;
 164              		.loc 1 67 0
 165 0062 1BE0     		b	.L10
 166              	.L8:
  68:main.c        ****         
  69:main.c        ****      case TX:
  70:main.c        ****         output_pin_1_Write(1);
 167              		.loc 1 70 0
 168 0064 0120     		movs	r0, #1
 169 0066 FFF7FEFF 		bl	output_pin_1_Write
  71:main.c        ****         CyDelay(5);
 170              		.loc 1 71 0
 171 006a 0520     		movs	r0, #5
 172 006c FFF7FEFF 		bl	CyDelay
  72:main.c        ****         tx();
 173              		.loc 1 72 0
 174 0070 FFF7FEFF 		bl	tx
  73:main.c        ****         CyDelay(15);
 175              		.loc 1 73 0
 176 0074 0F20     		movs	r0, #15
 177 0076 FFF7FEFF 		bl	CyDelay
  74:main.c        ****         output_pin_1_Write(0);
 178              		.loc 1 74 0
 179 007a 0020     		movs	r0, #0
 180 007c FFF7FEFF 		bl	output_pin_1_Write
  75:main.c        ****         
  76:main.c        ****         #ifdef PRINT_MESSAGE_LOG   
  77:main.c        ****         UART_UartPutString("\n\r  TX  \n\r ");
  78:main.c        ****         #endif
  79:main.c        **** 
  80:main.c        ****         mode=SLEEP;
 181              		.loc 1 80 0
 182 0080 084B     		ldr	r3, .L11
 183 0082 0422     		movs	r2, #4
 184 0084 1A70     		strb	r2, [r3]
  81:main.c        ****         break;
 185              		.loc 1 81 0
 186 0086 09E0     		b	.L10
 187              	.L9:
  82:main.c        **** 
  83:main.c        ****      case SLEEP:
  84:main.c        ****         {
  85:main.c        ****             //go to sleep mode untill next time to operate! 
  86:main.c        ****             //check sleep time functions
  87:main.c        ****           // char cc;
  88:main.c        ****             
  89:main.c        ****     //        cc=UART_UartGetChar();
  90:main.c        ****     //        if(cc=='s'){
  91:main.c        ****             //sleep_ble();
  92:main.c        ****           
  93:main.c        ****         //    output_pin_2_Write(1);    
  94:main.c        ****             deep_sleep_ble();
 188              		.loc 1 94 0
ARM GAS  C:\Users\7709\AppData\Local\Temp\cct2hrjn.s 			page 6


 189 0088 FFF7FEFF 		bl	deep_sleep_ble
  95:main.c        ****          //   output_pin_2_Write(0);
  96:main.c        ****             
  97:main.c        ****             #ifdef PRINT_MESSAGE_LOG   
  98:main.c        ****                 UART_UartPutString("\n\r After sleep mode \n\r ");
  99:main.c        ****             #endif
 100:main.c        ****             
 101:main.c        ****             mode=START;
 190              		.loc 1 101 0
 191 008c 054B     		ldr	r3, .L11
 192 008e 0022     		movs	r2, #0
 193 0090 1A70     		strb	r2, [r3]
 102:main.c        ****         }
 103:main.c        ****         break;
 194              		.loc 1 103 0
 195 0092 03E0     		b	.L10
 196              	.L4:
 104:main.c        ****      
 105:main.c        ****      default:
 106:main.c        ****         #ifdef PRINT_MESSAGE_LOG   
 107:main.c        ****         UART_UartPutString("\n\r DEGUB-> Blocked in DEFAULD Switch modes");
 108:main.c        ****         #endif
 109:main.c        ****         mode=START;
 197              		.loc 1 109 0
 198 0094 034B     		ldr	r3, .L11
 199 0096 0022     		movs	r2, #0
 200 0098 1A70     		strb	r2, [r3]
 110:main.c        ****         break;
 201              		.loc 1 110 0
 202 009a C046     		nop
 203              	.L10:
 111:main.c        ****     }
 112:main.c        **** }
 204              		.loc 1 112 0
 205 009c C046     		nop
 206 009e BD46     		mov	sp, r7
 207              		@ sp needed
 208 00a0 80BD     		pop	{r7, pc}
 209              	.L12:
 210 00a2 C046     		.align	2
 211              	.L11:
 212 00a4 00000000 		.word	mode
 213 00a8 00000000 		.word	.LC1
 214              		.cfi_endproc
 215              	.LFE37:
 216              		.size	state_machine, .-state_machine
 217              		.section	.text.tx,"ax",%progbits
 218              		.align	2
 219              		.global	tx
 220              		.code	16
 221              		.thumb_func
 222              		.type	tx, %function
 223              	tx:
 224              	.LFB38:
 113:main.c        ****         
 114:main.c        **** void tx(){
 225              		.loc 1 114 0
ARM GAS  C:\Users\7709\AppData\Local\Temp\cct2hrjn.s 			page 7


 226              		.cfi_startproc
 227              		@ args = 0, pretend = 0, frame = 8
 228              		@ frame_needed = 1, uses_anonymous_args = 0
 229 0000 80B5     		push	{r7, lr}
 230              		.cfi_def_cfa_offset 8
 231              		.cfi_offset 7, -8
 232              		.cfi_offset 14, -4
 233 0002 82B0     		sub	sp, sp, #8
 234              		.cfi_def_cfa_offset 16
 235 0004 00AF     		add	r7, sp, #0
 236              		.cfi_def_cfa_register 7
 115:main.c        ****     
 116:main.c        ****        global_int();
 237              		.loc 1 116 0
 238 0006 FFF7FEFF 		bl	global_int
 117:main.c        ****      //  startBLE();        
 118:main.c        ****        CyDelay(50);
 239              		.loc 1 118 0
 240 000a 3220     		movs	r0, #50
 241 000c FFF7FEFF 		bl	CyDelay
 119:main.c        **** 
 120:main.c        ****        
 121:main.c        ****        int check=0;
 242              		.loc 1 121 0
 243 0010 0023     		movs	r3, #0
 244 0012 7B60     		str	r3, [r7, #4]
 122:main.c        ****        flag=1;
 245              		.loc 1 122 0
 246 0014 104B     		ldr	r3, .L18
 247 0016 0122     		movs	r2, #1
 248 0018 1A60     		str	r2, [r3]
 123:main.c        ****     
 124:main.c        ****         //while(flag && check<1){
 125:main.c        ****         while(flag && check<1){
 249              		.loc 1 125 0
 250 001a 0DE0     		b	.L14
 251              	.L17:
 126:main.c        ****             if(CyBle_GattGetBusStatus() != CYBLE_STACK_STATE_BUSY){
 252              		.loc 1 126 0
 253 001c 0F4B     		ldr	r3, .L18+4
 254 001e 1B78     		ldrb	r3, [r3]
 255 0020 DBB2     		uxtb	r3, r3
 256 0022 012B     		cmp	r3, #1
 257 0024 04D0     		beq	.L15
 127:main.c        ****                 sendtoble();
 258              		.loc 1 127 0
 259 0026 FFF7FEFF 		bl	sendtoble
 128:main.c        ****                 check++;
 260              		.loc 1 128 0
 261 002a 7B68     		ldr	r3, [r7, #4]
 262 002c 0133     		adds	r3, r3, #1
 263 002e 7B60     		str	r3, [r7, #4]
 264              	.L15:
 129:main.c        ****                // UART_UartPutString("\n\r 00  \n\r ");
 130:main.c        ****             }
 131:main.c        ****             
 132:main.c        ****            // UART_UartPutString("\n\r After  \n\r ");
ARM GAS  C:\Users\7709\AppData\Local\Temp\cct2hrjn.s 			page 8


 133:main.c        ****             HandleBleProcessing();
 265              		.loc 1 133 0
 266 0030 FFF7FEFF 		bl	HandleBleProcessing
 134:main.c        ****             CyBle_ProcessEvents();
 267              		.loc 1 134 0
 268 0034 FFF7FEFF 		bl	CyBle_ProcessEvents
 269              	.L14:
 125:main.c        ****             if(CyBle_GattGetBusStatus() != CYBLE_STACK_STATE_BUSY){
 270              		.loc 1 125 0
 271 0038 074B     		ldr	r3, .L18
 272 003a 1B68     		ldr	r3, [r3]
 273 003c 002B     		cmp	r3, #0
 274 003e 02D0     		beq	.L16
 125:main.c        ****             if(CyBle_GattGetBusStatus() != CYBLE_STACK_STATE_BUSY){
 275              		.loc 1 125 0 is_stmt 0 discriminator 1
 276 0040 7B68     		ldr	r3, [r7, #4]
 277 0042 002B     		cmp	r3, #0
 278 0044 EADD     		ble	.L17
 279              	.L16:
 135:main.c        ****                 
 136:main.c        ****         }
 137:main.c        ****           HandleBleProcessing();
 280              		.loc 1 137 0 is_stmt 1
 281 0046 FFF7FEFF 		bl	HandleBleProcessing
 138:main.c        ****           CyBle_ProcessEvents();
 282              		.loc 1 138 0
 283 004a FFF7FEFF 		bl	CyBle_ProcessEvents
 139:main.c        **** }
 284              		.loc 1 139 0
 285 004e C046     		nop
 286 0050 BD46     		mov	sp, r7
 287 0052 02B0     		add	sp, sp, #8
 288              		@ sp needed
 289 0054 80BD     		pop	{r7, pc}
 290              	.L19:
 291 0056 C046     		.align	2
 292              	.L18:
 293 0058 00000000 		.word	flag
 294 005c 00000000 		.word	cyBle_busyStatus
 295              		.cfi_endproc
 296              	.LFE38:
 297              		.size	tx, .-tx
 298              		.section	.text.Getsensor_data,"ax",%progbits
 299              		.align	2
 300              		.global	Getsensor_data
 301              		.code	16
 302              		.thumb_func
 303              		.type	Getsensor_data, %function
 304              	Getsensor_data:
 305              	.LFB39:
 140:main.c        **** 
 141:main.c        **** void Getsensor_data(){
 306              		.loc 1 141 0
 307              		.cfi_startproc
 308              		@ args = 0, pretend = 0, frame = 0
 309              		@ frame_needed = 1, uses_anonymous_args = 0
 310 0000 80B5     		push	{r7, lr}
ARM GAS  C:\Users\7709\AppData\Local\Temp\cct2hrjn.s 			page 9


 311              		.cfi_def_cfa_offset 8
 312              		.cfi_offset 7, -8
 313              		.cfi_offset 14, -4
 314 0002 00AF     		add	r7, sp, #0
 315              		.cfi_def_cfa_register 7
 142:main.c        ****        
 143:main.c        ****     #ifdef DEBUG_ble  
 144:main.c        ****      UART_UartPutString("\n\r Getsensor_data function \n\r ");     
 145:main.c        ****     #endif
 146:main.c        ****     
 147:main.c        ****      if(lasTemp==sensor.temperature){
 316              		.loc 1 147 0
 317 0004 114B     		ldr	r3, .L23
 318 0006 9A78     		ldrb	r2, [r3, #2]
 319 0008 114B     		ldr	r3, .L23+4
 320 000a 1B78     		ldrb	r3, [r3]
 321 000c 9A42     		cmp	r2, r3
 322 000e 05D1     		bne	.L21
 148:main.c        ****         sameTemp++;
 323              		.loc 1 148 0
 324 0010 104B     		ldr	r3, .L23+8
 325 0012 1B78     		ldrb	r3, [r3]
 326 0014 0133     		adds	r3, r3, #1
 327 0016 DAB2     		uxtb	r2, r3
 328 0018 0E4B     		ldr	r3, .L23+8
 329 001a 1A70     		strb	r2, [r3]
 330              	.L21:
 149:main.c        ****     }
 150:main.c        ****     
 151:main.c        ****      if(lastHum==sensor.humidity){
 331              		.loc 1 151 0
 332 001c 0B4B     		ldr	r3, .L23
 333 001e 5A78     		ldrb	r2, [r3, #1]
 334 0020 0D4B     		ldr	r3, .L23+12
 335 0022 1B78     		ldrb	r3, [r3]
 336 0024 9A42     		cmp	r2, r3
 337 0026 05D1     		bne	.L22
 152:main.c        ****         sameHum++;
 338              		.loc 1 152 0
 339 0028 0C4B     		ldr	r3, .L23+16
 340 002a 1B78     		ldrb	r3, [r3]
 341 002c 0133     		adds	r3, r3, #1
 342 002e DAB2     		uxtb	r2, r3
 343 0030 0A4B     		ldr	r3, .L23+16
 344 0032 1A70     		strb	r2, [r3]
 345              	.L22:
 153:main.c        ****     }
 154:main.c        ****     
 155:main.c        ****     lasTemp=sensor.temperature;
 346              		.loc 1 155 0
 347 0034 054B     		ldr	r3, .L23
 348 0036 9A78     		ldrb	r2, [r3, #2]
 349 0038 054B     		ldr	r3, .L23+4
 350 003a 1A70     		strb	r2, [r3]
 156:main.c        ****     lastHum=sensor.humidity;
 351              		.loc 1 156 0
 352 003c 034B     		ldr	r3, .L23
ARM GAS  C:\Users\7709\AppData\Local\Temp\cct2hrjn.s 			page 10


 353 003e 5A78     		ldrb	r2, [r3, #1]
 354 0040 054B     		ldr	r3, .L23+12
 355 0042 1A70     		strb	r2, [r3]
 157:main.c        **** }
 356              		.loc 1 157 0
 357 0044 C046     		nop
 358 0046 BD46     		mov	sp, r7
 359              		@ sp needed
 360 0048 80BD     		pop	{r7, pc}
 361              	.L24:
 362 004a C046     		.align	2
 363              	.L23:
 364 004c 00000000 		.word	sensor
 365 0050 00000000 		.word	lasTemp
 366 0054 00000000 		.word	sameTemp
 367 0058 00000000 		.word	lastHum
 368 005c 00000000 		.word	sameHum
 369              		.cfi_endproc
 370              	.LFE39:
 371              		.size	Getsensor_data, .-Getsensor_data
 372              		.section	.text.init_globalVariables,"ax",%progbits
 373              		.align	2
 374              		.global	init_globalVariables
 375              		.code	16
 376              		.thumb_func
 377              		.type	init_globalVariables, %function
 378              	init_globalVariables:
 379              	.LFB40:
 158:main.c        **** 
 159:main.c        **** void init_globalVariables(){
 380              		.loc 1 159 0
 381              		.cfi_startproc
 382              		@ args = 0, pretend = 0, frame = 0
 383              		@ frame_needed = 1, uses_anonymous_args = 0
 384 0000 80B5     		push	{r7, lr}
 385              		.cfi_def_cfa_offset 8
 386              		.cfi_offset 7, -8
 387              		.cfi_offset 14, -4
 388 0002 00AF     		add	r7, sp, #0
 389              		.cfi_def_cfa_register 7
 160:main.c        ****     
 161:main.c        ****     count=0;
 390              		.loc 1 161 0
 391 0004 0E4B     		ldr	r3, .L26
 392 0006 0022     		movs	r2, #0
 393 0008 1A70     		strb	r2, [r3]
 162:main.c        ****     lasTemp=0;
 394              		.loc 1 162 0
 395 000a 0E4B     		ldr	r3, .L26+4
 396 000c 0022     		movs	r2, #0
 397 000e 1A70     		strb	r2, [r3]
 163:main.c        ****     lastHum=0;
 398              		.loc 1 163 0
 399 0010 0D4B     		ldr	r3, .L26+8
 400 0012 0022     		movs	r2, #0
 401 0014 1A70     		strb	r2, [r3]
 164:main.c        ****     sameTemp=0;
ARM GAS  C:\Users\7709\AppData\Local\Temp\cct2hrjn.s 			page 11


 402              		.loc 1 164 0
 403 0016 0D4B     		ldr	r3, .L26+12
 404 0018 0022     		movs	r2, #0
 405 001a 1A70     		strb	r2, [r3]
 165:main.c        ****     sameHum=0;
 406              		.loc 1 165 0
 407 001c 0C4B     		ldr	r3, .L26+16
 408 001e 0022     		movs	r2, #0
 409 0020 1A70     		strb	r2, [r3]
 166:main.c        ****     sensor.ID=0;
 410              		.loc 1 166 0
 411 0022 0C4B     		ldr	r3, .L26+20
 412 0024 0022     		movs	r2, #0
 413 0026 1A70     		strb	r2, [r3]
 167:main.c        ****     sensor.sequence=0;
 414              		.loc 1 167 0
 415 0028 0A4B     		ldr	r3, .L26+20
 416 002a 0022     		movs	r2, #0
 417 002c 1A71     		strb	r2, [r3, #4]
 168:main.c        ****     sensor.humidity=0;
 418              		.loc 1 168 0
 419 002e 094B     		ldr	r3, .L26+20
 420 0030 0022     		movs	r2, #0
 421 0032 5A70     		strb	r2, [r3, #1]
 169:main.c        ****     sensor.temperature=0;
 422              		.loc 1 169 0
 423 0034 074B     		ldr	r3, .L26+20
 424 0036 0022     		movs	r2, #0
 425 0038 9A70     		strb	r2, [r3, #2]
 170:main.c        **** }
 426              		.loc 1 170 0
 427 003a C046     		nop
 428 003c BD46     		mov	sp, r7
 429              		@ sp needed
 430 003e 80BD     		pop	{r7, pc}
 431              	.L27:
 432              		.align	2
 433              	.L26:
 434 0040 00000000 		.word	count
 435 0044 00000000 		.word	lasTemp
 436 0048 00000000 		.word	lastHum
 437 004c 00000000 		.word	sameTemp
 438 0050 00000000 		.word	sameHum
 439 0054 00000000 		.word	sensor
 440              		.cfi_endproc
 441              	.LFE40:
 442              		.size	init_globalVariables, .-init_globalVariables
 443              		.section	.rodata
 444 000e 0000     		.align	2
 445              	.LC18:
 446 0010 0A0D202D 		.ascii	"\012\015 -  \012\015 \000"
 446      20200A0D 
 446      2000
 447 001a 0000     		.align	2
 448              	.LC21:
 449 001c 202D2000 		.ascii	" - \000"
 450              		.section	.text.createPacket,"ax",%progbits
ARM GAS  C:\Users\7709\AppData\Local\Temp\cct2hrjn.s 			page 12


 451              		.align	2
 452              		.global	createPacket
 453              		.code	16
 454              		.thumb_func
 455              		.type	createPacket, %function
 456              	createPacket:
 457              	.LFB41:
 171:main.c        **** 
 172:main.c        **** void createPacket(){
 458              		.loc 1 172 0
 459              		.cfi_startproc
 460              		@ args = 0, pretend = 0, frame = 0
 461              		@ frame_needed = 1, uses_anonymous_args = 0
 462 0000 80B5     		push	{r7, lr}
 463              		.cfi_def_cfa_offset 8
 464              		.cfi_offset 7, -8
 465              		.cfi_offset 14, -4
 466 0002 00AF     		add	r7, sp, #0
 467              		.cfi_def_cfa_register 7
 173:main.c        ****  
 174:main.c        ****     // It depends on MTU(maximum bytes allowed )
 175:main.c        ****     
 176:main.c        ****     CyDelay(500);
 468              		.loc 1 176 0
 469 0004 FA23     		movs	r3, #250
 470 0006 5B00     		lsls	r3, r3, #1
 471 0008 1800     		movs	r0, r3
 472 000a FFF7FEFF 		bl	CyDelay
 177:main.c        ****     sensor.last_sequence=sensor.sequence;
 473              		.loc 1 177 0
 474 000e 514B     		ldr	r3, .L30
 475 0010 1A79     		ldrb	r2, [r3, #4]
 476 0012 504B     		ldr	r3, .L30
 477 0014 5A71     		strb	r2, [r3, #5]
 178:main.c        ****     CyDelay(500);
 478              		.loc 1 178 0
 479 0016 FA23     		movs	r3, #250
 480 0018 5B00     		lsls	r3, r3, #1
 481 001a 1800     		movs	r0, r3
 482 001c FFF7FEFF 		bl	CyDelay
 179:main.c        ****     sensor.temperature = (uint8)getTemp();
 483              		.loc 1 179 0
 484 0020 FFF7FEFF 		bl	getTemp
 485 0024 0300     		movs	r3, r0
 486 0026 DAB2     		uxtb	r2, r3
 487 0028 4A4B     		ldr	r3, .L30
 488 002a 9A70     		strb	r2, [r3, #2]
 180:main.c        ****     CyDelay(500);
 489              		.loc 1 180 0
 490 002c FA23     		movs	r3, #250
 491 002e 5B00     		lsls	r3, r3, #1
 492 0030 1800     		movs	r0, r3
 493 0032 FFF7FEFF 		bl	CyDelay
 181:main.c        ****     sensor.humidity= (uint8)getHum();    
 494              		.loc 1 181 0
 495 0036 FFF7FEFF 		bl	getHum
 496 003a 0300     		movs	r3, r0
ARM GAS  C:\Users\7709\AppData\Local\Temp\cct2hrjn.s 			page 13


 497 003c DAB2     		uxtb	r2, r3
 498 003e 454B     		ldr	r3, .L30
 499 0040 5A70     		strb	r2, [r3, #1]
 182:main.c        ****     sensor.ID=5;
 500              		.loc 1 182 0
 501 0042 444B     		ldr	r3, .L30
 502 0044 0522     		movs	r2, #5
 503 0046 1A70     		strb	r2, [r3]
 183:main.c        ****     count++;
 504              		.loc 1 183 0
 505 0048 434B     		ldr	r3, .L30+4
 506 004a 1B78     		ldrb	r3, [r3]
 507 004c 0133     		adds	r3, r3, #1
 508 004e DAB2     		uxtb	r2, r3
 509 0050 414B     		ldr	r3, .L30+4
 510 0052 1A70     		strb	r2, [r3]
 184:main.c        ****     sensor.sequence=count;
 511              		.loc 1 184 0
 512 0054 404B     		ldr	r3, .L30+4
 513 0056 1A78     		ldrb	r2, [r3]
 514 0058 3E4B     		ldr	r3, .L30
 515 005a 1A71     		strb	r2, [r3, #4]
 185:main.c        ****     sensor.packets_lost=sensor.sequence-sensor.last_sequence;
 516              		.loc 1 185 0
 517 005c 3D4B     		ldr	r3, .L30
 518 005e 1A79     		ldrb	r2, [r3, #4]
 519 0060 3C4B     		ldr	r3, .L30
 520 0062 5B79     		ldrb	r3, [r3, #5]
 521 0064 D31A     		subs	r3, r2, r3
 522 0066 DAB2     		uxtb	r2, r3
 523 0068 3A4B     		ldr	r3, .L30
 524 006a 9A71     		strb	r2, [r3, #6]
 186:main.c        ****     
 187:main.c        ****     
 188:main.c        ****     if(count>=250){
 525              		.loc 1 188 0
 526 006c 3A4B     		ldr	r3, .L30+4
 527 006e 1B78     		ldrb	r3, [r3]
 528 0070 F92B     		cmp	r3, #249
 529 0072 02D9     		bls	.L29
 189:main.c        ****         count=0;
 530              		.loc 1 189 0
 531 0074 384B     		ldr	r3, .L30+4
 532 0076 0022     		movs	r2, #0
 533 0078 1A70     		strb	r2, [r3]
 534              	.L29:
 190:main.c        ****     }
 191:main.c        **** 
 192:main.c        ****     UART_UartPutString("\n\r -  \n\r ");
 535              		.loc 1 192 0
 536 007a 384B     		ldr	r3, .L30+8
 537 007c 1800     		movs	r0, r3
 538 007e FFF7FEFF 		bl	UART_UartPutString
 193:main.c        ****     buffer[PACKET_LENGHT-1]=(uint8)sensor.humidity;
 539              		.loc 1 193 0
 540 0082 344B     		ldr	r3, .L30
 541 0084 5A78     		ldrb	r2, [r3, #1]
ARM GAS  C:\Users\7709\AppData\Local\Temp\cct2hrjn.s 			page 14


 542 0086 364B     		ldr	r3, .L30+12
 543 0088 5A71     		strb	r2, [r3, #5]
 194:main.c        ****     UART_UartPutString(ultoa(sensor.humidity));
 544              		.loc 1 194 0
 545 008a 324B     		ldr	r3, .L30
 546 008c 5B78     		ldrb	r3, [r3, #1]
 547 008e 1800     		movs	r0, r3
 548 0090 FFF7FEFF 		bl	ultoa
 549 0094 0300     		movs	r3, r0
 550 0096 1800     		movs	r0, r3
 551 0098 FFF7FEFF 		bl	UART_UartPutString
 195:main.c        ****     UART_UartPutString(" - ");
 552              		.loc 1 195 0
 553 009c 314B     		ldr	r3, .L30+16
 554 009e 1800     		movs	r0, r3
 555 00a0 FFF7FEFF 		bl	UART_UartPutString
 196:main.c        ****     buffer[PACKET_LENGHT-2]=(uint8)sensor.temperature;
 556              		.loc 1 196 0
 557 00a4 2B4B     		ldr	r3, .L30
 558 00a6 9A78     		ldrb	r2, [r3, #2]
 559 00a8 2D4B     		ldr	r3, .L30+12
 560 00aa 1A71     		strb	r2, [r3, #4]
 197:main.c        ****     UART_UartPutString(ultoa(sensor.temperature));
 561              		.loc 1 197 0
 562 00ac 294B     		ldr	r3, .L30
 563 00ae 9B78     		ldrb	r3, [r3, #2]
 564 00b0 1800     		movs	r0, r3
 565 00b2 FFF7FEFF 		bl	ultoa
 566 00b6 0300     		movs	r3, r0
 567 00b8 1800     		movs	r0, r3
 568 00ba FFF7FEFF 		bl	UART_UartPutString
 198:main.c        ****     UART_UartPutString(" - ");
 569              		.loc 1 198 0
 570 00be 294B     		ldr	r3, .L30+16
 571 00c0 1800     		movs	r0, r3
 572 00c2 FFF7FEFF 		bl	UART_UartPutString
 199:main.c        ****     buffer[PACKET_LENGHT-3]=(uint8)sensor.ID;
 573              		.loc 1 199 0
 574 00c6 234B     		ldr	r3, .L30
 575 00c8 1A78     		ldrb	r2, [r3]
 576 00ca 254B     		ldr	r3, .L30+12
 577 00cc DA70     		strb	r2, [r3, #3]
 200:main.c        ****     UART_UartPutString(ultoa(sensor.ID));
 578              		.loc 1 200 0
 579 00ce 214B     		ldr	r3, .L30
 580 00d0 1B78     		ldrb	r3, [r3]
 581 00d2 1800     		movs	r0, r3
 582 00d4 FFF7FEFF 		bl	ultoa
 583 00d8 0300     		movs	r3, r0
 584 00da 1800     		movs	r0, r3
 585 00dc FFF7FEFF 		bl	UART_UartPutString
 201:main.c        ****     UART_UartPutString(" - ");
 586              		.loc 1 201 0
 587 00e0 204B     		ldr	r3, .L30+16
 588 00e2 1800     		movs	r0, r3
 589 00e4 FFF7FEFF 		bl	UART_UartPutString
 202:main.c        ****     buffer[PACKET_LENGHT-4]=(uint8)sensor.packets_lost;
ARM GAS  C:\Users\7709\AppData\Local\Temp\cct2hrjn.s 			page 15


 590              		.loc 1 202 0
 591 00e8 1A4B     		ldr	r3, .L30
 592 00ea 9A79     		ldrb	r2, [r3, #6]
 593 00ec 1C4B     		ldr	r3, .L30+12
 594 00ee 9A70     		strb	r2, [r3, #2]
 203:main.c        ****     UART_UartPutString(ultoa(sensor.packets_lost));
 595              		.loc 1 203 0
 596 00f0 184B     		ldr	r3, .L30
 597 00f2 9B79     		ldrb	r3, [r3, #6]
 598 00f4 1800     		movs	r0, r3
 599 00f6 FFF7FEFF 		bl	ultoa
 600 00fa 0300     		movs	r3, r0
 601 00fc 1800     		movs	r0, r3
 602 00fe FFF7FEFF 		bl	UART_UartPutString
 204:main.c        ****     UART_UartPutString(" - ");
 603              		.loc 1 204 0
 604 0102 184B     		ldr	r3, .L30+16
 605 0104 1800     		movs	r0, r3
 606 0106 FFF7FEFF 		bl	UART_UartPutString
 205:main.c        ****     buffer[PACKET_LENGHT-5]=(uint8)sensor.last_sequence;
 607              		.loc 1 205 0
 608 010a 124B     		ldr	r3, .L30
 609 010c 5A79     		ldrb	r2, [r3, #5]
 610 010e 144B     		ldr	r3, .L30+12
 611 0110 5A70     		strb	r2, [r3, #1]
 206:main.c        ****     UART_UartPutString(" - ");
 612              		.loc 1 206 0
 613 0112 144B     		ldr	r3, .L30+16
 614 0114 1800     		movs	r0, r3
 615 0116 FFF7FEFF 		bl	UART_UartPutString
 207:main.c        ****     UART_UartPutString(ultoa(sensor.last_sequence));
 616              		.loc 1 207 0
 617 011a 0E4B     		ldr	r3, .L30
 618 011c 5B79     		ldrb	r3, [r3, #5]
 619 011e 1800     		movs	r0, r3
 620 0120 FFF7FEFF 		bl	ultoa
 621 0124 0300     		movs	r3, r0
 622 0126 1800     		movs	r0, r3
 623 0128 FFF7FEFF 		bl	UART_UartPutString
 208:main.c        ****     buffer[PACKET_LENGHT-6]=(uint8)sensor.sequence;   
 624              		.loc 1 208 0
 625 012c 094B     		ldr	r3, .L30
 626 012e 1A79     		ldrb	r2, [r3, #4]
 627 0130 0B4B     		ldr	r3, .L30+12
 628 0132 1A70     		strb	r2, [r3]
 209:main.c        ****     UART_UartPutString(" - ");
 629              		.loc 1 209 0
 630 0134 0B4B     		ldr	r3, .L30+16
 631 0136 1800     		movs	r0, r3
 632 0138 FFF7FEFF 		bl	UART_UartPutString
 210:main.c        ****     UART_UartPutString(ultoa(sensor.sequence));
 633              		.loc 1 210 0
 634 013c 054B     		ldr	r3, .L30
 635 013e 1B79     		ldrb	r3, [r3, #4]
 636 0140 1800     		movs	r0, r3
 637 0142 FFF7FEFF 		bl	ultoa
 638 0146 0300     		movs	r3, r0
ARM GAS  C:\Users\7709\AppData\Local\Temp\cct2hrjn.s 			page 16


 639 0148 1800     		movs	r0, r3
 640 014a FFF7FEFF 		bl	UART_UartPutString
 211:main.c        **** }
 641              		.loc 1 211 0
 642 014e C046     		nop
 643 0150 BD46     		mov	sp, r7
 644              		@ sp needed
 645 0152 80BD     		pop	{r7, pc}
 646              	.L31:
 647              		.align	2
 648              	.L30:
 649 0154 00000000 		.word	sensor
 650 0158 00000000 		.word	count
 651 015c 10000000 		.word	.LC18
 652 0160 00000000 		.word	buffer
 653 0164 1C000000 		.word	.LC21
 654              		.cfi_endproc
 655              	.LFE41:
 656              		.size	createPacket, .-createPacket
 657              		.section	.text.clean_txbuffer,"ax",%progbits
 658              		.align	2
 659              		.global	clean_txbuffer
 660              		.code	16
 661              		.thumb_func
 662              		.type	clean_txbuffer, %function
 663              	clean_txbuffer:
 664              	.LFB42:
 212:main.c        **** 
 213:main.c        **** void clean_txbuffer(){
 665              		.loc 1 213 0
 666              		.cfi_startproc
 667              		@ args = 0, pretend = 0, frame = 0
 668              		@ frame_needed = 1, uses_anonymous_args = 0
 669 0000 80B5     		push	{r7, lr}
 670              		.cfi_def_cfa_offset 8
 671              		.cfi_offset 7, -8
 672              		.cfi_offset 14, -4
 673 0002 00AF     		add	r7, sp, #0
 674              		.cfi_def_cfa_register 7
 214:main.c        ****     buffer[PACKET_LENGHT-1]=0;
 675              		.loc 1 214 0
 676 0004 0A4B     		ldr	r3, .L33
 677 0006 0022     		movs	r2, #0
 678 0008 5A71     		strb	r2, [r3, #5]
 215:main.c        ****     buffer[PACKET_LENGHT-2]=0;
 679              		.loc 1 215 0
 680 000a 094B     		ldr	r3, .L33
 681 000c 0022     		movs	r2, #0
 682 000e 1A71     		strb	r2, [r3, #4]
 216:main.c        ****     buffer[PACKET_LENGHT-3]=0;
 683              		.loc 1 216 0
 684 0010 074B     		ldr	r3, .L33
 685 0012 0022     		movs	r2, #0
 686 0014 DA70     		strb	r2, [r3, #3]
 217:main.c        ****     buffer[PACKET_LENGHT-4]=0;
 687              		.loc 1 217 0
 688 0016 064B     		ldr	r3, .L33
ARM GAS  C:\Users\7709\AppData\Local\Temp\cct2hrjn.s 			page 17


 689 0018 0022     		movs	r2, #0
 690 001a 9A70     		strb	r2, [r3, #2]
 218:main.c        ****     buffer[PACKET_LENGHT-5]=0;    
 691              		.loc 1 218 0
 692 001c 044B     		ldr	r3, .L33
 693 001e 0022     		movs	r2, #0
 694 0020 5A70     		strb	r2, [r3, #1]
 219:main.c        ****     buffer[PACKET_LENGHT-6]=0;  
 695              		.loc 1 219 0
 696 0022 034B     		ldr	r3, .L33
 697 0024 0022     		movs	r2, #0
 698 0026 1A70     		strb	r2, [r3]
 220:main.c        ****     
 221:main.c        **** }
 699              		.loc 1 221 0
 700 0028 C046     		nop
 701 002a BD46     		mov	sp, r7
 702              		@ sp needed
 703 002c 80BD     		pop	{r7, pc}
 704              	.L34:
 705 002e C046     		.align	2
 706              	.L33:
 707 0030 00000000 		.word	buffer
 708              		.cfi_endproc
 709              	.LFE42:
 710              		.size	clean_txbuffer, .-clean_txbuffer
 711              		.section	.text.startBLE,"ax",%progbits
 712              		.align	2
 713              		.global	startBLE
 714              		.code	16
 715              		.thumb_func
 716              		.type	startBLE, %function
 717              	startBLE:
 718              	.LFB43:
 222:main.c        **** 
 223:main.c        **** 
 224:main.c        **** void startBLE(){
 719              		.loc 1 224 0
 720              		.cfi_startproc
 721              		@ args = 0, pretend = 0, frame = 0
 722              		@ frame_needed = 1, uses_anonymous_args = 0
 723 0000 80B5     		push	{r7, lr}
 724              		.cfi_def_cfa_offset 8
 725              		.cfi_offset 7, -8
 726              		.cfi_offset 14, -4
 727 0002 00AF     		add	r7, sp, #0
 728              		.cfi_def_cfa_register 7
 225:main.c        ****    //This function init the BLE component, this means, BLE STACK 
 226:main.c        ****    // AppCallBack manages the state BLE machine
 227:main.c        ****     
 228:main.c        ****     CyBle_Start(AppCallBack);
 729              		.loc 1 228 0
 730 0004 054B     		ldr	r3, .L36
 731 0006 1800     		movs	r0, r3
 732 0008 FFF7FEFF 		bl	CyBle_Start
 229:main.c        ****     HandleBleProcessing();
 733              		.loc 1 229 0
ARM GAS  C:\Users\7709\AppData\Local\Temp\cct2hrjn.s 			page 18


 734 000c FFF7FEFF 		bl	HandleBleProcessing
 230:main.c        ****     CyBle_ProcessEvents();
 735              		.loc 1 230 0
 736 0010 FFF7FEFF 		bl	CyBle_ProcessEvents
 231:main.c        **** }
 737              		.loc 1 231 0
 738 0014 C046     		nop
 739 0016 BD46     		mov	sp, r7
 740              		@ sp needed
 741 0018 80BD     		pop	{r7, pc}
 742              	.L37:
 743 001a C046     		.align	2
 744              	.L36:
 745 001c 00000000 		.word	AppCallBack
 746              		.cfi_endproc
 747              	.LFE43:
 748              		.size	startBLE, .-startBLE
 749              		.section	.text.stopBLE,"ax",%progbits
 750              		.align	2
 751              		.global	stopBLE
 752              		.code	16
 753              		.thumb_func
 754              		.type	stopBLE, %function
 755              	stopBLE:
 756              	.LFB44:
 232:main.c        **** 
 233:main.c        **** void stopBLE(){
 757              		.loc 1 233 0
 758              		.cfi_startproc
 759              		@ args = 0, pretend = 0, frame = 0
 760              		@ frame_needed = 1, uses_anonymous_args = 0
 761 0000 80B5     		push	{r7, lr}
 762              		.cfi_def_cfa_offset 8
 763              		.cfi_offset 7, -8
 764              		.cfi_offset 14, -4
 765 0002 00AF     		add	r7, sp, #0
 766              		.cfi_def_cfa_register 7
 234:main.c        ****     //Stops any proccesing in BLE Stack
 235:main.c        ****     CyBle_Shutdown(); 
 767              		.loc 1 235 0
 768 0004 FFF7FEFF 		bl	CyBle_Shutdown
 236:main.c        **** }
 769              		.loc 1 236 0
 770 0008 C046     		nop
 771 000a BD46     		mov	sp, r7
 772              		@ sp needed
 773 000c 80BD     		pop	{r7, pc}
 774              		.cfi_endproc
 775              	.LFE44:
 776              		.size	stopBLE, .-stopBLE
 777 000e C046     		.section	.rodata
 778              		.align	2
 779              	.LC25:
 780 0020 0A0D202D 		.ascii	"\012\015 --------------------- \012\015 \000"
 780      2D2D2D2D 
 780      2D2D2D2D 
 780      2D2D2D2D 
ARM GAS  C:\Users\7709\AppData\Local\Temp\cct2hrjn.s 			page 19


 780      2D2D2D2D 
 781 003d 000000   		.align	2
 782              	.LC27:
 783 0040 0A0D2053 		.ascii	"\012\015 Start peripheral role \012\015 \000"
 783      74617274 
 783      20706572 
 783      69706865 
 783      72616C20 
 784              		.section	.text.start,"ax",%progbits
 785              		.align	2
 786              		.global	start
 787              		.code	16
 788              		.thumb_func
 789              		.type	start, %function
 790              	start:
 791              	.LFB45:
 237:main.c        **** 
 238:main.c        **** 
 239:main.c        **** void start(){
 792              		.loc 1 239 0
 793              		.cfi_startproc
 794              		@ args = 0, pretend = 0, frame = 0
 795              		@ frame_needed = 1, uses_anonymous_args = 0
 796 0000 80B5     		push	{r7, lr}
 797              		.cfi_def_cfa_offset 8
 798              		.cfi_offset 7, -8
 799              		.cfi_offset 14, -4
 800 0002 00AF     		add	r7, sp, #0
 801              		.cfi_def_cfa_register 7
 240:main.c        ****     
 241:main.c        ****     UART_UartPutString("\n\r --------------------- \n\r ");
 802              		.loc 1 241 0
 803 0004 074B     		ldr	r3, .L40
 804 0006 1800     		movs	r0, r3
 805 0008 FFF7FEFF 		bl	UART_UartPutString
 242:main.c        ****     UART_UartPutString("\n\r Start peripheral role \n\r ");
 806              		.loc 1 242 0
 807 000c 064B     		ldr	r3, .L40+4
 808 000e 1800     		movs	r0, r3
 809 0010 FFF7FEFF 		bl	UART_UartPutString
 243:main.c        ****     UART_UartPutString("\n\r --------------------- \n\r ");
 810              		.loc 1 243 0
 811 0014 034B     		ldr	r3, .L40
 812 0016 1800     		movs	r0, r3
 813 0018 FFF7FEFF 		bl	UART_UartPutString
 244:main.c        **** }
 814              		.loc 1 244 0
 815 001c C046     		nop
 816 001e BD46     		mov	sp, r7
 817              		@ sp needed
 818 0020 80BD     		pop	{r7, pc}
 819              	.L41:
 820 0022 C046     		.align	2
 821              	.L40:
 822 0024 20000000 		.word	.LC25
 823 0028 40000000 		.word	.LC27
 824              		.cfi_endproc
ARM GAS  C:\Users\7709\AppData\Local\Temp\cct2hrjn.s 			page 20


 825              	.LFE45:
 826              		.size	start, .-start
 827              		.section	.text.global_int,"ax",%progbits
 828              		.align	2
 829              		.global	global_int
 830              		.code	16
 831              		.thumb_func
 832              		.type	global_int, %function
 833              	global_int:
 834              	.LFB46:
 245:main.c        **** 
 246:main.c        **** void global_int(){
 835              		.loc 1 246 0
 836              		.cfi_startproc
 837              		@ args = 0, pretend = 0, frame = 0
 838              		@ frame_needed = 1, uses_anonymous_args = 0
 839 0000 80B5     		push	{r7, lr}
 840              		.cfi_def_cfa_offset 8
 841              		.cfi_offset 7, -8
 842              		.cfi_offset 14, -4
 843 0002 00AF     		add	r7, sp, #0
 844              		.cfi_def_cfa_register 7
 247:main.c        ****     
 248:main.c        ****     CyGlobalIntEnable;
 845              		.loc 1 248 0
 846              		.syntax divided
 847              	@ 248 "main.c" 1
 848 0004 62B6     		CPSIE   i
 849              	@ 0 "" 2
 249:main.c        ****     
 250:main.c        ****     UART_Start();
 850              		.loc 1 250 0
 851              		.thumb
 852              		.syntax unified
 853 0006 FFF7FEFF 		bl	UART_Start
 251:main.c        ****     
 252:main.c        **** }
 854              		.loc 1 252 0
 855 000a C046     		nop
 856 000c BD46     		mov	sp, r7
 857              		@ sp needed
 858 000e 80BD     		pop	{r7, pc}
 859              		.cfi_endproc
 860              	.LFE46:
 861              		.size	global_int, .-global_int
 862              		.section	.rodata
 863 005d 000000   		.align	2
 864              	.LC30:
 865 0060 0A0D202D 		.ascii	"\012\015 -- \012\015 \000"
 865      2D200A0D 
 865      2000
 866              		.section	.text.sendtoble,"ax",%progbits
 867              		.align	2
 868              		.global	sendtoble
 869              		.code	16
 870              		.thumb_func
 871              		.type	sendtoble, %function
ARM GAS  C:\Users\7709\AppData\Local\Temp\cct2hrjn.s 			page 21


 872              	sendtoble:
 873              	.LFB47:
 253:main.c        **** 
 254:main.c        **** 
 255:main.c        **** void sendtoble()
 256:main.c        **** {
 874              		.loc 1 256 0
 875              		.cfi_startproc
 876              		@ args = 0, pretend = 0, frame = 16
 877              		@ frame_needed = 1, uses_anonymous_args = 0
 878 0000 80B5     		push	{r7, lr}
 879              		.cfi_def_cfa_offset 8
 880              		.cfi_offset 7, -8
 881              		.cfi_offset 14, -4
 882 0002 84B0     		sub	sp, sp, #16
 883              		.cfi_def_cfa_offset 24
 884 0004 00AF     		add	r7, sp, #0
 885              		.cfi_def_cfa_register 7
 257:main.c        ****     
 258:main.c        ****    //this functions sends data from uart RX and pushes it to the server 
 259:main.c        ****     
 260:main.c        ****     CYBLE_GATTS_HANDLE_VALUE_NTF_T      uartTxDataNtf;
 261:main.c        ****     
 262:main.c        ****     uartTxDataNtf.value.val  = buffer;
 886              		.loc 1 262 0
 887 0006 3B1D     		adds	r3, r7, #4
 888 0008 174A     		ldr	r2, .L47
 889 000a 1A60     		str	r2, [r3]
 263:main.c        ****     uartTxDataNtf.value.len  = sizeof(buffer);
 890              		.loc 1 263 0
 891 000c 3B1D     		adds	r3, r7, #4
 892 000e 0622     		movs	r2, #6
 893 0010 9A80     		strh	r2, [r3, #4]
 264:main.c        ****     uartTxDataNtf.attrHandle = CYBLE_SERVER_UART_SERVER_UART_TX_DATA_CHAR_HANDLE;
 894              		.loc 1 264 0
 895 0012 3B1D     		adds	r3, r7, #4
 896 0014 0E22     		movs	r2, #14
 897 0016 1A81     		strh	r2, [r3, #8]
 898              	.L45:
 265:main.c        ****   
 266:main.c        ****     do{
 267:main.c        ****         UART_UartPutString("\n\r -- \n\r ");
 899              		.loc 1 267 0 discriminator 2
 900 0018 144B     		ldr	r3, .L47+4
 901 001a 1800     		movs	r0, r3
 902 001c FFF7FEFF 		bl	UART_UartPutString
 268:main.c        ****         api=CyBle_GattsNotification(cyBle_connHandle, &uartTxDataNtf);
 903              		.loc 1 268 0 discriminator 2
 904 0020 391D     		adds	r1, r7, #4
 905 0022 134B     		ldr	r3, .L47+8
 906 0024 1A78     		ldrb	r2, [r3]
 907 0026 5B78     		ldrb	r3, [r3, #1]
 908 0028 1B02     		lsls	r3, r3, #8
 909 002a 1A43     		orrs	r2, r3
 910 002c 0023     		movs	r3, #0
 911 002e 1204     		lsls	r2, r2, #16
 912 0030 120C     		lsrs	r2, r2, #16
ARM GAS  C:\Users\7709\AppData\Local\Temp\cct2hrjn.s 			page 22


 913 0032 1B0C     		lsrs	r3, r3, #16
 914 0034 1B04     		lsls	r3, r3, #16
 915 0036 1343     		orrs	r3, r2
 916 0038 1800     		movs	r0, r3
 917 003a FFF7FEFF 		bl	CyBle_GattsNotification
 918 003e 0300     		movs	r3, r0
 919 0040 1A00     		movs	r2, r3
 920 0042 0C4B     		ldr	r3, .L47+12
 921 0044 1A60     		str	r2, [r3]
 269:main.c        ****         CyBle_ProcessEvents();
 922              		.loc 1 269 0 discriminator 2
 923 0046 FFF7FEFF 		bl	CyBle_ProcessEvents
 270:main.c        ****         flag=0;
 924              		.loc 1 270 0 discriminator 2
 925 004a 0B4B     		ldr	r3, .L47+16
 926 004c 0022     		movs	r2, #0
 927 004e 1A60     		str	r2, [r3]
 271:main.c        ****     }while(api!=CYBLE_ERROR_OK && CyBle_GetState()== CYBLE_STATE_CONNECTED);  
 928              		.loc 1 271 0 discriminator 2
 929 0050 084B     		ldr	r3, .L47+12
 930 0052 1B68     		ldr	r3, [r3]
 931 0054 002B     		cmp	r3, #0
 932 0056 03D0     		beq	.L46
 933              		.loc 1 271 0 is_stmt 0 discriminator 1
 934 0058 084B     		ldr	r3, .L47+20
 935 005a 1B78     		ldrb	r3, [r3]
 936 005c 022B     		cmp	r3, #2
 937 005e DBD0     		beq	.L45
 938              	.L46:
 272:main.c        **** 
 273:main.c        **** }...
 939              		.loc 1 273 0 is_stmt 1
 940 0060 C046     		nop
 941 0062 BD46     		mov	sp, r7
 942 0064 04B0     		add	sp, sp, #16
 943              		@ sp needed
 944 0066 80BD     		pop	{r7, pc}
 945              	.L48:
 946              		.align	2
 947              	.L47:
 948 0068 00000000 		.word	buffer
 949 006c 60000000 		.word	.LC30
 950 0070 00000000 		.word	cyBle_connHandle
 951 0074 00000000 		.word	api
 952 0078 00000000 		.word	flag
 953 007c 00000000 		.word	cyBle_state
 954              		.cfi_endproc
 955              	.LFE47:
 956              		.size	sendtoble, .-sendtoble
 957              		.text
 958              	.Letext0:
 959              		.file 2 "Generated_Source\\PSoC4/cytypes.h"
 960              		.file 3 "Generated_Source\\PSoC4/BLE_Stack.h"
 961              		.file 4 "Generated_Source\\PSoC4/BLE_StackGatt.h"
 962              		.file 5 "Generated_Source\\PSoC4/BLE_StackGattServer.h"
 963              		.file 6 "Generated_Source\\PSoC4/BLE_eventHandler.h"
 964              		.file 7 "main.h"
ARM GAS  C:\Users\7709\AppData\Local\Temp\cct2hrjn.s 			page 23


 965              		.file 8 "htu21d.h"
 966              		.file 9 "bme280.h"
 967              		.file 10 "Sleep.h"