ARM GAS  C:\Users\7709\AppData\Local\Temp\ccQ2UUYk.s 			page 1


   1              		.syntax unified
   2              		.cpu cortex-m0
   3              		.fpu softvfp
   4              		.eabi_attribute 20, 1
   5              		.eabi_attribute 21, 1
   6              		.eabi_attribute 23, 3
   7              		.eabi_attribute 24, 1
   8              		.eabi_attribute 25, 1
   9              		.eabi_attribute 26, 1
  10              		.eabi_attribute 30, 6
  11              		.eabi_attribute 34, 0
  12              		.eabi_attribute 18, 4
  13              		.thumb
  14              		.syntax unified
  15              		.file	"RTC_1.c"
  16              		.text
  17              	.Ltext0:
  18              		.cfi_sections	.debug_frame
  19              		.section	.text.RTC_1_IsBitSet,"ax",%progbits
  20              		.align	2
  21              		.code	16
  22              		.thumb_func
  23              		.type	RTC_1_IsBitSet, %function
  24              	RTC_1_IsBitSet:
  25              	.LFB2:
  26              		.file 1 "Generated_Source\\PSoC4\\RTC_1.h"
   1:Generated_Source\PSoC4/RTC_1.h **** /***************************************************************************//**
   2:Generated_Source\PSoC4/RTC_1.h **** * \file Name: RTC_1.h
   3:Generated_Source\PSoC4/RTC_1.h **** * \version 1.20
   4:Generated_Source\PSoC4/RTC_1.h **** *
   5:Generated_Source\PSoC4/RTC_1.h **** *  This file provides constants and parameter values for the RTC_P4 Component.
   6:Generated_Source\PSoC4/RTC_1.h **** *
   7:Generated_Source\PSoC4/RTC_1.h **** ********************************************************************************
   8:Generated_Source\PSoC4/RTC_1.h **** * Copyright 2015-2017, Cypress Semiconductor Corporation.  All rights reserved.
   9:Generated_Source\PSoC4/RTC_1.h **** * You may use this file only in accordance with the license, terms, conditions,
  10:Generated_Source\PSoC4/RTC_1.h **** * disclaimers, and limitations in the end user license agreement accompanying
  11:Generated_Source\PSoC4/RTC_1.h **** * the software package with which this file was provided.
  12:Generated_Source\PSoC4/RTC_1.h **** *******************************************************************************/
  13:Generated_Source\PSoC4/RTC_1.h **** 
  14:Generated_Source\PSoC4/RTC_1.h **** #if !defined(CY_RTC_P4_RTC_1_H)
  15:Generated_Source\PSoC4/RTC_1.h **** #define CY_RTC_P4_RTC_1_H
  16:Generated_Source\PSoC4/RTC_1.h **** 
  17:Generated_Source\PSoC4/RTC_1.h **** #include <cytypes.h>
  18:Generated_Source\PSoC4/RTC_1.h **** #include <CyLib.h>
  19:Generated_Source\PSoC4/RTC_1.h **** 
  20:Generated_Source\PSoC4/RTC_1.h **** 
  21:Generated_Source\PSoC4/RTC_1.h **** /*******************************************************************************
  22:Generated_Source\PSoC4/RTC_1.h **** *    Data types definition
  23:Generated_Source\PSoC4/RTC_1.h **** *******************************************************************************/
  24:Generated_Source\PSoC4/RTC_1.h **** /**
  25:Generated_Source\PSoC4/RTC_1.h **** * \addtogroup group_enums
  26:Generated_Source\PSoC4/RTC_1.h **** * \{
  27:Generated_Source\PSoC4/RTC_1.h **** */
  28:Generated_Source\PSoC4/RTC_1.h **** /** Daylight saving Time format enumeration */
  29:Generated_Source\PSoC4/RTC_1.h **** typedef enum
  30:Generated_Source\PSoC4/RTC_1.h **** {
  31:Generated_Source\PSoC4/RTC_1.h ****     RTC_1_DST_DATE_RELATIVE = 0u,  /**< Relative DST format */
ARM GAS  C:\Users\7709\AppData\Local\Temp\ccQ2UUYk.s 			page 2


  32:Generated_Source\PSoC4/RTC_1.h ****     RTC_1_DST_DATE_FIXED = 1u      /**< Fixed DST format */
  33:Generated_Source\PSoC4/RTC_1.h **** }RTC_1_DST_DATETYPE_ENUM;
  34:Generated_Source\PSoC4/RTC_1.h **** /** \} group_enums */
  35:Generated_Source\PSoC4/RTC_1.h **** 
  36:Generated_Source\PSoC4/RTC_1.h **** /**
  37:Generated_Source\PSoC4/RTC_1.h **** * \addtogroup group_structures
  38:Generated_Source\PSoC4/RTC_1.h **** * \{
  39:Generated_Source\PSoC4/RTC_1.h **** */
  40:Generated_Source\PSoC4/RTC_1.h **** 
  41:Generated_Source\PSoC4/RTC_1.h **** /** RTC_1_DATE_TIME structure is the data structure that is used to 
  42:Generated_Source\PSoC4/RTC_1.h **** * save the current time and date (RTC_currentTimeDate), and Alarm time and date 
  43:Generated_Source\PSoC4/RTC_1.h **** *(RTC_alarmCfgTimeDate)
  44:Generated_Source\PSoC4/RTC_1.h **** *
  45:Generated_Source\PSoC4/RTC_1.h **** */
  46:Generated_Source\PSoC4/RTC_1.h **** typedef struct
  47:Generated_Source\PSoC4/RTC_1.h **** {
  48:Generated_Source\PSoC4/RTC_1.h ****     uint32 time;        /**< Time in the format used in API*/
  49:Generated_Source\PSoC4/RTC_1.h ****     uint32 date;        /**< Date in the format used in API*/
  50:Generated_Source\PSoC4/RTC_1.h ****     uint32 dayOfWeek;   /**< Day of the week, see \ref group_rtc_day_of_the_week */
  51:Generated_Source\PSoC4/RTC_1.h ****     uint32 status;      /**< RTC status, see \ref group_rtc_status */
  52:Generated_Source\PSoC4/RTC_1.h **** }RTC_1_DATE_TIME;
  53:Generated_Source\PSoC4/RTC_1.h **** 
  54:Generated_Source\PSoC4/RTC_1.h **** /*
  55:Generated_Source\PSoC4/RTC_1.h **** * RTC_1_DST_TIME structure is the data structure that is used to 
  56:Generated_Source\PSoC4/RTC_1.h **** * save time and date values for Daylight Savings Time Start and Stop 
  57:Generated_Source\PSoC4/RTC_1.h **** * (RTC_dstTimeDateStart and RTC_dstTimeDateStop)
  58:Generated_Source\PSoC4/RTC_1.h **** */
  59:Generated_Source\PSoC4/RTC_1.h **** typedef struct
  60:Generated_Source\PSoC4/RTC_1.h **** {
  61:Generated_Source\PSoC4/RTC_1.h ****     uint32 hour;          /**< Hour value */
  62:Generated_Source\PSoC4/RTC_1.h ****     uint32 dayOfWeek;     /**< Day of the week, see \ref group_rtc_day_of_the_week */
  63:Generated_Source\PSoC4/RTC_1.h ****     uint32 dayOfMonth;    /**< Day of the month */
  64:Generated_Source\PSoC4/RTC_1.h ****     uint32 weekOfMonth;   /**< Week of the month, see \ref group_rtc_dst_week_of_month */
  65:Generated_Source\PSoC4/RTC_1.h ****     uint32 month;         /**< Month value, see \ref group_rtc_month */
  66:Generated_Source\PSoC4/RTC_1.h ****     uint8  timeFormat;    /**< The DST operation mode, see \ref 
  67:Generated_Source\PSoC4/RTC_1.h ****                                RTC_1_DST_DATETYPE_ENUM */
  68:Generated_Source\PSoC4/RTC_1.h **** }RTC_1_DST_TIME;
  69:Generated_Source\PSoC4/RTC_1.h **** /** \} group_structures */
  70:Generated_Source\PSoC4/RTC_1.h **** 
  71:Generated_Source\PSoC4/RTC_1.h **** /*******************************************************************************
  72:Generated_Source\PSoC4/RTC_1.h **** *    Enumerated Types and Parameters
  73:Generated_Source\PSoC4/RTC_1.h **** *******************************************************************************/
  74:Generated_Source\PSoC4/RTC_1.h **** /* Time Format setting constants */
  75:Generated_Source\PSoC4/RTC_1.h **** #define RTC_1__HOUR_12 1
  76:Generated_Source\PSoC4/RTC_1.h **** #define RTC_1__HOUR_24 0
  77:Generated_Source\PSoC4/RTC_1.h **** 
  78:Generated_Source\PSoC4/RTC_1.h **** /*  Date Format setting constants */
  79:Generated_Source\PSoC4/RTC_1.h **** #define RTC_1__MM_DD_YYYY 0
  80:Generated_Source\PSoC4/RTC_1.h **** #define RTC_1__DD_MM_YYYY 1
  81:Generated_Source\PSoC4/RTC_1.h **** #define RTC_1__YYYY_MM_DD 2
  82:Generated_Source\PSoC4/RTC_1.h **** 
  83:Generated_Source\PSoC4/RTC_1.h **** /* Date Type setting constants */
  84:Generated_Source\PSoC4/RTC_1.h **** #define RTC_1__RELATIVE 0
  85:Generated_Source\PSoC4/RTC_1.h **** #define RTC_1__FIXED 1
  86:Generated_Source\PSoC4/RTC_1.h **** 
  87:Generated_Source\PSoC4/RTC_1.h **** /* DST Hour setting constants */
  88:Generated_Source\PSoC4/RTC_1.h **** #define RTC_1__H0000 0
ARM GAS  C:\Users\7709\AppData\Local\Temp\ccQ2UUYk.s 			page 3


  89:Generated_Source\PSoC4/RTC_1.h **** #define RTC_1__H0100 1
  90:Generated_Source\PSoC4/RTC_1.h **** #define RTC_1__H0200 2
  91:Generated_Source\PSoC4/RTC_1.h **** #define RTC_1__H0300 3
  92:Generated_Source\PSoC4/RTC_1.h **** #define RTC_1__H0400 4
  93:Generated_Source\PSoC4/RTC_1.h **** #define RTC_1__H0500 5
  94:Generated_Source\PSoC4/RTC_1.h **** #define RTC_1__H0600 6
  95:Generated_Source\PSoC4/RTC_1.h **** #define RTC_1__H0700 7
  96:Generated_Source\PSoC4/RTC_1.h **** #define RTC_1__H0800 8
  97:Generated_Source\PSoC4/RTC_1.h **** #define RTC_1__H0900 9
  98:Generated_Source\PSoC4/RTC_1.h **** #define RTC_1__H1000 10
  99:Generated_Source\PSoC4/RTC_1.h **** #define RTC_1__H1100 11
 100:Generated_Source\PSoC4/RTC_1.h **** #define RTC_1__H1200 12
 101:Generated_Source\PSoC4/RTC_1.h **** #define RTC_1__H1300 13
 102:Generated_Source\PSoC4/RTC_1.h **** #define RTC_1__H1400 14
 103:Generated_Source\PSoC4/RTC_1.h **** #define RTC_1__H1500 15
 104:Generated_Source\PSoC4/RTC_1.h **** #define RTC_1__H1600 16
 105:Generated_Source\PSoC4/RTC_1.h **** #define RTC_1__H1700 17
 106:Generated_Source\PSoC4/RTC_1.h **** #define RTC_1__H1800 18
 107:Generated_Source\PSoC4/RTC_1.h **** #define RTC_1__H1900 19
 108:Generated_Source\PSoC4/RTC_1.h **** #define RTC_1__H2000 20
 109:Generated_Source\PSoC4/RTC_1.h **** #define RTC_1__H2100 21
 110:Generated_Source\PSoC4/RTC_1.h **** #define RTC_1__H2200 22
 111:Generated_Source\PSoC4/RTC_1.h **** #define RTC_1__H2300 23
 112:Generated_Source\PSoC4/RTC_1.h **** 
 113:Generated_Source\PSoC4/RTC_1.h **** /* DST DayOfWeek setting constants */
 114:Generated_Source\PSoC4/RTC_1.h **** #define RTC_1__SUNDAY 1
 115:Generated_Source\PSoC4/RTC_1.h **** #define RTC_1__MONDAY 2
 116:Generated_Source\PSoC4/RTC_1.h **** #define RTC_1__TUESDAY 3
 117:Generated_Source\PSoC4/RTC_1.h **** #define RTC_1__WEDNESDAY 4
 118:Generated_Source\PSoC4/RTC_1.h **** #define RTC_1__THURSDAY 5
 119:Generated_Source\PSoC4/RTC_1.h **** #define RTC_1__FRIDAY 6
 120:Generated_Source\PSoC4/RTC_1.h **** #define RTC_1__SATURDAY 7
 121:Generated_Source\PSoC4/RTC_1.h **** 
 122:Generated_Source\PSoC4/RTC_1.h **** /* DST Month setting constants */
 123:Generated_Source\PSoC4/RTC_1.h **** #define RTC_1__JAN 1
 124:Generated_Source\PSoC4/RTC_1.h **** #define RTC_1__FEB 2
 125:Generated_Source\PSoC4/RTC_1.h **** #define RTC_1__MAR 3
 126:Generated_Source\PSoC4/RTC_1.h **** #define RTC_1__APR 4
 127:Generated_Source\PSoC4/RTC_1.h **** #define RTC_1__MAY 5
 128:Generated_Source\PSoC4/RTC_1.h **** #define RTC_1__JUN 6
 129:Generated_Source\PSoC4/RTC_1.h **** #define RTC_1__JUL 7
 130:Generated_Source\PSoC4/RTC_1.h **** #define RTC_1__AUG 8
 131:Generated_Source\PSoC4/RTC_1.h **** #define RTC_1__SEP 9
 132:Generated_Source\PSoC4/RTC_1.h **** #define RTC_1__OCT 10
 133:Generated_Source\PSoC4/RTC_1.h **** #define RTC_1__NOV 11
 134:Generated_Source\PSoC4/RTC_1.h **** #define RTC_1__DEC 12
 135:Generated_Source\PSoC4/RTC_1.h **** 
 136:Generated_Source\PSoC4/RTC_1.h **** /* DST WeekOfMonth setting constants */
 137:Generated_Source\PSoC4/RTC_1.h **** #define RTC_1__FIRST 1
 138:Generated_Source\PSoC4/RTC_1.h **** #define RTC_1__SECOND 2
 139:Generated_Source\PSoC4/RTC_1.h **** #define RTC_1__THIRD 3
 140:Generated_Source\PSoC4/RTC_1.h **** #define RTC_1__FOURTH 4
 141:Generated_Source\PSoC4/RTC_1.h **** #define RTC_1__FIFTH 5
 142:Generated_Source\PSoC4/RTC_1.h **** #define RTC_1__LAST 6
 143:Generated_Source\PSoC4/RTC_1.h **** 
 144:Generated_Source\PSoC4/RTC_1.h **** 
 145:Generated_Source\PSoC4/RTC_1.h **** #define RTC_1_INITIAL_DATA_FORMAT     (0u)
ARM GAS  C:\Users\7709\AppData\Local\Temp\ccQ2UUYk.s 			page 4


 146:Generated_Source\PSoC4/RTC_1.h **** #define RTC_1_INITIAL_TIME_FORMAT     (1u)
 147:Generated_Source\PSoC4/RTC_1.h **** #define RTC_1_INITIAL_UPDATE_MODE     (0u)
 148:Generated_Source\PSoC4/RTC_1.h **** #define RTC_1_INITIAL_SECOND          (10u)
 149:Generated_Source\PSoC4/RTC_1.h **** #define RTC_1_INITIAL_MINUTE          (38u)
 150:Generated_Source\PSoC4/RTC_1.h **** #define RTC_1_INITIAL_HOUR            (9u)
 151:Generated_Source\PSoC4/RTC_1.h **** #define RTC_1_INITIAL_DAY             (28u)
 152:Generated_Source\PSoC4/RTC_1.h **** #define RTC_1_INITIAL_MONTH           (11u)
 153:Generated_Source\PSoC4/RTC_1.h **** #define RTC_1_INITIAL_YEAR            (2017u)
 154:Generated_Source\PSoC4/RTC_1.h **** 
 155:Generated_Source\PSoC4/RTC_1.h **** #define RTC_1_INITIAL_ALARM_STATUS    (0u)
 156:Generated_Source\PSoC4/RTC_1.h **** 
 157:Generated_Source\PSoC4/RTC_1.h **** #define RTC_1_INITIAL_DST_STATUS      (0u)
 158:Generated_Source\PSoC4/RTC_1.h **** #define RTC_1_INITIAL_DST_DATE_TYPE   (0u)
 159:Generated_Source\PSoC4/RTC_1.h **** #define RTC_1_INITIAL_DST_START_MONTH (3uL)
 160:Generated_Source\PSoC4/RTC_1.h **** #define RTC_1_INITIAL_DST_START_WOM   (6uL)
 161:Generated_Source\PSoC4/RTC_1.h **** #define RTC_1_INITIAL_DST_START_DOM   (22uL)
 162:Generated_Source\PSoC4/RTC_1.h **** #define RTC_1_INITIAL_DST_START_DOW   (1uL)
 163:Generated_Source\PSoC4/RTC_1.h **** #define RTC_1_INITIAL_DST_START_HRS   (0uL)
 164:Generated_Source\PSoC4/RTC_1.h **** #define RTC_1_INITIAL_DST_STOP_MONTH  (10uL)
 165:Generated_Source\PSoC4/RTC_1.h **** #define RTC_1_INITIAL_DST_STOP_DOM    (22uL)
 166:Generated_Source\PSoC4/RTC_1.h **** #define RTC_1_INITIAL_DST_STOP_DOW    (1uL)
 167:Generated_Source\PSoC4/RTC_1.h **** #define RTC_1_INITIAL_DST_STOP_WOM    (6uL)
 168:Generated_Source\PSoC4/RTC_1.h **** #define RTC_1_INITIAL_DST_STOP_HRS    (0uL)
 169:Generated_Source\PSoC4/RTC_1.h **** 
 170:Generated_Source\PSoC4/RTC_1.h **** /**
 171:Generated_Source\PSoC4/RTC_1.h **** * \addtogroup group_constants
 172:Generated_Source\PSoC4/RTC_1.h **** * \{
 173:Generated_Source\PSoC4/RTC_1.h **** */
 174:Generated_Source\PSoC4/RTC_1.h **** 
 175:Generated_Source\PSoC4/RTC_1.h **** /**
 176:Generated_Source\PSoC4/RTC_1.h **** * \defgroup group_rtc_day_of_the_week Day of the week definitions
 177:Generated_Source\PSoC4/RTC_1.h **** * \{
 178:Generated_Source\PSoC4/RTC_1.h **** * Definitions of days in the week
 179:Generated_Source\PSoC4/RTC_1.h **** */
 180:Generated_Source\PSoC4/RTC_1.h **** #define RTC_1_SUNDAY     (RTC_1__SUNDAY)       /**< Sequential number of Sunday in the week */
 181:Generated_Source\PSoC4/RTC_1.h **** #define RTC_1_MONDAY     (RTC_1__MONDAY)       /**< Sequential number of Monday in the week */
 182:Generated_Source\PSoC4/RTC_1.h **** #define RTC_1_TUESDAY    (RTC_1__TUESDAY)      /**< Sequential number of Tuesday in the week */
 183:Generated_Source\PSoC4/RTC_1.h **** #define RTC_1_WEDNESDAY  (RTC_1__WEDNESDAY)    /**< Sequential number of Wednesday in the week */
 184:Generated_Source\PSoC4/RTC_1.h **** #define RTC_1_THURSDAY   (RTC_1__THURSDAY)     /**< Sequential number of Thursday in the week */
 185:Generated_Source\PSoC4/RTC_1.h **** #define RTC_1_FRIDAY     (RTC_1__FRIDAY)       /**< Sequential number of Friday in the week */
 186:Generated_Source\PSoC4/RTC_1.h **** #define RTC_1_SATURDAY   (RTC_1__SATURDAY)     /**< Sequential number of Saturday in the week */
 187:Generated_Source\PSoC4/RTC_1.h **** /** \} group_rtc_day_of_the_week */
 188:Generated_Source\PSoC4/RTC_1.h **** 
 189:Generated_Source\PSoC4/RTC_1.h **** /**
 190:Generated_Source\PSoC4/RTC_1.h **** * \defgroup group_rtc_dst_week_of_month DST Week of month setting constants definitions
 191:Generated_Source\PSoC4/RTC_1.h **** * \{
 192:Generated_Source\PSoC4/RTC_1.h **** * Week of month setting constants definitions for Daylight Saving Time feature
 193:Generated_Source\PSoC4/RTC_1.h **** */
 194:Generated_Source\PSoC4/RTC_1.h **** #define RTC_1_FIRST      (RTC_1__FIRST)   /**< First week in the month */
 195:Generated_Source\PSoC4/RTC_1.h **** #define RTC_1_SECOND     (RTC_1__SECOND)  /**< Second week in the month  */
 196:Generated_Source\PSoC4/RTC_1.h **** #define RTC_1_THIRD      (RTC_1__THIRD)   /**< Third week in the month  */
 197:Generated_Source\PSoC4/RTC_1.h **** #define RTC_1_FOURTH     (RTC_1__FOURTH)  /**< Fourth week in the month  */
 198:Generated_Source\PSoC4/RTC_1.h **** #define RTC_1_FIFTH      (RTC_1__FIFTH)   /**< Fifth week in the month  */
 199:Generated_Source\PSoC4/RTC_1.h **** #define RTC_1_LAST       (RTC_1__LAST)    /**< Last week in the month  */
 200:Generated_Source\PSoC4/RTC_1.h **** /** \} group_rtc_dst_week_of_month */
 201:Generated_Source\PSoC4/RTC_1.h **** 
 202:Generated_Source\PSoC4/RTC_1.h **** /**
ARM GAS  C:\Users\7709\AppData\Local\Temp\ccQ2UUYk.s 			page 5


 203:Generated_Source\PSoC4/RTC_1.h **** * \defgroup group_rtc_month Month definitions
 204:Generated_Source\PSoC4/RTC_1.h **** * \{
 205:Generated_Source\PSoC4/RTC_1.h **** * Constants definition for Months
 206:Generated_Source\PSoC4/RTC_1.h **** */
 207:Generated_Source\PSoC4/RTC_1.h **** #define RTC_1_JANUARY    (RTC_1__JAN)    /**< Sequential number of January in the year */
 208:Generated_Source\PSoC4/RTC_1.h **** #define RTC_1_FEBRUARY   (RTC_1__FEB)    /**< Sequential number of February in the year */
 209:Generated_Source\PSoC4/RTC_1.h **** #define RTC_1_MARCH      (RTC_1__MAR)    /**< Sequential number of March in the year */
 210:Generated_Source\PSoC4/RTC_1.h **** #define RTC_1_APRIL      (RTC_1__APR)    /**< Sequential number of April in the year */
 211:Generated_Source\PSoC4/RTC_1.h **** #define RTC_1_MAY        (RTC_1__MAY)    /**< Sequential number of May in the year */
 212:Generated_Source\PSoC4/RTC_1.h **** #define RTC_1_JUNE       (RTC_1__JUN)    /**< Sequential number of June in the year */
 213:Generated_Source\PSoC4/RTC_1.h **** #define RTC_1_JULY       (RTC_1__JUL)    /**< Sequential number of July in the year */
 214:Generated_Source\PSoC4/RTC_1.h **** #define RTC_1_AUGUST     (RTC_1__AUG)    /**< Sequential number of August in the year */
 215:Generated_Source\PSoC4/RTC_1.h **** #define RTC_1_SEPTEMBER  (RTC_1__SEP)    /**< Sequential number of September in the year */
 216:Generated_Source\PSoC4/RTC_1.h **** #define RTC_1_OCTOBER    (RTC_1__OCT)    /**< Sequential number of October in the year */
 217:Generated_Source\PSoC4/RTC_1.h **** #define RTC_1_NOVEMBER   (RTC_1__NOV)    /**< Sequential number of November in the year */
 218:Generated_Source\PSoC4/RTC_1.h **** #define RTC_1_DECEMBER   (RTC_1__DEC)    /**< Sequential number of December in the year */
 219:Generated_Source\PSoC4/RTC_1.h **** /** \} group_rtc_month */
 220:Generated_Source\PSoC4/RTC_1.h **** 
 221:Generated_Source\PSoC4/RTC_1.h **** /**
 222:Generated_Source\PSoC4/RTC_1.h **** * \defgroup group_rtc_am_pm AM/PM status definitions
 223:Generated_Source\PSoC4/RTC_1.h **** * \{
 224:Generated_Source\PSoC4/RTC_1.h **** * Definitions for 12 hour format for indicating the AM/PM period of day
 225:Generated_Source\PSoC4/RTC_1.h **** */
 226:Generated_Source\PSoC4/RTC_1.h **** #define RTC_1_AM                 (0u)    /**< AM period of day */
 227:Generated_Source\PSoC4/RTC_1.h **** #define RTC_1_PM                 (1u)    /**< PM period of day */
 228:Generated_Source\PSoC4/RTC_1.h **** /** \} group_rtc_am_pm */
 229:Generated_Source\PSoC4/RTC_1.h **** 
 230:Generated_Source\PSoC4/RTC_1.h **** /**
 231:Generated_Source\PSoC4/RTC_1.h **** * \defgroup group_rtc_hour_format Hour format definitions
 232:Generated_Source\PSoC4/RTC_1.h **** * \{
 233:Generated_Source\PSoC4/RTC_1.h **** * Definitions for hour format
 234:Generated_Source\PSoC4/RTC_1.h **** */
 235:Generated_Source\PSoC4/RTC_1.h **** #define RTC_1_12_HOURS_FORMAT    (RTC_1__HOUR_12) /**< The 24 hour format */
 236:Generated_Source\PSoC4/RTC_1.h **** #define RTC_1_24_HOURS_FORMAT    (RTC_1__HOUR_24) /**< The 12 hour (AM/PM) format */
 237:Generated_Source\PSoC4/RTC_1.h **** /** \} group_rtc_hour_format */
 238:Generated_Source\PSoC4/RTC_1.h **** 
 239:Generated_Source\PSoC4/RTC_1.h **** /**
 240:Generated_Source\PSoC4/RTC_1.h **** * \defgroup group_rtc_days_in_month Number of days in month definitions
 241:Generated_Source\PSoC4/RTC_1.h **** * \{
 242:Generated_Source\PSoC4/RTC_1.h **** * Definition of days in current month
 243:Generated_Source\PSoC4/RTC_1.h **** */
 244:Generated_Source\PSoC4/RTC_1.h **** #define RTC_1_DAYS_IN_JANUARY     (31u)    /**< Number of days in January  */
 245:Generated_Source\PSoC4/RTC_1.h **** #define RTC_1_DAYS_IN_FEBRUARY    (28u)    /**< Number of days in February */
 246:Generated_Source\PSoC4/RTC_1.h **** #define RTC_1_DAYS_IN_MARCH       (31u)    /**< Number of days in March */
 247:Generated_Source\PSoC4/RTC_1.h **** #define RTC_1_DAYS_IN_APRIL       (30u)    /**< Number of days in April */
 248:Generated_Source\PSoC4/RTC_1.h **** #define RTC_1_DAYS_IN_MAY         (31u)    /**< Number of days in May */
 249:Generated_Source\PSoC4/RTC_1.h **** #define RTC_1_DAYS_IN_JUNE        (30u)    /**< Number of days in June */
 250:Generated_Source\PSoC4/RTC_1.h **** #define RTC_1_DAYS_IN_JULY        (31u)    /**< Number of days in July */
 251:Generated_Source\PSoC4/RTC_1.h **** #define RTC_1_DAYS_IN_AUGUST      (31u)    /**< Number of days in August */
 252:Generated_Source\PSoC4/RTC_1.h **** #define RTC_1_DAYS_IN_SEPTEMBER   (30u)    /**< Number of days in September */
 253:Generated_Source\PSoC4/RTC_1.h **** #define RTC_1_DAYS_IN_OCTOBER     (31u)    /**< Number of days in October */
 254:Generated_Source\PSoC4/RTC_1.h **** #define RTC_1_DAYS_IN_NOVEMBER    (30u)    /**< Number of days in November */
 255:Generated_Source\PSoC4/RTC_1.h **** #define RTC_1_DAYS_IN_DECEMBER    (31u)    /**< Number of days in December */
 256:Generated_Source\PSoC4/RTC_1.h **** /** \} group_rtc_days_in_month */
 257:Generated_Source\PSoC4/RTC_1.h **** 
 258:Generated_Source\PSoC4/RTC_1.h **** /**
 259:Generated_Source\PSoC4/RTC_1.h **** * \defgroup group_rtc_status Definitions of the RTC status values
ARM GAS  C:\Users\7709\AppData\Local\Temp\ccQ2UUYk.s 			page 6


 260:Generated_Source\PSoC4/RTC_1.h **** * \{
 261:Generated_Source\PSoC4/RTC_1.h **** * Definitions for status software register, which has flags for DST (DST),
 262:Generated_Source\PSoC4/RTC_1.h **** * Leap Year (LY), AM/PM (AM_PM).
 263:Generated_Source\PSoC4/RTC_1.h **** */
 264:Generated_Source\PSoC4/RTC_1.h **** 
 265:Generated_Source\PSoC4/RTC_1.h **** /** Status of Daylight Saving Time. This bit
 266:Generated_Source\PSoC4/RTC_1.h **** * goes high when the current time and date match the DST time and date and the 
 267:Generated_Source\PSoC4/RTC_1.h **** * time is incremented. This bit goes low after the DST interval and the time is 
 268:Generated_Source\PSoC4/RTC_1.h **** * decremented.
 269:Generated_Source\PSoC4/RTC_1.h **** */
 270:Generated_Source\PSoC4/RTC_1.h **** #define RTC_1_STATUS_DST     (1uL << RTC_1_STATUS_DST_OFFSET)
 271:Generated_Source\PSoC4/RTC_1.h **** 
 272:Generated_Source\PSoC4/RTC_1.h **** /** Status of Leap Year. This bit goes high when the current year is a leap year */
 273:Generated_Source\PSoC4/RTC_1.h **** #define RTC_1_STATUS_LY      (1uL << RTC_1_STATUS_LY_OFFSET)
 274:Generated_Source\PSoC4/RTC_1.h **** 
 275:Generated_Source\PSoC4/RTC_1.h **** /** Status of Current Time. This bit is low from midnight to noon and high from 
 276:Generated_Source\PSoC4/RTC_1.h **** *  noon to midnight. */
 277:Generated_Source\PSoC4/RTC_1.h **** #define RTC_1_STATUS_AM_PM   (1uL << RTC_1_STATUS_AM_PM_OFFSET)
 278:Generated_Source\PSoC4/RTC_1.h **** /** \} group_rtc_status */
 279:Generated_Source\PSoC4/RTC_1.h **** 
 280:Generated_Source\PSoC4/RTC_1.h **** /**
 281:Generated_Source\PSoC4/RTC_1.h **** * \defgroup group_rtc_alarm_mask Definitions for Alarm Mask software register
 282:Generated_Source\PSoC4/RTC_1.h **** * \{
 283:Generated_Source\PSoC4/RTC_1.h **** * Definitions for Alarm Mask software register. These masks allow 
 284:Generated_Source\PSoC4/RTC_1.h **** * matching the alarm value register with the current value register.
 285:Generated_Source\PSoC4/RTC_1.h **** */
 286:Generated_Source\PSoC4/RTC_1.h **** 
 287:Generated_Source\PSoC4/RTC_1.h **** /** The second alarm mask allows matching the alarm second register with the 
 288:Generated_Source\PSoC4/RTC_1.h **** *   current second register.
 289:Generated_Source\PSoC4/RTC_1.h **** */
 290:Generated_Source\PSoC4/RTC_1.h **** #define RTC_1_ALARM_SEC_MASK         (0x00000001uL)
 291:Generated_Source\PSoC4/RTC_1.h **** 
 292:Generated_Source\PSoC4/RTC_1.h **** /** The minute alarm mask allows matching the alarm minute register with the 
 293:Generated_Source\PSoC4/RTC_1.h **** *   current minute register.
 294:Generated_Source\PSoC4/RTC_1.h **** */
 295:Generated_Source\PSoC4/RTC_1.h **** #define RTC_1_ALARM_MIN_MASK         (0x00000002uL)
 296:Generated_Source\PSoC4/RTC_1.h **** 
 297:Generated_Source\PSoC4/RTC_1.h **** /** The hour alarm mask allows matching the alarm hour register with the 
 298:Generated_Source\PSoC4/RTC_1.h **** *   current hour register.
 299:Generated_Source\PSoC4/RTC_1.h **** */
 300:Generated_Source\PSoC4/RTC_1.h **** #define RTC_1_ALARM_HOUR_MASK        (0x00000004uL)
 301:Generated_Source\PSoC4/RTC_1.h **** 
 302:Generated_Source\PSoC4/RTC_1.h **** /** The day of the week alarm mask allows matching the alarm hour register with 
 303:Generated_Source\PSoC4/RTC_1.h **** *   the current day of the week register.
 304:Generated_Source\PSoC4/RTC_1.h **** */
 305:Generated_Source\PSoC4/RTC_1.h **** #define RTC_1_ALARM_DAYOFWEEK_MASK   (0x00000008uL)
 306:Generated_Source\PSoC4/RTC_1.h **** 
 307:Generated_Source\PSoC4/RTC_1.h **** /** The day of the Month alarm mask allows matching the alarm hour register with 
 308:Generated_Source\PSoC4/RTC_1.h **** *   the current day of the Month register.
 309:Generated_Source\PSoC4/RTC_1.h **** */
 310:Generated_Source\PSoC4/RTC_1.h **** #define RTC_1_ALARM_DAYOFMONTH_MASK  (0x00000010uL)
 311:Generated_Source\PSoC4/RTC_1.h **** 
 312:Generated_Source\PSoC4/RTC_1.h **** /** The month alarm mask allows matching the alarm hour register with the
 313:Generated_Source\PSoC4/RTC_1.h **** *   current month register.
 314:Generated_Source\PSoC4/RTC_1.h **** */
 315:Generated_Source\PSoC4/RTC_1.h **** #define RTC_1_ALARM_MONTH_MASK       (0x00000020uL)
 316:Generated_Source\PSoC4/RTC_1.h **** 
ARM GAS  C:\Users\7709\AppData\Local\Temp\ccQ2UUYk.s 			page 7


 317:Generated_Source\PSoC4/RTC_1.h **** /** The year alarm mask allows matching the alarm hour register with the
 318:Generated_Source\PSoC4/RTC_1.h **** *   current year register.
 319:Generated_Source\PSoC4/RTC_1.h **** */
 320:Generated_Source\PSoC4/RTC_1.h **** #define RTC_1_ALARM_YEAR_MASK        (0x00000040uL)
 321:Generated_Source\PSoC4/RTC_1.h **** 
 322:Generated_Source\PSoC4/RTC_1.h **** /** \} group_rtc_alarm_mask */
 323:Generated_Source\PSoC4/RTC_1.h **** /** \} group_constants */
 324:Generated_Source\PSoC4/RTC_1.h **** 
 325:Generated_Source\PSoC4/RTC_1.h **** #define RTC_1_DAYS_PER_WEEK       (7u)
 326:Generated_Source\PSoC4/RTC_1.h **** 
 327:Generated_Source\PSoC4/RTC_1.h **** #define RTC_1_MONTHS_PER_YEAR     (12uL)
 328:Generated_Source\PSoC4/RTC_1.h **** 
 329:Generated_Source\PSoC4/RTC_1.h **** #define RTC_1_HOURS_PER_DAY       (24uL)
 330:Generated_Source\PSoC4/RTC_1.h **** #define RTC_1_HOURS_PER_HALF_DAY  (12uL)
 331:Generated_Source\PSoC4/RTC_1.h **** 
 332:Generated_Source\PSoC4/RTC_1.h **** #define RTC_1_SECONDS_PER_MINUTE  (60uL)
 333:Generated_Source\PSoC4/RTC_1.h **** #define RTC_1_SECONDS_PER_HOUR    (3600uL)
 334:Generated_Source\PSoC4/RTC_1.h **** #define RTC_1_SECONDS_PER_DAY     (24uL * 3600uL)
 335:Generated_Source\PSoC4/RTC_1.h **** 
 336:Generated_Source\PSoC4/RTC_1.h **** #define RTC_1_SECONDS_PER_LEAP_YEAR    (366uL * 24uL * 3600uL)
 337:Generated_Source\PSoC4/RTC_1.h **** #define RTC_1_SECONDS_PER_NONLEAP_YEAR (365uL * 24uL * 3600uL)
 338:Generated_Source\PSoC4/RTC_1.h **** 
 339:Generated_Source\PSoC4/RTC_1.h **** #define RTC_1_UNIX_TIME_PM        ((12uL * 3600uL) + 1uL)
 340:Generated_Source\PSoC4/RTC_1.h **** 
 341:Generated_Source\PSoC4/RTC_1.h **** /* Unix time begins in 1970 year */
 342:Generated_Source\PSoC4/RTC_1.h **** #define RTC_1_YEAR_0             (1970u)
 343:Generated_Source\PSoC4/RTC_1.h **** 
 344:Generated_Source\PSoC4/RTC_1.h **** /* Definition of date register fields */
 345:Generated_Source\PSoC4/RTC_1.h **** #if(RTC_1_INITIAL_DATA_FORMAT == RTC_1__MM_DD_YYYY)
 346:Generated_Source\PSoC4/RTC_1.h ****     #define RTC_1_10_MONTH_OFFSET   (28u)
 347:Generated_Source\PSoC4/RTC_1.h ****     #define RTC_1_MONTH_OFFSET      (24u)
 348:Generated_Source\PSoC4/RTC_1.h ****     #define RTC_1_10_DAY_OFFSET     (20u)
 349:Generated_Source\PSoC4/RTC_1.h ****     #define RTC_1_DAY_OFFSET        (16u)
 350:Generated_Source\PSoC4/RTC_1.h ****     #define RTC_1_1000_YEAR_OFFSET  (12u)
 351:Generated_Source\PSoC4/RTC_1.h ****     #define RTC_1_100_YEAR_OFFSET   (8u)
 352:Generated_Source\PSoC4/RTC_1.h ****     #define RTC_1_10_YEAR_OFFSET    (4u)
 353:Generated_Source\PSoC4/RTC_1.h ****     #define RTC_1_YEAR_OFFSET       (0u)
 354:Generated_Source\PSoC4/RTC_1.h **** #elif(RTC_1_INITIAL_DATA_FORMAT == RTC_1__DD_MM_YYYY)
 355:Generated_Source\PSoC4/RTC_1.h ****     #define RTC_1_10_MONTH_OFFSET   (20u)
 356:Generated_Source\PSoC4/RTC_1.h ****     #define RTC_1_MONTH_OFFSET      (16u)
 357:Generated_Source\PSoC4/RTC_1.h ****     #define RTC_1_10_DAY_OFFSET     (28u)
 358:Generated_Source\PSoC4/RTC_1.h ****     #define RTC_1_DAY_OFFSET        (24u)
 359:Generated_Source\PSoC4/RTC_1.h ****     #define RTC_1_1000_YEAR_OFFSET  (12u)
 360:Generated_Source\PSoC4/RTC_1.h ****     #define RTC_1_100_YEAR_OFFSET   (8u)
 361:Generated_Source\PSoC4/RTC_1.h ****     #define RTC_1_10_YEAR_OFFSET    (4u)
 362:Generated_Source\PSoC4/RTC_1.h ****     #define RTC_1_YEAR_OFFSET       (0u)
 363:Generated_Source\PSoC4/RTC_1.h **** #else
 364:Generated_Source\PSoC4/RTC_1.h ****     #define RTC_1_10_MONTH_OFFSET   (12u)
 365:Generated_Source\PSoC4/RTC_1.h ****     #define RTC_1_MONTH_OFFSET      (8u)
 366:Generated_Source\PSoC4/RTC_1.h ****     #define RTC_1_10_DAY_OFFSET     (4u)
 367:Generated_Source\PSoC4/RTC_1.h ****     #define RTC_1_DAY_OFFSET        (0u)
 368:Generated_Source\PSoC4/RTC_1.h ****     #define RTC_1_1000_YEAR_OFFSET  (28u)
 369:Generated_Source\PSoC4/RTC_1.h ****     #define RTC_1_100_YEAR_OFFSET   (24u)
 370:Generated_Source\PSoC4/RTC_1.h ****     #define RTC_1_10_YEAR_OFFSET    (20u)
 371:Generated_Source\PSoC4/RTC_1.h ****     #define RTC_1_YEAR_OFFSET       (16u)
 372:Generated_Source\PSoC4/RTC_1.h **** #endif /* (RTC_1_INITIAL_DATA_FORMAT == RTC_1__MM_DD_YYYY) */
 373:Generated_Source\PSoC4/RTC_1.h **** 
ARM GAS  C:\Users\7709\AppData\Local\Temp\ccQ2UUYk.s 			page 8


 374:Generated_Source\PSoC4/RTC_1.h **** #define RTC_1_10_MONTH_MASK          (0x00000001uL << RTC_1_10_MONTH_OFFSET)
 375:Generated_Source\PSoC4/RTC_1.h **** #define RTC_1_MONTH_MASK             (0x0000000FuL << RTC_1_MONTH_OFFSET)
 376:Generated_Source\PSoC4/RTC_1.h **** #define RTC_1_10_DAY_MASK            (0x00000003uL << RTC_1_10_DAY_OFFSET)
 377:Generated_Source\PSoC4/RTC_1.h **** #define RTC_1_DAY_MASK               (0x0000000FuL << RTC_1_DAY_OFFSET)
 378:Generated_Source\PSoC4/RTC_1.h **** #define RTC_1_1000_YEAR_MASK         (0x00000003uL << RTC_1_1000_YEAR_OFFSET)
 379:Generated_Source\PSoC4/RTC_1.h **** #define RTC_1_100_YEAR_MASK          (0x0000000FuL << RTC_1_100_YEAR_OFFSET)
 380:Generated_Source\PSoC4/RTC_1.h **** #define RTC_1_10_YEAR_MASK           (0x0000000FuL << RTC_1_10_YEAR_OFFSET)
 381:Generated_Source\PSoC4/RTC_1.h **** #define RTC_1_YEAR_MASK              (0x0000000FuL << RTC_1_YEAR_OFFSET)
 382:Generated_Source\PSoC4/RTC_1.h **** 
 383:Generated_Source\PSoC4/RTC_1.h **** #define  RTC_1_MONTH_FULL_MASK       (RTC_1_10_MONTH_MASK  | RTC_1_MONTH_MASK)
 384:Generated_Source\PSoC4/RTC_1.h **** #define  RTC_1_DAY_FULL_MASK         (RTC_1_10_DAY_MASK    | RTC_1_DAY_MASK)
 385:Generated_Source\PSoC4/RTC_1.h **** #define  RTC_1_YEAR_FULL_MASK        (RTC_1_1000_YEAR_MASK | RTC_1_100_YEAR_MASK |\
 386:Generated_Source\PSoC4/RTC_1.h ****                                                  RTC_1_10_YEAR_MASK   | RTC_1_YEAR_MASK)
 387:Generated_Source\PSoC4/RTC_1.h **** 
 388:Generated_Source\PSoC4/RTC_1.h **** /* Definition of time register fields */
 389:Generated_Source\PSoC4/RTC_1.h **** #define RTC_1_TIME_FORMAT_OFFSET     (23u)
 390:Generated_Source\PSoC4/RTC_1.h **** #define RTC_1_PERIOD_OF_DAY_OFFSET   (22u)
 391:Generated_Source\PSoC4/RTC_1.h **** #define RTC_1_10_HOURS_OFFSET        (20u)
 392:Generated_Source\PSoC4/RTC_1.h **** #define RTC_1_HOURS_OFFSET           (16u)
 393:Generated_Source\PSoC4/RTC_1.h **** #define RTC_1_10_MINUTES_OFFSET      (12u)
 394:Generated_Source\PSoC4/RTC_1.h **** #define RTC_1_MINUTES_OFFSET         (8u)
 395:Generated_Source\PSoC4/RTC_1.h **** #define RTC_1_10_SECONDS_OFFSET      (4u)
 396:Generated_Source\PSoC4/RTC_1.h **** #define RTC_1_SECONDS_OFFSET         (0u)
 397:Generated_Source\PSoC4/RTC_1.h **** 
 398:Generated_Source\PSoC4/RTC_1.h **** #define RTC_1_TIME_FORMAT_MASK       (0x00000001uL << RTC_1_TIME_FORMAT_OFFSET)
 399:Generated_Source\PSoC4/RTC_1.h **** #define RTC_1_PERIOD_OF_DAY_MASK     (0x00000001uL << RTC_1_PERIOD_OF_DAY_OFFSET)
 400:Generated_Source\PSoC4/RTC_1.h **** #define RTC_1_10_HOURS_MASK          (0x00000003uL << RTC_1_10_HOURS_OFFSET)
 401:Generated_Source\PSoC4/RTC_1.h **** #define RTC_1_HOURS_MASK             (0x0000000FuL << RTC_1_HOURS_OFFSET)
 402:Generated_Source\PSoC4/RTC_1.h **** #define RTC_1_10_MINUTES_MASK        (0x00000007uL << RTC_1_10_MINUTES_OFFSET)
 403:Generated_Source\PSoC4/RTC_1.h **** #define RTC_1_MINUTES_MASK           (0x0000000FuL << RTC_1_MINUTES_OFFSET)
 404:Generated_Source\PSoC4/RTC_1.h **** #define RTC_1_10_SECONDS_MASK        (0x00000007uL << RTC_1_10_SECONDS_OFFSET)
 405:Generated_Source\PSoC4/RTC_1.h **** #define RTC_1_SECONDS_MASK           (0x0000000FuL << RTC_1_SECONDS_OFFSET)
 406:Generated_Source\PSoC4/RTC_1.h **** 
 407:Generated_Source\PSoC4/RTC_1.h **** #define RTC_1_HOURS_FULL_MASK        (RTC_1_10_HOURS_MASK   | RTC_1_HOURS_MASK)
 408:Generated_Source\PSoC4/RTC_1.h **** #define RTC_1_MINUTES_FULL_MASK      (RTC_1_10_MINUTES_MASK | RTC_1_MINUTES_MASK)
 409:Generated_Source\PSoC4/RTC_1.h **** #define RTC_1_SECONDS_FULL_MASK      (RTC_1_10_SECONDS_MASK | RTC_1_SECONDS_MASK)
 410:Generated_Source\PSoC4/RTC_1.h **** 
 411:Generated_Source\PSoC4/RTC_1.h **** #define RTC_1_STATUS_DST_OFFSET      (1u)
 412:Generated_Source\PSoC4/RTC_1.h **** #define RTC_1_STATUS_ALARM_OFFSET    (2u)
 413:Generated_Source\PSoC4/RTC_1.h **** #define RTC_1_STATUS_LY_OFFSET       (3u)
 414:Generated_Source\PSoC4/RTC_1.h **** #define RTC_1_STATUS_AM_PM_OFFSET    (4u)
 415:Generated_Source\PSoC4/RTC_1.h **** 
 416:Generated_Source\PSoC4/RTC_1.h **** /* Number of bits per one BCD digit */
 417:Generated_Source\PSoC4/RTC_1.h **** #define RTC_1_BCD_NUMBER_SIZE        (4u)
 418:Generated_Source\PSoC4/RTC_1.h **** #define RTC_1_BCD_ONE_DIGIT_MASK     (0x0000000FuL)
 419:Generated_Source\PSoC4/RTC_1.h **** 
 420:Generated_Source\PSoC4/RTC_1.h **** 
 421:Generated_Source\PSoC4/RTC_1.h **** /*******************************************************************************
 422:Generated_Source\PSoC4/RTC_1.h **** *    External Variables
 423:Generated_Source\PSoC4/RTC_1.h **** *******************************************************************************/
 424:Generated_Source\PSoC4/RTC_1.h **** /**
 425:Generated_Source\PSoC4/RTC_1.h **** * \addtogroup group_globals
 426:Generated_Source\PSoC4/RTC_1.h **** * \{
 427:Generated_Source\PSoC4/RTC_1.h **** */
 428:Generated_Source\PSoC4/RTC_1.h **** 
 429:Generated_Source\PSoC4/RTC_1.h **** /**
 430:Generated_Source\PSoC4/RTC_1.h **** * Indicates whether the RTC has been initialized; The variable is initialized to
ARM GAS  C:\Users\7709\AppData\Local\Temp\ccQ2UUYk.s 			page 9


 431:Generated_Source\PSoC4/RTC_1.h **** * 0 and set to 1 the first time RTC_Start() is called. This allows the component
 432:Generated_Source\PSoC4/RTC_1.h **** * to restart without reinitialization after the first call to the RTC_Start() 
 433:Generated_Source\PSoC4/RTC_1.h **** * routine.
 434:Generated_Source\PSoC4/RTC_1.h **** */
 435:Generated_Source\PSoC4/RTC_1.h **** extern uint8  RTC_1_initVar;
 436:Generated_Source\PSoC4/RTC_1.h **** 
 437:Generated_Source\PSoC4/RTC_1.h **** /** The DST start/stop status */
 438:Generated_Source\PSoC4/RTC_1.h **** extern uint8  RTC_1_dstStatus;
 439:Generated_Source\PSoC4/RTC_1.h **** 
 440:Generated_Source\PSoC4/RTC_1.h **** /**
 441:Generated_Source\PSoC4/RTC_1.h **** * The uint64 variable represents the standard Unix time (number of seconds 
 442:Generated_Source\PSoC4/RTC_1.h **** * elapsed from January 1, 1970 00:00 hours UTC) in 64-bit 
 443:Generated_Source\PSoC4/RTC_1.h **** */
 444:Generated_Source\PSoC4/RTC_1.h **** extern volatile uint64 RTC_1_unixTime;
 445:Generated_Source\PSoC4/RTC_1.h **** 
 446:Generated_Source\PSoC4/RTC_1.h **** /** The values for the time and date of the DST start */
 447:Generated_Source\PSoC4/RTC_1.h **** extern RTC_1_DST_TIME RTC_1_dstStartTime;
 448:Generated_Source\PSoC4/RTC_1.h **** 
 449:Generated_Source\PSoC4/RTC_1.h **** /** The values for the time and date of the DST stop */
 450:Generated_Source\PSoC4/RTC_1.h **** extern RTC_1_DST_TIME RTC_1_dstStopTime;
 451:Generated_Source\PSoC4/RTC_1.h **** 
 452:Generated_Source\PSoC4/RTC_1.h **** /**
 453:Generated_Source\PSoC4/RTC_1.h **** * The last updated time and date values are stored in this structure (update 
 454:Generated_Source\PSoC4/RTC_1.h **** * happens in Get time/date APIs)
 455:Generated_Source\PSoC4/RTC_1.h **** */
 456:Generated_Source\PSoC4/RTC_1.h **** extern RTC_1_DATE_TIME RTC_1_currentTimeDate;
 457:Generated_Source\PSoC4/RTC_1.h **** 
 458:Generated_Source\PSoC4/RTC_1.h **** /** The alarm time and date values are stored in this variable */
 459:Generated_Source\PSoC4/RTC_1.h **** extern RTC_1_DATE_TIME RTC_1_alarmCfgTimeDate;
 460:Generated_Source\PSoC4/RTC_1.h **** 
 461:Generated_Source\PSoC4/RTC_1.h **** /**
 462:Generated_Source\PSoC4/RTC_1.h **** * This variable is used to mask alarm events; mask seconds alarm, mask minutes 
 463:Generated_Source\PSoC4/RTC_1.h **** * alarm, and so on. It will have bit masks for each time item masking that item 
 464:Generated_Source\PSoC4/RTC_1.h **** * for alarm generation
 465:Generated_Source\PSoC4/RTC_1.h **** */
 466:Generated_Source\PSoC4/RTC_1.h **** extern uint32  RTC_1_alarmCfgMask;
 467:Generated_Source\PSoC4/RTC_1.h **** 
 468:Generated_Source\PSoC4/RTC_1.h **** /**
 469:Generated_Source\PSoC4/RTC_1.h **** * This variable is used to indicate current active alarm status per time item 
 470:Generated_Source\PSoC4/RTC_1.h **** * used in the alarm; whether seconds alarm is active, minute's alarm is active, 
 471:Generated_Source\PSoC4/RTC_1.h **** * and so on. It will have bit masks for each time item (seconds, minutes, hours,
 472:Generated_Source\PSoC4/RTC_1.h **** * day, and so on) showing the status
 473:Generated_Source\PSoC4/RTC_1.h **** */
 474:Generated_Source\PSoC4/RTC_1.h **** extern uint32 RTC_1_alarmCurStatus;
 475:Generated_Source\PSoC4/RTC_1.h **** 
 476:Generated_Source\PSoC4/RTC_1.h **** /** \} group_globals */
 477:Generated_Source\PSoC4/RTC_1.h **** 
 478:Generated_Source\PSoC4/RTC_1.h **** extern void (*RTC_1_alarmCallbackPtr)(void);
 479:Generated_Source\PSoC4/RTC_1.h **** 
 480:Generated_Source\PSoC4/RTC_1.h **** extern const uint16 RTC_1_daysBeforeMonthTbl[RTC_1_MONTHS_PER_YEAR];
 481:Generated_Source\PSoC4/RTC_1.h **** extern const uint8  RTC_1_daysInMonthTbl[RTC_1_MONTHS_PER_YEAR];
 482:Generated_Source\PSoC4/RTC_1.h **** 
 483:Generated_Source\PSoC4/RTC_1.h **** 
 484:Generated_Source\PSoC4/RTC_1.h **** /*******************************************************************************
 485:Generated_Source\PSoC4/RTC_1.h **** *    Function Prototypes
 486:Generated_Source\PSoC4/RTC_1.h **** *******************************************************************************/
 487:Generated_Source\PSoC4/RTC_1.h **** /**
ARM GAS  C:\Users\7709\AppData\Local\Temp\ccQ2UUYk.s 			page 10


 488:Generated_Source\PSoC4/RTC_1.h **** * \addtogroup group_general
 489:Generated_Source\PSoC4/RTC_1.h **** * \{
 490:Generated_Source\PSoC4/RTC_1.h **** */
 491:Generated_Source\PSoC4/RTC_1.h **** void   RTC_1_Start(void);
 492:Generated_Source\PSoC4/RTC_1.h **** void   RTC_1_Stop(void);
 493:Generated_Source\PSoC4/RTC_1.h **** void   RTC_1_Init(void);
 494:Generated_Source\PSoC4/RTC_1.h **** void   RTC_1_SetUnixTime(uint64 unixTime);
 495:Generated_Source\PSoC4/RTC_1.h **** uint64 RTC_1_GetUnixTime(void);
 496:Generated_Source\PSoC4/RTC_1.h **** void   RTC_1_SetPeriod(uint32 ticks, uint32 refOneSecTicks);
 497:Generated_Source\PSoC4/RTC_1.h **** uint32 RTC_1_GetPeriod(void);
 498:Generated_Source\PSoC4/RTC_1.h **** uint32 RTC_1_GetRefOneSec(void);
 499:Generated_Source\PSoC4/RTC_1.h **** void   RTC_1_SetDateAndTime(uint32 inputTime, uint32 inputDate);
 500:Generated_Source\PSoC4/RTC_1.h **** void   RTC_1_GetDateAndTime(RTC_1_DATE_TIME* dateTime);
 501:Generated_Source\PSoC4/RTC_1.h **** uint32 RTC_1_GetTime(void);
 502:Generated_Source\PSoC4/RTC_1.h **** uint32 RTC_1_GetDate(void);
 503:Generated_Source\PSoC4/RTC_1.h **** void   RTC_1_SetAlarmDateAndTime(const RTC_1_DATE_TIME* alarmTime);
 504:Generated_Source\PSoC4/RTC_1.h **** void   RTC_1_GetAlarmDateAndTime(RTC_1_DATE_TIME* alarmTimeDate);
 505:Generated_Source\PSoC4/RTC_1.h **** void   RTC_1_SetAlarmMask(uint32 mask);
 506:Generated_Source\PSoC4/RTC_1.h **** uint32 RTC_1_GetAlarmMask(void);
 507:Generated_Source\PSoC4/RTC_1.h **** uint32 RTC_1_ReadStatus(void);
 508:Generated_Source\PSoC4/RTC_1.h **** uint32 RTC_1_GetAlarmStatus(void);
 509:Generated_Source\PSoC4/RTC_1.h **** void   RTC_1_ClearAlarmStatus(void);
 510:Generated_Source\PSoC4/RTC_1.h **** void   RTC_1_SetDSTStartTime(const RTC_1_DST_TIME* dstStartTime,
 511:Generated_Source\PSoC4/RTC_1.h ****                                               RTC_1_DST_DATETYPE_ENUM type);
 512:Generated_Source\PSoC4/RTC_1.h **** void   RTC_1_SetDSTStopTime(const RTC_1_DST_TIME* dstStopTime,
 513:Generated_Source\PSoC4/RTC_1.h ****                                              RTC_1_DST_DATETYPE_ENUM type);
 514:Generated_Source\PSoC4/RTC_1.h **** uint32 RTC_1_ConvertBCDToDec(uint32 bcdNum);
 515:Generated_Source\PSoC4/RTC_1.h **** uint32 RTC_1_ConvertDecToBCD(uint32 decNum);
 516:Generated_Source\PSoC4/RTC_1.h **** void   RTC_1_Update(void);
 517:Generated_Source\PSoC4/RTC_1.h **** void*  RTC_1_SetAlarmHandler(void (*CallbackFunction)(void));
 518:Generated_Source\PSoC4/RTC_1.h **** 
 519:Generated_Source\PSoC4/RTC_1.h **** static uint32 RTC_1_ConstructDate(uint32 month, uint32 day, uint32 year);
 520:Generated_Source\PSoC4/RTC_1.h **** static uint32 RTC_1_ConstructTime(uint32 timeFormat, uint32 stateAmPm, uint32 hour, uint32 min, uin
 521:Generated_Source\PSoC4/RTC_1.h **** /** \} group_general */
 522:Generated_Source\PSoC4/RTC_1.h **** 
 523:Generated_Source\PSoC4/RTC_1.h **** static uint32 RTC_1_GetTimeFormat(uint32 inputTime);
 524:Generated_Source\PSoC4/RTC_1.h **** static uint32 RTC_1_SetTimeFormat(uint32 inputTime, uint32 timeFormat);
 525:Generated_Source\PSoC4/RTC_1.h **** 
 526:Generated_Source\PSoC4/RTC_1.h **** /**
 527:Generated_Source\PSoC4/RTC_1.h **** * \addtogroup group_general
 528:Generated_Source\PSoC4/RTC_1.h **** * \{
 529:Generated_Source\PSoC4/RTC_1.h **** */
 530:Generated_Source\PSoC4/RTC_1.h **** static uint32 RTC_1_LeapYear(uint32 year);
 531:Generated_Source\PSoC4/RTC_1.h **** static uint32 RTC_1_IsBitSet(uint32 var, uint32 mask);
 532:Generated_Source\PSoC4/RTC_1.h **** static uint32 RTC_1_GetSecond(uint32 inputTime);
 533:Generated_Source\PSoC4/RTC_1.h **** static uint32 RTC_1_GetMinutes(uint32 inputTime);
 534:Generated_Source\PSoC4/RTC_1.h **** static uint32 RTC_1_GetHours(uint32 inputTime);
 535:Generated_Source\PSoC4/RTC_1.h **** static uint32 RTC_1_GetAmPm(uint32 inputTime);
 536:Generated_Source\PSoC4/RTC_1.h **** static uint32 RTC_1_GetDay(uint32 date);
 537:Generated_Source\PSoC4/RTC_1.h **** static uint32 RTC_1_GetMonth(uint32 date);
 538:Generated_Source\PSoC4/RTC_1.h **** static uint32 RTC_1_GetYear(uint32 date);
 539:Generated_Source\PSoC4/RTC_1.h **** /** \} group_general */
 540:Generated_Source\PSoC4/RTC_1.h **** 
 541:Generated_Source\PSoC4/RTC_1.h **** static uint32 RTC_1_SetSecond(uint32 inputTime, uint32 inputSecond);
 542:Generated_Source\PSoC4/RTC_1.h **** static uint32 RTC_1_SetMinutes(uint32 inputTime, uint32 inputMinute);
 543:Generated_Source\PSoC4/RTC_1.h **** static uint32 RTC_1_SetHours(uint32 inputTime, uint32 inputHours);
 544:Generated_Source\PSoC4/RTC_1.h **** static uint32 RTC_1_SetAmPm(uint32 inputTime, uint32 periodOfDay);
ARM GAS  C:\Users\7709\AppData\Local\Temp\ccQ2UUYk.s 			page 11


 545:Generated_Source\PSoC4/RTC_1.h **** static uint32 RTC_1_SetDay(uint32 inputDate, uint32 inputDay);
 546:Generated_Source\PSoC4/RTC_1.h **** static uint32 RTC_1_SetMonth(uint32 inputDate, uint32 inputMonth);
 547:Generated_Source\PSoC4/RTC_1.h **** static uint32 RTC_1_SetYear(uint32 inputDate, uint32 inputYear);
 548:Generated_Source\PSoC4/RTC_1.h **** 
 549:Generated_Source\PSoC4/RTC_1.h **** uint64 RTC_1_ConstructUnixAlarmTime(const RTC_1_DATE_TIME* alarmTime, uint8 alarmCfgMask);
 550:Generated_Source\PSoC4/RTC_1.h **** uint64 RTC_1_GetDstUnixTime(const RTC_1_DST_TIME* dstTime);
 551:Generated_Source\PSoC4/RTC_1.h **** uint64 RTC_1_GetNexAlarmTime(uint64 curUnixTime, uint8 alarmCfgMask);
 552:Generated_Source\PSoC4/RTC_1.h **** 
 553:Generated_Source\PSoC4/RTC_1.h **** static uint32 RTC_1_GetNextMinSec(uint32 curVal);
 554:Generated_Source\PSoC4/RTC_1.h **** static uint32 RTC_1_GetNextHour(uint32 curVal);
 555:Generated_Source\PSoC4/RTC_1.h **** static uint32 RTC_1_GetNextDay(uint32 curYear, uint32 curMonth, uint32 curDay, uint32 alarmCfgMask)
 556:Generated_Source\PSoC4/RTC_1.h **** static uint32 RTC_1_GetNextMonth(uint32 curMonth);
 557:Generated_Source\PSoC4/RTC_1.h **** static uint32 RTC_1_GetNextYear(uint32 curYear);
 558:Generated_Source\PSoC4/RTC_1.h **** static uint32 RTC_1_GetDayOfWeek(uint32 day, uint32 month, uint32 year);
 559:Generated_Source\PSoC4/RTC_1.h **** static uint32 RTC_1_DaysBeforeMonth(uint32 month, uint32 year);
 560:Generated_Source\PSoC4/RTC_1.h **** 
 561:Generated_Source\PSoC4/RTC_1.h **** uint32 RTC_1_DaysInMonth(uint32 month, uint32 year);
 562:Generated_Source\PSoC4/RTC_1.h **** 
 563:Generated_Source\PSoC4/RTC_1.h **** /**
 564:Generated_Source\PSoC4/RTC_1.h **** * \addtogroup group_general
 565:Generated_Source\PSoC4/RTC_1.h **** * \{
 566:Generated_Source\PSoC4/RTC_1.h **** */
 567:Generated_Source\PSoC4/RTC_1.h **** void   RTC_1_UnixToDateTime(RTC_1_DATE_TIME* dateTime, uint64 unixTime, uint32 timeFormat);
 568:Generated_Source\PSoC4/RTC_1.h **** uint64 RTC_1_DateTimeToUnix(uint32 inputDate, uint32 inputTime);
 569:Generated_Source\PSoC4/RTC_1.h **** 
 570:Generated_Source\PSoC4/RTC_1.h **** #if defined(CYDEV_RTC_SOURCE_WDT)
 571:Generated_Source\PSoC4/RTC_1.h ****     #if((0u != CYDEV_WDT_GENERATE_ISR) && (0u == RTC_1_INITIAL_UPDATE_MODE))
 572:Generated_Source\PSoC4/RTC_1.h ****         static void RTC_1_CySysRtcSetCallback(uint32 wdtNumber);
 573:Generated_Source\PSoC4/RTC_1.h ****         static void RTC_1_CySysRtcResetCallback(uint32 wdtNumber);
 574:Generated_Source\PSoC4/RTC_1.h ****     #endif /* ((0u != CYDEV_WDT_GENERATE_ISR) && (0u == RTC_1_INITIAL_UPDATE_MODE)) */
 575:Generated_Source\PSoC4/RTC_1.h **** #endif /* (CYDEV_RTC_SOURCE_WDT) */
 576:Generated_Source\PSoC4/RTC_1.h **** 
 577:Generated_Source\PSoC4/RTC_1.h **** /** \} group_general */
 578:Generated_Source\PSoC4/RTC_1.h **** 
 579:Generated_Source\PSoC4/RTC_1.h **** uint32 RTC_1_RelativeToFixed(uint32 dayOfWeek, uint32 weekOfMonth, uint32 month, uint32 year);
 580:Generated_Source\PSoC4/RTC_1.h **** 
 581:Generated_Source\PSoC4/RTC_1.h **** 
 582:Generated_Source\PSoC4/RTC_1.h **** 
 583:Generated_Source\PSoC4/RTC_1.h **** /*******************************************************************************
 584:Generated_Source\PSoC4/RTC_1.h **** * Function Name: RTC_1_IsBitSet
 585:Generated_Source\PSoC4/RTC_1.h **** ****************************************************************************//**
 586:Generated_Source\PSoC4/RTC_1.h **** *
 587:Generated_Source\PSoC4/RTC_1.h **** * Checks the state of a bit passed through parameter.
 588:Generated_Source\PSoC4/RTC_1.h **** *
 589:Generated_Source\PSoC4/RTC_1.h **** * \param var
 590:Generated_Source\PSoC4/RTC_1.h **** * The variable to be checked.
 591:Generated_Source\PSoC4/RTC_1.h **** *
 592:Generated_Source\PSoC4/RTC_1.h **** * \param mask
 593:Generated_Source\PSoC4/RTC_1.h **** * The mask for a bit to be checked.
 594:Generated_Source\PSoC4/RTC_1.h **** *
 595:Generated_Source\PSoC4/RTC_1.h **** * \return
 596:Generated_Source\PSoC4/RTC_1.h **** *  0u - Bit is not set. <br> 1u - Bit is set.
 597:Generated_Source\PSoC4/RTC_1.h **** *
 598:Generated_Source\PSoC4/RTC_1.h **** *******************************************************************************/
 599:Generated_Source\PSoC4/RTC_1.h **** static CY_INLINE uint32 RTC_1_IsBitSet(uint32 var, uint32 mask)
 600:Generated_Source\PSoC4/RTC_1.h **** {
  27              		.loc 1 600 0
ARM GAS  C:\Users\7709\AppData\Local\Temp\ccQ2UUYk.s 			page 12


  28              		.cfi_startproc
  29              		@ args = 0, pretend = 0, frame = 8
  30              		@ frame_needed = 1, uses_anonymous_args = 0
  31 0000 80B5     		push	{r7, lr}
  32              		.cfi_def_cfa_offset 8
  33              		.cfi_offset 7, -8
  34              		.cfi_offset 14, -4
  35 0002 82B0     		sub	sp, sp, #8
  36              		.cfi_def_cfa_offset 16
  37 0004 00AF     		add	r7, sp, #0
  38              		.cfi_def_cfa_register 7
  39 0006 7860     		str	r0, [r7, #4]
  40 0008 3960     		str	r1, [r7]
 601:Generated_Source\PSoC4/RTC_1.h ****     return ((mask == (var & mask)) ? 1Lu : 0Lu);
  41              		.loc 1 601 0
  42 000a 7B68     		ldr	r3, [r7, #4]
  43 000c 3A68     		ldr	r2, [r7]
  44 000e 1A40     		ands	r2, r3
  45 0010 3B68     		ldr	r3, [r7]
  46 0012 9A42     		cmp	r2, r3
  47 0014 01D1     		bne	.L2
  48              		.loc 1 601 0 is_stmt 0 discriminator 1
  49 0016 0123     		movs	r3, #1
  50 0018 00E0     		b	.L4
  51              	.L2:
  52              		.loc 1 601 0 discriminator 2
  53 001a 0023     		movs	r3, #0
  54              	.L4:
 602:Generated_Source\PSoC4/RTC_1.h **** }
  55              		.loc 1 602 0 is_stmt 1 discriminator 5
  56 001c 1800     		movs	r0, r3
  57 001e BD46     		mov	sp, r7
  58 0020 02B0     		add	sp, sp, #8
  59              		@ sp needed
  60 0022 80BD     		pop	{r7, pc}
  61              		.cfi_endproc
  62              	.LFE2:
  63              		.size	RTC_1_IsBitSet, .-RTC_1_IsBitSet
  64              		.global	__aeabi_uidivmod
  65              		.section	.text.RTC_1_LeapYear,"ax",%progbits
  66              		.align	2
  67              		.code	16
  68              		.thumb_func
  69              		.type	RTC_1_LeapYear, %function
  70              	RTC_1_LeapYear:
  71              	.LFB3:
 603:Generated_Source\PSoC4/RTC_1.h **** 
 604:Generated_Source\PSoC4/RTC_1.h **** 
 605:Generated_Source\PSoC4/RTC_1.h **** /*******************************************************************************
 606:Generated_Source\PSoC4/RTC_1.h **** * Function Name: RTC_1_LeapYear
 607:Generated_Source\PSoC4/RTC_1.h **** ****************************************************************************//**
 608:Generated_Source\PSoC4/RTC_1.h **** *
 609:Generated_Source\PSoC4/RTC_1.h **** * Checks whether the year passed through the parameter is leap or no.
 610:Generated_Source\PSoC4/RTC_1.h **** *
 611:Generated_Source\PSoC4/RTC_1.h **** * \param year
 612:Generated_Source\PSoC4/RTC_1.h **** * The year to be checked.
 613:Generated_Source\PSoC4/RTC_1.h **** *
ARM GAS  C:\Users\7709\AppData\Local\Temp\ccQ2UUYk.s 			page 13


 614:Generated_Source\PSoC4/RTC_1.h **** * \return
 615:Generated_Source\PSoC4/RTC_1.h **** * 0u - The year is not leap <br> 1u - The year is leap.
 616:Generated_Source\PSoC4/RTC_1.h **** *
 617:Generated_Source\PSoC4/RTC_1.h **** *******************************************************************************/
 618:Generated_Source\PSoC4/RTC_1.h **** static CY_INLINE uint32 RTC_1_LeapYear(uint32 year)
 619:Generated_Source\PSoC4/RTC_1.h **** {
  72              		.loc 1 619 0
  73              		.cfi_startproc
  74              		@ args = 0, pretend = 0, frame = 16
  75              		@ frame_needed = 1, uses_anonymous_args = 0
  76 0000 80B5     		push	{r7, lr}
  77              		.cfi_def_cfa_offset 8
  78              		.cfi_offset 7, -8
  79              		.cfi_offset 14, -4
  80 0002 84B0     		sub	sp, sp, #16
  81              		.cfi_def_cfa_offset 24
  82 0004 00AF     		add	r7, sp, #0
  83              		.cfi_def_cfa_register 7
  84 0006 7860     		str	r0, [r7, #4]
 620:Generated_Source\PSoC4/RTC_1.h ****     uint32 retVal;
 621:Generated_Source\PSoC4/RTC_1.h **** 
 622:Generated_Source\PSoC4/RTC_1.h ****     if(((0u == (year % 4Lu)) && (0u != (year % 100Lu))) || (0u == (year % 400Lu)))
  85              		.loc 1 622 0
  86 0008 7B68     		ldr	r3, [r7, #4]
  87 000a 0322     		movs	r2, #3
  88 000c 1340     		ands	r3, r2
  89 000e 06D1     		bne	.L6
  90              		.loc 1 622 0 is_stmt 0 discriminator 1
  91 0010 7B68     		ldr	r3, [r7, #4]
  92 0012 6421     		movs	r1, #100
  93 0014 1800     		movs	r0, r3
  94 0016 FFF7FEFF 		bl	__aeabi_uidivmod
  95 001a 0B1E     		subs	r3, r1, #0
  96 001c 07D1     		bne	.L7
  97              	.L6:
  98              		.loc 1 622 0 discriminator 3
  99 001e 7A68     		ldr	r2, [r7, #4]
 100 0020 C823     		movs	r3, #200
 101 0022 5900     		lsls	r1, r3, #1
 102 0024 1000     		movs	r0, r2
 103 0026 FFF7FEFF 		bl	__aeabi_uidivmod
 104 002a 0B1E     		subs	r3, r1, #0
 105 002c 02D1     		bne	.L8
 106              	.L7:
 623:Generated_Source\PSoC4/RTC_1.h ****     {
 624:Generated_Source\PSoC4/RTC_1.h ****         retVal = 1uL;
 107              		.loc 1 624 0 is_stmt 1
 108 002e 0123     		movs	r3, #1
 109 0030 FB60     		str	r3, [r7, #12]
 110 0032 01E0     		b	.L9
 111              	.L8:
 625:Generated_Source\PSoC4/RTC_1.h ****     }
 626:Generated_Source\PSoC4/RTC_1.h ****     else
 627:Generated_Source\PSoC4/RTC_1.h ****     {
 628:Generated_Source\PSoC4/RTC_1.h ****         retVal = 0uL;
 112              		.loc 1 628 0
 113 0034 0023     		movs	r3, #0
ARM GAS  C:\Users\7709\AppData\Local\Temp\ccQ2UUYk.s 			page 14


 114 0036 FB60     		str	r3, [r7, #12]
 115              	.L9:
 629:Generated_Source\PSoC4/RTC_1.h ****     }
 630:Generated_Source\PSoC4/RTC_1.h **** 
 631:Generated_Source\PSoC4/RTC_1.h ****     return(retVal);
 116              		.loc 1 631 0
 117 0038 FB68     		ldr	r3, [r7, #12]
 632:Generated_Source\PSoC4/RTC_1.h **** }
 118              		.loc 1 632 0
 119 003a 1800     		movs	r0, r3
 120 003c BD46     		mov	sp, r7
 121 003e 04B0     		add	sp, sp, #16
 122              		@ sp needed
 123 0040 80BD     		pop	{r7, pc}
 124              		.cfi_endproc
 125              	.LFE3:
 126              		.size	RTC_1_LeapYear, .-RTC_1_LeapYear
 127 0042 C046     		.section	.text.RTC_1_GetSecond,"ax",%progbits
 128              		.align	2
 129              		.code	16
 130              		.thumb_func
 131              		.type	RTC_1_GetSecond, %function
 132              	RTC_1_GetSecond:
 133              	.LFB4:
 633:Generated_Source\PSoC4/RTC_1.h **** 
 634:Generated_Source\PSoC4/RTC_1.h **** 
 635:Generated_Source\PSoC4/RTC_1.h **** /*******************************************************************************
 636:Generated_Source\PSoC4/RTC_1.h **** * Function Name: RTC_1_GetSecond
 637:Generated_Source\PSoC4/RTC_1.h **** ****************************************************************************//**
 638:Generated_Source\PSoC4/RTC_1.h **** *
 639:Generated_Source\PSoC4/RTC_1.h **** * Returns the seconds value from the time value that is passed as a/the 
 640:Generated_Source\PSoC4/RTC_1.h **** * parameter.
 641:Generated_Source\PSoC4/RTC_1.h **** *
 642:Generated_Source\PSoC4/RTC_1.h **** * \param inputTime
 643:Generated_Source\PSoC4/RTC_1.h **** * The time value.
 644:Generated_Source\PSoC4/RTC_1.h **** *
 645:Generated_Source\PSoC4/RTC_1.h **** * \return
 646:Generated_Source\PSoC4/RTC_1.h **** * The seconds value.
 647:Generated_Source\PSoC4/RTC_1.h **** *
 648:Generated_Source\PSoC4/RTC_1.h **** *******************************************************************************/
 649:Generated_Source\PSoC4/RTC_1.h **** static CY_INLINE uint32 RTC_1_GetSecond(uint32 inputTime)
 650:Generated_Source\PSoC4/RTC_1.h **** {
 134              		.loc 1 650 0
 135              		.cfi_startproc
 136              		@ args = 0, pretend = 0, frame = 16
 137              		@ frame_needed = 1, uses_anonymous_args = 0
 138 0000 80B5     		push	{r7, lr}
 139              		.cfi_def_cfa_offset 8
 140              		.cfi_offset 7, -8
 141              		.cfi_offset 14, -4
 142 0002 84B0     		sub	sp, sp, #16
 143              		.cfi_def_cfa_offset 24
 144 0004 00AF     		add	r7, sp, #0
 145              		.cfi_def_cfa_register 7
 146 0006 7860     		str	r0, [r7, #4]
 651:Generated_Source\PSoC4/RTC_1.h ****     uint32 retVal;
 652:Generated_Source\PSoC4/RTC_1.h **** 
ARM GAS  C:\Users\7709\AppData\Local\Temp\ccQ2UUYk.s 			page 15


 653:Generated_Source\PSoC4/RTC_1.h ****     retVal  = ((inputTime & RTC_1_10_SECONDS_MASK) >> RTC_1_10_SECONDS_OFFSET) * 10u;
 147              		.loc 1 653 0
 148 0008 7B68     		ldr	r3, [r7, #4]
 149 000a 1B09     		lsrs	r3, r3, #4
 150 000c 0722     		movs	r2, #7
 151 000e 1A40     		ands	r2, r3
 152 0010 1300     		movs	r3, r2
 153 0012 9B00     		lsls	r3, r3, #2
 154 0014 9B18     		adds	r3, r3, r2
 155 0016 5B00     		lsls	r3, r3, #1
 156 0018 FB60     		str	r3, [r7, #12]
 654:Generated_Source\PSoC4/RTC_1.h ****     retVal += (inputTime & RTC_1_SECONDS_MASK) >> RTC_1_SECONDS_OFFSET;
 157              		.loc 1 654 0
 158 001a 7B68     		ldr	r3, [r7, #4]
 159 001c 0F22     		movs	r2, #15
 160 001e 1340     		ands	r3, r2
 161 0020 FA68     		ldr	r2, [r7, #12]
 162 0022 D318     		adds	r3, r2, r3
 163 0024 FB60     		str	r3, [r7, #12]
 655:Generated_Source\PSoC4/RTC_1.h **** 
 656:Generated_Source\PSoC4/RTC_1.h ****     return (retVal);
 164              		.loc 1 656 0
 165 0026 FB68     		ldr	r3, [r7, #12]
 657:Generated_Source\PSoC4/RTC_1.h **** }
 166              		.loc 1 657 0
 167 0028 1800     		movs	r0, r3
 168 002a BD46     		mov	sp, r7
 169 002c 04B0     		add	sp, sp, #16
 170              		@ sp needed
 171 002e 80BD     		pop	{r7, pc}
 172              		.cfi_endproc
 173              	.LFE4:
 174              		.size	RTC_1_GetSecond, .-RTC_1_GetSecond
 175              		.section	.text.RTC_1_GetMinutes,"ax",%progbits
 176              		.align	2
 177              		.code	16
 178              		.thumb_func
 179              		.type	RTC_1_GetMinutes, %function
 180              	RTC_1_GetMinutes:
 181              	.LFB5:
 658:Generated_Source\PSoC4/RTC_1.h **** 
 659:Generated_Source\PSoC4/RTC_1.h **** 
 660:Generated_Source\PSoC4/RTC_1.h **** /*******************************************************************************
 661:Generated_Source\PSoC4/RTC_1.h **** * Function Name: RTC_1_GetMinutes
 662:Generated_Source\PSoC4/RTC_1.h **** ****************************************************************************//**
 663:Generated_Source\PSoC4/RTC_1.h **** *
 664:Generated_Source\PSoC4/RTC_1.h **** * Returns the minutes value from the time value that is passed as a/the 
 665:Generated_Source\PSoC4/RTC_1.h **** * parameter.
 666:Generated_Source\PSoC4/RTC_1.h **** *
 667:Generated_Source\PSoC4/RTC_1.h **** * \param inputTime
 668:Generated_Source\PSoC4/RTC_1.h **** * The time value.
 669:Generated_Source\PSoC4/RTC_1.h **** *
 670:Generated_Source\PSoC4/RTC_1.h **** * \return
 671:Generated_Source\PSoC4/RTC_1.h **** * The minutes value.
 672:Generated_Source\PSoC4/RTC_1.h **** *
 673:Generated_Source\PSoC4/RTC_1.h **** *******************************************************************************/
 674:Generated_Source\PSoC4/RTC_1.h **** static CY_INLINE uint32 RTC_1_GetMinutes(uint32 inputTime)
ARM GAS  C:\Users\7709\AppData\Local\Temp\ccQ2UUYk.s 			page 16


 675:Generated_Source\PSoC4/RTC_1.h **** {
 182              		.loc 1 675 0
 183              		.cfi_startproc
 184              		@ args = 0, pretend = 0, frame = 16
 185              		@ frame_needed = 1, uses_anonymous_args = 0
 186 0000 80B5     		push	{r7, lr}
 187              		.cfi_def_cfa_offset 8
 188              		.cfi_offset 7, -8
 189              		.cfi_offset 14, -4
 190 0002 84B0     		sub	sp, sp, #16
 191              		.cfi_def_cfa_offset 24
 192 0004 00AF     		add	r7, sp, #0
 193              		.cfi_def_cfa_register 7
 194 0006 7860     		str	r0, [r7, #4]
 676:Generated_Source\PSoC4/RTC_1.h ****     uint32 retVal;
 677:Generated_Source\PSoC4/RTC_1.h **** 
 678:Generated_Source\PSoC4/RTC_1.h ****     retVal  = ((inputTime & RTC_1_10_MINUTES_MASK) >> RTC_1_10_MINUTES_OFFSET) * 10u;
 195              		.loc 1 678 0
 196 0008 7B68     		ldr	r3, [r7, #4]
 197 000a 1B0B     		lsrs	r3, r3, #12
 198 000c 0722     		movs	r2, #7
 199 000e 1A40     		ands	r2, r3
 200 0010 1300     		movs	r3, r2
 201 0012 9B00     		lsls	r3, r3, #2
 202 0014 9B18     		adds	r3, r3, r2
 203 0016 5B00     		lsls	r3, r3, #1
 204 0018 FB60     		str	r3, [r7, #12]
 679:Generated_Source\PSoC4/RTC_1.h ****     retVal += (inputTime & RTC_1_MINUTES_MASK) >> RTC_1_MINUTES_OFFSET;
 205              		.loc 1 679 0
 206 001a 7B68     		ldr	r3, [r7, #4]
 207 001c 1B0A     		lsrs	r3, r3, #8
 208 001e 0F22     		movs	r2, #15
 209 0020 1340     		ands	r3, r2
 210 0022 FA68     		ldr	r2, [r7, #12]
 211 0024 D318     		adds	r3, r2, r3
 212 0026 FB60     		str	r3, [r7, #12]
 680:Generated_Source\PSoC4/RTC_1.h **** 
 681:Generated_Source\PSoC4/RTC_1.h ****     return (retVal);
 213              		.loc 1 681 0
 214 0028 FB68     		ldr	r3, [r7, #12]
 682:Generated_Source\PSoC4/RTC_1.h **** }
 215              		.loc 1 682 0
 216 002a 1800     		movs	r0, r3
 217 002c BD46     		mov	sp, r7
 218 002e 04B0     		add	sp, sp, #16
 219              		@ sp needed
 220 0030 80BD     		pop	{r7, pc}
 221              		.cfi_endproc
 222              	.LFE5:
 223              		.size	RTC_1_GetMinutes, .-RTC_1_GetMinutes
 224 0032 C046     		.section	.text.RTC_1_GetHours,"ax",%progbits
 225              		.align	2
 226              		.code	16
 227              		.thumb_func
 228              		.type	RTC_1_GetHours, %function
 229              	RTC_1_GetHours:
 230              	.LFB6:
ARM GAS  C:\Users\7709\AppData\Local\Temp\ccQ2UUYk.s 			page 17


 683:Generated_Source\PSoC4/RTC_1.h **** 
 684:Generated_Source\PSoC4/RTC_1.h **** 
 685:Generated_Source\PSoC4/RTC_1.h **** /*******************************************************************************
 686:Generated_Source\PSoC4/RTC_1.h **** * Function Name: RTC_1_GetHours
 687:Generated_Source\PSoC4/RTC_1.h **** ****************************************************************************//**
 688:Generated_Source\PSoC4/RTC_1.h **** *
 689:Generated_Source\PSoC4/RTC_1.h **** * Returns the hours value from the time value that is passed as a/the parameter.
 690:Generated_Source\PSoC4/RTC_1.h **** *
 691:Generated_Source\PSoC4/RTC_1.h **** * \param inputTime
 692:Generated_Source\PSoC4/RTC_1.h **** * The time value.
 693:Generated_Source\PSoC4/RTC_1.h **** *
 694:Generated_Source\PSoC4/RTC_1.h **** * \return
 695:Generated_Source\PSoC4/RTC_1.h **** * The hours value.
 696:Generated_Source\PSoC4/RTC_1.h **** *
 697:Generated_Source\PSoC4/RTC_1.h **** *******************************************************************************/
 698:Generated_Source\PSoC4/RTC_1.h **** static CY_INLINE uint32 RTC_1_GetHours(uint32 inputTime)
 699:Generated_Source\PSoC4/RTC_1.h **** {
 231              		.loc 1 699 0
 232              		.cfi_startproc
 233              		@ args = 0, pretend = 0, frame = 16
 234              		@ frame_needed = 1, uses_anonymous_args = 0
 235 0000 80B5     		push	{r7, lr}
 236              		.cfi_def_cfa_offset 8
 237              		.cfi_offset 7, -8
 238              		.cfi_offset 14, -4
 239 0002 84B0     		sub	sp, sp, #16
 240              		.cfi_def_cfa_offset 24
 241 0004 00AF     		add	r7, sp, #0
 242              		.cfi_def_cfa_register 7
 243 0006 7860     		str	r0, [r7, #4]
 700:Generated_Source\PSoC4/RTC_1.h ****     uint32 retVal;
 701:Generated_Source\PSoC4/RTC_1.h **** 
 702:Generated_Source\PSoC4/RTC_1.h ****     retVal  = ((inputTime & RTC_1_10_HOURS_MASK) >> RTC_1_10_HOURS_OFFSET) * 10u;
 244              		.loc 1 702 0
 245 0008 7B68     		ldr	r3, [r7, #4]
 246 000a 1B0D     		lsrs	r3, r3, #20
 247 000c 0322     		movs	r2, #3
 248 000e 1A40     		ands	r2, r3
 249 0010 1300     		movs	r3, r2
 250 0012 9B00     		lsls	r3, r3, #2
 251 0014 9B18     		adds	r3, r3, r2
 252 0016 5B00     		lsls	r3, r3, #1
 253 0018 FB60     		str	r3, [r7, #12]
 703:Generated_Source\PSoC4/RTC_1.h ****     retVal += (inputTime & RTC_1_HOURS_MASK) >> RTC_1_HOURS_OFFSET;
 254              		.loc 1 703 0
 255 001a 7B68     		ldr	r3, [r7, #4]
 256 001c 1B0C     		lsrs	r3, r3, #16
 257 001e 0F22     		movs	r2, #15
 258 0020 1340     		ands	r3, r2
 259 0022 FA68     		ldr	r2, [r7, #12]
 260 0024 D318     		adds	r3, r2, r3
 261 0026 FB60     		str	r3, [r7, #12]
 704:Generated_Source\PSoC4/RTC_1.h **** 
 705:Generated_Source\PSoC4/RTC_1.h ****     return (retVal);
 262              		.loc 1 705 0
 263 0028 FB68     		ldr	r3, [r7, #12]
 706:Generated_Source\PSoC4/RTC_1.h **** }
ARM GAS  C:\Users\7709\AppData\Local\Temp\ccQ2UUYk.s 			page 18


 264              		.loc 1 706 0
 265 002a 1800     		movs	r0, r3
 266 002c BD46     		mov	sp, r7
 267 002e 04B0     		add	sp, sp, #16
 268              		@ sp needed
 269 0030 80BD     		pop	{r7, pc}
 270              		.cfi_endproc
 271              	.LFE6:
 272              		.size	RTC_1_GetHours, .-RTC_1_GetHours
 273 0032 C046     		.section	.text.RTC_1_GetAmPm,"ax",%progbits
 274              		.align	2
 275              		.code	16
 276              		.thumb_func
 277              		.type	RTC_1_GetAmPm, %function
 278              	RTC_1_GetAmPm:
 279              	.LFB7:
 707:Generated_Source\PSoC4/RTC_1.h **** 
 708:Generated_Source\PSoC4/RTC_1.h **** 
 709:Generated_Source\PSoC4/RTC_1.h **** /*******************************************************************************
 710:Generated_Source\PSoC4/RTC_1.h **** * Function Name: RTC_1_GetAmPm
 711:Generated_Source\PSoC4/RTC_1.h **** ****************************************************************************//**
 712:Generated_Source\PSoC4/RTC_1.h **** *
 713:Generated_Source\PSoC4/RTC_1.h **** * Returns the AM/PM status from the time value that is passed as parameter.
 714:Generated_Source\PSoC4/RTC_1.h **** *
 715:Generated_Source\PSoC4/RTC_1.h **** * \param inputTime
 716:Generated_Source\PSoC4/RTC_1.h **** * The time value.
 717:Generated_Source\PSoC4/RTC_1.h **** *
 718:Generated_Source\PSoC4/RTC_1.h **** * \return
 719:Generated_Source\PSoC4/RTC_1.h **** * The am/pm period of day, see \ref group_rtc_am_pm.
 720:Generated_Source\PSoC4/RTC_1.h **** *
 721:Generated_Source\PSoC4/RTC_1.h **** *******************************************************************************/
 722:Generated_Source\PSoC4/RTC_1.h **** static CY_INLINE uint32 RTC_1_GetAmPm(uint32 inputTime)
 723:Generated_Source\PSoC4/RTC_1.h **** {
 280              		.loc 1 723 0
 281              		.cfi_startproc
 282              		@ args = 0, pretend = 0, frame = 8
 283              		@ frame_needed = 1, uses_anonymous_args = 0
 284 0000 80B5     		push	{r7, lr}
 285              		.cfi_def_cfa_offset 8
 286              		.cfi_offset 7, -8
 287              		.cfi_offset 14, -4
 288 0002 82B0     		sub	sp, sp, #8
 289              		.cfi_def_cfa_offset 16
 290 0004 00AF     		add	r7, sp, #0
 291              		.cfi_def_cfa_register 7
 292 0006 7860     		str	r0, [r7, #4]
 724:Generated_Source\PSoC4/RTC_1.h ****     return (RTC_1_IsBitSet(inputTime, RTC_1_PERIOD_OF_DAY_MASK));
 293              		.loc 1 724 0
 294 0008 8023     		movs	r3, #128
 295 000a DA03     		lsls	r2, r3, #15
 296 000c 7B68     		ldr	r3, [r7, #4]
 297 000e 1100     		movs	r1, r2
 298 0010 1800     		movs	r0, r3
 299 0012 FFF7FEFF 		bl	RTC_1_IsBitSet
 300 0016 0300     		movs	r3, r0
 725:Generated_Source\PSoC4/RTC_1.h **** }
 301              		.loc 1 725 0
ARM GAS  C:\Users\7709\AppData\Local\Temp\ccQ2UUYk.s 			page 19


 302 0018 1800     		movs	r0, r3
 303 001a BD46     		mov	sp, r7
 304 001c 02B0     		add	sp, sp, #8
 305              		@ sp needed
 306 001e 80BD     		pop	{r7, pc}
 307              		.cfi_endproc
 308              	.LFE7:
 309              		.size	RTC_1_GetAmPm, .-RTC_1_GetAmPm
 310              		.section	.text.RTC_1_GetDay,"ax",%progbits
 311              		.align	2
 312              		.code	16
 313              		.thumb_func
 314              		.type	RTC_1_GetDay, %function
 315              	RTC_1_GetDay:
 316              	.LFB8:
 726:Generated_Source\PSoC4/RTC_1.h **** 
 727:Generated_Source\PSoC4/RTC_1.h **** 
 728:Generated_Source\PSoC4/RTC_1.h **** /*******************************************************************************
 729:Generated_Source\PSoC4/RTC_1.h **** * Function Name: RTC_1_GetDay
 730:Generated_Source\PSoC4/RTC_1.h **** ****************************************************************************//**
 731:Generated_Source\PSoC4/RTC_1.h **** *
 732:Generated_Source\PSoC4/RTC_1.h **** * Returns the day value from the date value that is passed as parameter.
 733:Generated_Source\PSoC4/RTC_1.h **** *
 734:Generated_Source\PSoC4/RTC_1.h **** * \param date
 735:Generated_Source\PSoC4/RTC_1.h **** * The date value.
 736:Generated_Source\PSoC4/RTC_1.h **** *
 737:Generated_Source\PSoC4/RTC_1.h **** * \return
 738:Generated_Source\PSoC4/RTC_1.h **** * The day value.
 739:Generated_Source\PSoC4/RTC_1.h **** *
 740:Generated_Source\PSoC4/RTC_1.h **** *******************************************************************************/
 741:Generated_Source\PSoC4/RTC_1.h **** static CY_INLINE uint32 RTC_1_GetDay(uint32 date)
 742:Generated_Source\PSoC4/RTC_1.h **** {
 317              		.loc 1 742 0
 318              		.cfi_startproc
 319              		@ args = 0, pretend = 0, frame = 16
 320              		@ frame_needed = 1, uses_anonymous_args = 0
 321 0000 80B5     		push	{r7, lr}
 322              		.cfi_def_cfa_offset 8
 323              		.cfi_offset 7, -8
 324              		.cfi_offset 14, -4
 325 0002 84B0     		sub	sp, sp, #16
 326              		.cfi_def_cfa_offset 24
 327 0004 00AF     		add	r7, sp, #0
 328              		.cfi_def_cfa_register 7
 329 0006 7860     		str	r0, [r7, #4]
 743:Generated_Source\PSoC4/RTC_1.h ****     uint32 retVal;
 744:Generated_Source\PSoC4/RTC_1.h **** 
 745:Generated_Source\PSoC4/RTC_1.h ****     retVal  = ((date & RTC_1_10_DAY_MASK) >> RTC_1_10_DAY_OFFSET) * 10u;
 330              		.loc 1 745 0
 331 0008 7B68     		ldr	r3, [r7, #4]
 332 000a 1B0D     		lsrs	r3, r3, #20
 333 000c 0322     		movs	r2, #3
 334 000e 1A40     		ands	r2, r3
 335 0010 1300     		movs	r3, r2
 336 0012 9B00     		lsls	r3, r3, #2
 337 0014 9B18     		adds	r3, r3, r2
 338 0016 5B00     		lsls	r3, r3, #1
ARM GAS  C:\Users\7709\AppData\Local\Temp\ccQ2UUYk.s 			page 20


 339 0018 FB60     		str	r3, [r7, #12]
 746:Generated_Source\PSoC4/RTC_1.h ****     retVal += (date & RTC_1_DAY_MASK) >> RTC_1_DAY_OFFSET;
 340              		.loc 1 746 0
 341 001a 7B68     		ldr	r3, [r7, #4]
 342 001c 1B0C     		lsrs	r3, r3, #16
 343 001e 0F22     		movs	r2, #15
 344 0020 1340     		ands	r3, r2
 345 0022 FA68     		ldr	r2, [r7, #12]
 346 0024 D318     		adds	r3, r2, r3
 347 0026 FB60     		str	r3, [r7, #12]
 747:Generated_Source\PSoC4/RTC_1.h **** 
 748:Generated_Source\PSoC4/RTC_1.h ****     return (retVal);
 348              		.loc 1 748 0
 349 0028 FB68     		ldr	r3, [r7, #12]
 749:Generated_Source\PSoC4/RTC_1.h **** }
 350              		.loc 1 749 0
 351 002a 1800     		movs	r0, r3
 352 002c BD46     		mov	sp, r7
 353 002e 04B0     		add	sp, sp, #16
 354              		@ sp needed
 355 0030 80BD     		pop	{r7, pc}
 356              		.cfi_endproc
 357              	.LFE8:
 358              		.size	RTC_1_GetDay, .-RTC_1_GetDay
 359 0032 C046     		.section	.text.RTC_1_GetMonth,"ax",%progbits
 360              		.align	2
 361              		.code	16
 362              		.thumb_func
 363              		.type	RTC_1_GetMonth, %function
 364              	RTC_1_GetMonth:
 365              	.LFB9:
 750:Generated_Source\PSoC4/RTC_1.h **** 
 751:Generated_Source\PSoC4/RTC_1.h **** 
 752:Generated_Source\PSoC4/RTC_1.h **** /*******************************************************************************
 753:Generated_Source\PSoC4/RTC_1.h **** * Function Name: RTC_1_GetMonth
 754:Generated_Source\PSoC4/RTC_1.h **** ****************************************************************************//**
 755:Generated_Source\PSoC4/RTC_1.h **** *
 756:Generated_Source\PSoC4/RTC_1.h **** * Returns the month value from the date value that is passed as parameter.
 757:Generated_Source\PSoC4/RTC_1.h **** *
 758:Generated_Source\PSoC4/RTC_1.h **** * \param date
 759:Generated_Source\PSoC4/RTC_1.h **** * The date value.
 760:Generated_Source\PSoC4/RTC_1.h **** *
 761:Generated_Source\PSoC4/RTC_1.h **** * \return
 762:Generated_Source\PSoC4/RTC_1.h **** * The month value.
 763:Generated_Source\PSoC4/RTC_1.h **** *
 764:Generated_Source\PSoC4/RTC_1.h **** *******************************************************************************/
 765:Generated_Source\PSoC4/RTC_1.h **** static CY_INLINE uint32 RTC_1_GetMonth(uint32 date)
 766:Generated_Source\PSoC4/RTC_1.h **** {
 366              		.loc 1 766 0
 367              		.cfi_startproc
 368              		@ args = 0, pretend = 0, frame = 16
 369              		@ frame_needed = 1, uses_anonymous_args = 0
 370 0000 80B5     		push	{r7, lr}
 371              		.cfi_def_cfa_offset 8
 372              		.cfi_offset 7, -8
 373              		.cfi_offset 14, -4
 374 0002 84B0     		sub	sp, sp, #16
ARM GAS  C:\Users\7709\AppData\Local\Temp\ccQ2UUYk.s 			page 21


 375              		.cfi_def_cfa_offset 24
 376 0004 00AF     		add	r7, sp, #0
 377              		.cfi_def_cfa_register 7
 378 0006 7860     		str	r0, [r7, #4]
 767:Generated_Source\PSoC4/RTC_1.h ****     uint32 retVal;
 768:Generated_Source\PSoC4/RTC_1.h **** 
 769:Generated_Source\PSoC4/RTC_1.h ****     retVal  = ((date & RTC_1_10_MONTH_MASK) >> RTC_1_10_MONTH_OFFSET) * 10u;
 379              		.loc 1 769 0
 380 0008 7B68     		ldr	r3, [r7, #4]
 381 000a 1B0F     		lsrs	r3, r3, #28
 382 000c 0122     		movs	r2, #1
 383 000e 1A40     		ands	r2, r3
 384 0010 1300     		movs	r3, r2
 385 0012 9B00     		lsls	r3, r3, #2
 386 0014 9B18     		adds	r3, r3, r2
 387 0016 5B00     		lsls	r3, r3, #1
 388 0018 FB60     		str	r3, [r7, #12]
 770:Generated_Source\PSoC4/RTC_1.h ****     retVal += (date & RTC_1_MONTH_MASK) >> RTC_1_MONTH_OFFSET;
 389              		.loc 1 770 0
 390 001a 7B68     		ldr	r3, [r7, #4]
 391 001c 1B0E     		lsrs	r3, r3, #24
 392 001e 0F22     		movs	r2, #15
 393 0020 1340     		ands	r3, r2
 394 0022 FA68     		ldr	r2, [r7, #12]
 395 0024 D318     		adds	r3, r2, r3
 396 0026 FB60     		str	r3, [r7, #12]
 771:Generated_Source\PSoC4/RTC_1.h **** 
 772:Generated_Source\PSoC4/RTC_1.h ****     return (retVal);
 397              		.loc 1 772 0
 398 0028 FB68     		ldr	r3, [r7, #12]
 773:Generated_Source\PSoC4/RTC_1.h **** }
 399              		.loc 1 773 0
 400 002a 1800     		movs	r0, r3
 401 002c BD46     		mov	sp, r7
 402 002e 04B0     		add	sp, sp, #16
 403              		@ sp needed
 404 0030 80BD     		pop	{r7, pc}
 405              		.cfi_endproc
 406              	.LFE9:
 407              		.size	RTC_1_GetMonth, .-RTC_1_GetMonth
 408 0032 C046     		.section	.text.RTC_1_GetYear,"ax",%progbits
 409              		.align	2
 410              		.code	16
 411              		.thumb_func
 412              		.type	RTC_1_GetYear, %function
 413              	RTC_1_GetYear:
 414              	.LFB10:
 774:Generated_Source\PSoC4/RTC_1.h **** 
 775:Generated_Source\PSoC4/RTC_1.h **** 
 776:Generated_Source\PSoC4/RTC_1.h **** /*******************************************************************************
 777:Generated_Source\PSoC4/RTC_1.h **** * Function Name: RTC_1_GetYear
 778:Generated_Source\PSoC4/RTC_1.h **** ****************************************************************************//**
 779:Generated_Source\PSoC4/RTC_1.h **** *
 780:Generated_Source\PSoC4/RTC_1.h **** * Returns the year value from the date value that is passed as parameter.
 781:Generated_Source\PSoC4/RTC_1.h **** *
 782:Generated_Source\PSoC4/RTC_1.h **** * \param date
 783:Generated_Source\PSoC4/RTC_1.h **** * The date value.
ARM GAS  C:\Users\7709\AppData\Local\Temp\ccQ2UUYk.s 			page 22


 784:Generated_Source\PSoC4/RTC_1.h **** *
 785:Generated_Source\PSoC4/RTC_1.h **** * \return
 786:Generated_Source\PSoC4/RTC_1.h **** * The year value.
 787:Generated_Source\PSoC4/RTC_1.h **** *
 788:Generated_Source\PSoC4/RTC_1.h **** *******************************************************************************/
 789:Generated_Source\PSoC4/RTC_1.h **** static CY_INLINE uint32 RTC_1_GetYear(uint32 date)
 790:Generated_Source\PSoC4/RTC_1.h **** {
 415              		.loc 1 790 0
 416              		.cfi_startproc
 417              		@ args = 0, pretend = 0, frame = 16
 418              		@ frame_needed = 1, uses_anonymous_args = 0
 419 0000 80B5     		push	{r7, lr}
 420              		.cfi_def_cfa_offset 8
 421              		.cfi_offset 7, -8
 422              		.cfi_offset 14, -4
 423 0002 84B0     		sub	sp, sp, #16
 424              		.cfi_def_cfa_offset 24
 425 0004 00AF     		add	r7, sp, #0
 426              		.cfi_def_cfa_register 7
 427 0006 7860     		str	r0, [r7, #4]
 791:Generated_Source\PSoC4/RTC_1.h ****     uint32 retVal;
 792:Generated_Source\PSoC4/RTC_1.h **** 
 793:Generated_Source\PSoC4/RTC_1.h ****     retVal  = ((date & RTC_1_1000_YEAR_MASK) >> RTC_1_1000_YEAR_OFFSET) * 1000u;
 428              		.loc 1 793 0
 429 0008 7B68     		ldr	r3, [r7, #4]
 430 000a 1B0B     		lsrs	r3, r3, #12
 431 000c 0322     		movs	r2, #3
 432 000e 1340     		ands	r3, r2
 433 0010 FA22     		movs	r2, #250
 434 0012 9200     		lsls	r2, r2, #2
 435 0014 5343     		muls	r3, r2
 436 0016 FB60     		str	r3, [r7, #12]
 794:Generated_Source\PSoC4/RTC_1.h ****     retVal += ((date & RTC_1_100_YEAR_MASK) >> RTC_1_100_YEAR_OFFSET) * 100u;
 437              		.loc 1 794 0
 438 0018 7B68     		ldr	r3, [r7, #4]
 439 001a 1B0A     		lsrs	r3, r3, #8
 440 001c 0F22     		movs	r2, #15
 441 001e 1340     		ands	r3, r2
 442 0020 6422     		movs	r2, #100
 443 0022 5343     		muls	r3, r2
 444 0024 FA68     		ldr	r2, [r7, #12]
 445 0026 D318     		adds	r3, r2, r3
 446 0028 FB60     		str	r3, [r7, #12]
 795:Generated_Source\PSoC4/RTC_1.h ****     retVal += ((date & RTC_1_10_YEAR_MASK) >> RTC_1_10_YEAR_OFFSET) * 10u;
 447              		.loc 1 795 0
 448 002a 7B68     		ldr	r3, [r7, #4]
 449 002c 1B09     		lsrs	r3, r3, #4
 450 002e 0F22     		movs	r2, #15
 451 0030 1A40     		ands	r2, r3
 452 0032 1300     		movs	r3, r2
 453 0034 9B00     		lsls	r3, r3, #2
 454 0036 9B18     		adds	r3, r3, r2
 455 0038 5B00     		lsls	r3, r3, #1
 456 003a 1A00     		movs	r2, r3
 457 003c FB68     		ldr	r3, [r7, #12]
 458 003e 9B18     		adds	r3, r3, r2
 459 0040 FB60     		str	r3, [r7, #12]
ARM GAS  C:\Users\7709\AppData\Local\Temp\ccQ2UUYk.s 			page 23


 796:Generated_Source\PSoC4/RTC_1.h ****     retVal += (date & RTC_1_YEAR_MASK) >> RTC_1_YEAR_OFFSET;
 460              		.loc 1 796 0
 461 0042 7B68     		ldr	r3, [r7, #4]
 462 0044 0F22     		movs	r2, #15
 463 0046 1340     		ands	r3, r2
 464 0048 FA68     		ldr	r2, [r7, #12]
 465 004a D318     		adds	r3, r2, r3
 466 004c FB60     		str	r3, [r7, #12]
 797:Generated_Source\PSoC4/RTC_1.h **** 
 798:Generated_Source\PSoC4/RTC_1.h ****     return (retVal);
 467              		.loc 1 798 0
 468 004e FB68     		ldr	r3, [r7, #12]
 799:Generated_Source\PSoC4/RTC_1.h **** }
 469              		.loc 1 799 0
 470 0050 1800     		movs	r0, r3
 471 0052 BD46     		mov	sp, r7
 472 0054 04B0     		add	sp, sp, #16
 473              		@ sp needed
 474 0056 80BD     		pop	{r7, pc}
 475              		.cfi_endproc
 476              	.LFE10:
 477              		.size	RTC_1_GetYear, .-RTC_1_GetYear
 478              		.section	.text.RTC_1_GetTimeFormat,"ax",%progbits
 479              		.align	2
 480              		.code	16
 481              		.thumb_func
 482              		.type	RTC_1_GetTimeFormat, %function
 483              	RTC_1_GetTimeFormat:
 484              	.LFB24:
 800:Generated_Source\PSoC4/RTC_1.h **** 
 801:Generated_Source\PSoC4/RTC_1.h **** 
 802:Generated_Source\PSoC4/RTC_1.h **** /*******************************************************************************
 803:Generated_Source\PSoC4/RTC_1.h **** * Function Name: RTC_1_SetSecond
 804:Generated_Source\PSoC4/RTC_1.h **** ****************************************************************************//**
 805:Generated_Source\PSoC4/RTC_1.h **** * \internal
 806:Generated_Source\PSoC4/RTC_1.h **** * Updates the time with the new second value.
 807:Generated_Source\PSoC4/RTC_1.h **** *
 808:Generated_Source\PSoC4/RTC_1.h **** * \param inputTime
 809:Generated_Source\PSoC4/RTC_1.h **** * The current date.
 810:Generated_Source\PSoC4/RTC_1.h **** *
 811:Generated_Source\PSoC4/RTC_1.h **** * \param inputSecond
 812:Generated_Source\PSoC4/RTC_1.h **** * The seconds value to be set to the time variable.
 813:Generated_Source\PSoC4/RTC_1.h **** *
 814:Generated_Source\PSoC4/RTC_1.h **** * \return
 815:Generated_Source\PSoC4/RTC_1.h **** * The updated time variable.
 816:Generated_Source\PSoC4/RTC_1.h **** * \endinternal
 817:Generated_Source\PSoC4/RTC_1.h **** *******************************************************************************/
 818:Generated_Source\PSoC4/RTC_1.h **** static CY_INLINE uint32 RTC_1_SetSecond(uint32 inputTime, uint32 inputSecond)
 819:Generated_Source\PSoC4/RTC_1.h **** {
 820:Generated_Source\PSoC4/RTC_1.h ****     inputTime &= ~(RTC_1_SECONDS_FULL_MASK);
 821:Generated_Source\PSoC4/RTC_1.h **** 
 822:Generated_Source\PSoC4/RTC_1.h ****     inputTime |= (inputSecond / 10u) << RTC_1_10_SECONDS_OFFSET;
 823:Generated_Source\PSoC4/RTC_1.h ****     inputTime |= (inputSecond % 10u) << RTC_1_SECONDS_OFFSET;
 824:Generated_Source\PSoC4/RTC_1.h **** 
 825:Generated_Source\PSoC4/RTC_1.h ****     return(inputTime);
 826:Generated_Source\PSoC4/RTC_1.h **** }
 827:Generated_Source\PSoC4/RTC_1.h **** 
ARM GAS  C:\Users\7709\AppData\Local\Temp\ccQ2UUYk.s 			page 24


 828:Generated_Source\PSoC4/RTC_1.h **** 
 829:Generated_Source\PSoC4/RTC_1.h **** /*******************************************************************************
 830:Generated_Source\PSoC4/RTC_1.h **** * Function Name: RTC_1_SetMinutes
 831:Generated_Source\PSoC4/RTC_1.h **** ****************************************************************************//**
 832:Generated_Source\PSoC4/RTC_1.h **** * \internal
 833:Generated_Source\PSoC4/RTC_1.h **** *  Updates the time with the new minute value.
 834:Generated_Source\PSoC4/RTC_1.h **** *
 835:Generated_Source\PSoC4/RTC_1.h **** * \param inputTime
 836:Generated_Source\PSoC4/RTC_1.h **** * The current date.
 837:Generated_Source\PSoC4/RTC_1.h **** *
 838:Generated_Source\PSoC4/RTC_1.h **** * \param inputMinute
 839:Generated_Source\PSoC4/RTC_1.h **** * The minutes value to be set to the time variable.
 840:Generated_Source\PSoC4/RTC_1.h **** *
 841:Generated_Source\PSoC4/RTC_1.h **** * \return
 842:Generated_Source\PSoC4/RTC_1.h **** * The updated time variable.
 843:Generated_Source\PSoC4/RTC_1.h **** * \endinternal
 844:Generated_Source\PSoC4/RTC_1.h **** *******************************************************************************/
 845:Generated_Source\PSoC4/RTC_1.h **** static CY_INLINE uint32 RTC_1_SetMinutes(uint32 inputTime, uint32 inputMinute)
 846:Generated_Source\PSoC4/RTC_1.h **** {
 847:Generated_Source\PSoC4/RTC_1.h ****     inputTime &= ~(RTC_1_MINUTES_FULL_MASK);
 848:Generated_Source\PSoC4/RTC_1.h **** 
 849:Generated_Source\PSoC4/RTC_1.h ****     inputTime |= (inputMinute / 10u) << RTC_1_10_MINUTES_OFFSET;
 850:Generated_Source\PSoC4/RTC_1.h ****     inputTime |= (inputMinute % 10u) << RTC_1_MINUTES_OFFSET;
 851:Generated_Source\PSoC4/RTC_1.h **** 
 852:Generated_Source\PSoC4/RTC_1.h ****     return(inputTime);
 853:Generated_Source\PSoC4/RTC_1.h **** }
 854:Generated_Source\PSoC4/RTC_1.h **** 
 855:Generated_Source\PSoC4/RTC_1.h **** 
 856:Generated_Source\PSoC4/RTC_1.h **** /*******************************************************************************
 857:Generated_Source\PSoC4/RTC_1.h **** * Function Name: RTC_1_SetHours
 858:Generated_Source\PSoC4/RTC_1.h **** ****************************************************************************//**
 859:Generated_Source\PSoC4/RTC_1.h **** * \internal
 860:Generated_Source\PSoC4/RTC_1.h **** *  Updates the time with the new hour value.
 861:Generated_Source\PSoC4/RTC_1.h **** *
 862:Generated_Source\PSoC4/RTC_1.h **** * \param inputTime
 863:Generated_Source\PSoC4/RTC_1.h **** * The current date.
 864:Generated_Source\PSoC4/RTC_1.h **** *
 865:Generated_Source\PSoC4/RTC_1.h **** * \param inputHours
 866:Generated_Source\PSoC4/RTC_1.h **** * The hours value to be set to the time variable.
 867:Generated_Source\PSoC4/RTC_1.h **** *
 868:Generated_Source\PSoC4/RTC_1.h **** * \return
 869:Generated_Source\PSoC4/RTC_1.h **** * The updated time variable.
 870:Generated_Source\PSoC4/RTC_1.h **** * \endinternal
 871:Generated_Source\PSoC4/RTC_1.h **** *******************************************************************************/
 872:Generated_Source\PSoC4/RTC_1.h **** static CY_INLINE uint32 RTC_1_SetHours(uint32 inputTime, uint32 inputHours)
 873:Generated_Source\PSoC4/RTC_1.h **** {
 874:Generated_Source\PSoC4/RTC_1.h ****     inputTime &= ~(RTC_1_HOURS_FULL_MASK);
 875:Generated_Source\PSoC4/RTC_1.h **** 
 876:Generated_Source\PSoC4/RTC_1.h ****     inputTime |= (inputHours / 10u) << RTC_1_10_HOURS_OFFSET;
 877:Generated_Source\PSoC4/RTC_1.h ****     inputTime |= (inputHours % 10u) << RTC_1_HOURS_OFFSET;
 878:Generated_Source\PSoC4/RTC_1.h **** 
 879:Generated_Source\PSoC4/RTC_1.h ****     return(inputTime);
 880:Generated_Source\PSoC4/RTC_1.h **** }
 881:Generated_Source\PSoC4/RTC_1.h **** 
 882:Generated_Source\PSoC4/RTC_1.h **** 
 883:Generated_Source\PSoC4/RTC_1.h **** /*******************************************************************************
 884:Generated_Source\PSoC4/RTC_1.h **** * Function Name: RTC_1_SetAmPm
ARM GAS  C:\Users\7709\AppData\Local\Temp\ccQ2UUYk.s 			page 25


 885:Generated_Source\PSoC4/RTC_1.h **** ****************************************************************************//**
 886:Generated_Source\PSoC4/RTC_1.h **** * \internal
 887:Generated_Source\PSoC4/RTC_1.h **** * Updates the time variable with the AmPm status.
 888:Generated_Source\PSoC4/RTC_1.h **** *
 889:Generated_Source\PSoC4/RTC_1.h **** * \param inputTime
 890:Generated_Source\PSoC4/RTC_1.h **** * The current date.
 891:Generated_Source\PSoC4/RTC_1.h **** *
 892:Generated_Source\PSoC4/RTC_1.h **** * \param periodOfDay
 893:Generated_Source\PSoC4/RTC_1.h **** * The AmPm status to be set to the time variable.
 894:Generated_Source\PSoC4/RTC_1.h **** *
 895:Generated_Source\PSoC4/RTC_1.h **** * \return
 896:Generated_Source\PSoC4/RTC_1.h **** * The updated time variable.
 897:Generated_Source\PSoC4/RTC_1.h **** * \endinternal
 898:Generated_Source\PSoC4/RTC_1.h **** *******************************************************************************/
 899:Generated_Source\PSoC4/RTC_1.h **** static CY_INLINE uint32 RTC_1_SetAmPm(uint32 inputTime, uint32 periodOfDay)
 900:Generated_Source\PSoC4/RTC_1.h **** {
 901:Generated_Source\PSoC4/RTC_1.h ****     if(0u != periodOfDay)
 902:Generated_Source\PSoC4/RTC_1.h ****     {
 903:Generated_Source\PSoC4/RTC_1.h ****         inputTime &= ~(RTC_1_PERIOD_OF_DAY_MASK);
 904:Generated_Source\PSoC4/RTC_1.h ****     }
 905:Generated_Source\PSoC4/RTC_1.h ****     else
 906:Generated_Source\PSoC4/RTC_1.h ****     {
 907:Generated_Source\PSoC4/RTC_1.h ****         inputTime |= RTC_1_PERIOD_OF_DAY_MASK;
 908:Generated_Source\PSoC4/RTC_1.h ****     }
 909:Generated_Source\PSoC4/RTC_1.h **** 
 910:Generated_Source\PSoC4/RTC_1.h ****     return(inputTime);
 911:Generated_Source\PSoC4/RTC_1.h **** }
 912:Generated_Source\PSoC4/RTC_1.h **** 
 913:Generated_Source\PSoC4/RTC_1.h **** 
 914:Generated_Source\PSoC4/RTC_1.h **** /*******************************************************************************
 915:Generated_Source\PSoC4/RTC_1.h **** * Function Name: RTC_1_SetDay
 916:Generated_Source\PSoC4/RTC_1.h **** ****************************************************************************//**
 917:Generated_Source\PSoC4/RTC_1.h **** * \internal
 918:Generated_Source\PSoC4/RTC_1.h **** * Updates the date variable with the new day value.
 919:Generated_Source\PSoC4/RTC_1.h **** *
 920:Generated_Source\PSoC4/RTC_1.h **** * \param inputDate
 921:Generated_Source\PSoC4/RTC_1.h **** * The current date.
 922:Generated_Source\PSoC4/RTC_1.h **** *
 923:Generated_Source\PSoC4/RTC_1.h **** * \param inputDay
 924:Generated_Source\PSoC4/RTC_1.h **** * day The month to be set to the date variable.
 925:Generated_Source\PSoC4/RTC_1.h **** *
 926:Generated_Source\PSoC4/RTC_1.h **** * \return
 927:Generated_Source\PSoC4/RTC_1.h **** * The updated date variable.
 928:Generated_Source\PSoC4/RTC_1.h **** * \endinternal
 929:Generated_Source\PSoC4/RTC_1.h **** *******************************************************************************/
 930:Generated_Source\PSoC4/RTC_1.h **** static CY_INLINE uint32 RTC_1_SetDay(uint32 inputDate, uint32 inputDay)
 931:Generated_Source\PSoC4/RTC_1.h **** {
 932:Generated_Source\PSoC4/RTC_1.h ****     inputDate &= ~(RTC_1_DAY_FULL_MASK);
 933:Generated_Source\PSoC4/RTC_1.h **** 
 934:Generated_Source\PSoC4/RTC_1.h ****     inputDate |= (inputDay / 10u) << RTC_1_10_DAY_OFFSET;
 935:Generated_Source\PSoC4/RTC_1.h ****     inputDate |= (inputDay % 10u) << RTC_1_DAY_OFFSET;
 936:Generated_Source\PSoC4/RTC_1.h **** 
 937:Generated_Source\PSoC4/RTC_1.h ****     return(inputDate);
 938:Generated_Source\PSoC4/RTC_1.h **** }
 939:Generated_Source\PSoC4/RTC_1.h **** 
 940:Generated_Source\PSoC4/RTC_1.h **** 
 941:Generated_Source\PSoC4/RTC_1.h **** /*******************************************************************************
ARM GAS  C:\Users\7709\AppData\Local\Temp\ccQ2UUYk.s 			page 26


 942:Generated_Source\PSoC4/RTC_1.h **** * Function Name: RTC_1_SetMonth
 943:Generated_Source\PSoC4/RTC_1.h **** ****************************************************************************//**
 944:Generated_Source\PSoC4/RTC_1.h **** * \internal
 945:Generated_Source\PSoC4/RTC_1.h **** * Updates the date variable with the new month value.
 946:Generated_Source\PSoC4/RTC_1.h **** *
 947:Generated_Source\PSoC4/RTC_1.h **** * \param inputDate
 948:Generated_Source\PSoC4/RTC_1.h **** * The current date.
 949:Generated_Source\PSoC4/RTC_1.h **** *
 950:Generated_Source\PSoC4/RTC_1.h **** * \param inputMonth
 951:Generated_Source\PSoC4/RTC_1.h **** * The month that to be set to the date variable.
 952:Generated_Source\PSoC4/RTC_1.h **** *
 953:Generated_Source\PSoC4/RTC_1.h **** * \return
 954:Generated_Source\PSoC4/RTC_1.h **** * The updated date variable.
 955:Generated_Source\PSoC4/RTC_1.h **** * \endinternal
 956:Generated_Source\PSoC4/RTC_1.h **** *******************************************************************************/
 957:Generated_Source\PSoC4/RTC_1.h **** static CY_INLINE uint32 RTC_1_SetMonth(uint32 inputDate, uint32 inputMonth)
 958:Generated_Source\PSoC4/RTC_1.h **** {
 959:Generated_Source\PSoC4/RTC_1.h ****     inputDate &= ~(RTC_1_MONTH_FULL_MASK);
 960:Generated_Source\PSoC4/RTC_1.h **** 
 961:Generated_Source\PSoC4/RTC_1.h ****     inputDate |= (inputMonth / 10u) << RTC_1_10_MONTH_OFFSET;
 962:Generated_Source\PSoC4/RTC_1.h ****     inputDate |= (inputMonth % 10u) << RTC_1_MONTH_OFFSET;
 963:Generated_Source\PSoC4/RTC_1.h **** 
 964:Generated_Source\PSoC4/RTC_1.h ****     return(inputDate);
 965:Generated_Source\PSoC4/RTC_1.h **** }
 966:Generated_Source\PSoC4/RTC_1.h **** 
 967:Generated_Source\PSoC4/RTC_1.h **** 
 968:Generated_Source\PSoC4/RTC_1.h **** /*******************************************************************************
 969:Generated_Source\PSoC4/RTC_1.h **** * Function Name: RTC_1_SetYear
 970:Generated_Source\PSoC4/RTC_1.h **** ****************************************************************************//**
 971:Generated_Source\PSoC4/RTC_1.h **** *\internal
 972:Generated_Source\PSoC4/RTC_1.h **** * Updates the date variable with the new year value.
 973:Generated_Source\PSoC4/RTC_1.h **** *
 974:Generated_Source\PSoC4/RTC_1.h **** * \param inputDate
 975:Generated_Source\PSoC4/RTC_1.h **** * The current date.
 976:Generated_Source\PSoC4/RTC_1.h **** *
 977:Generated_Source\PSoC4/RTC_1.h **** * \param inputYear
 978:Generated_Source\PSoC4/RTC_1.h **** * The year to be set to the date variable.
 979:Generated_Source\PSoC4/RTC_1.h **** *
 980:Generated_Source\PSoC4/RTC_1.h **** * \return
 981:Generated_Source\PSoC4/RTC_1.h **** * The updated date variable.
 982:Generated_Source\PSoC4/RTC_1.h **** * \endinternal
 983:Generated_Source\PSoC4/RTC_1.h **** *******************************************************************************/
 984:Generated_Source\PSoC4/RTC_1.h **** static CY_INLINE uint32 RTC_1_SetYear(uint32 inputDate, uint32 inputYear)
 985:Generated_Source\PSoC4/RTC_1.h **** {
 986:Generated_Source\PSoC4/RTC_1.h ****     inputDate  &= ~(RTC_1_YEAR_FULL_MASK);
 987:Generated_Source\PSoC4/RTC_1.h **** 
 988:Generated_Source\PSoC4/RTC_1.h ****     inputDate |= (inputYear / 1000u) << RTC_1_1000_YEAR_OFFSET;
 989:Generated_Source\PSoC4/RTC_1.h ****     inputYear %= 1000u;
 990:Generated_Source\PSoC4/RTC_1.h **** 
 991:Generated_Source\PSoC4/RTC_1.h ****     inputDate |= (inputYear / 100u) << RTC_1_100_YEAR_OFFSET;
 992:Generated_Source\PSoC4/RTC_1.h ****     inputYear %= 100u;
 993:Generated_Source\PSoC4/RTC_1.h **** 
 994:Generated_Source\PSoC4/RTC_1.h ****     inputDate |= (inputYear / 10u) << RTC_1_10_YEAR_OFFSET;
 995:Generated_Source\PSoC4/RTC_1.h ****     inputDate |= (inputYear % 10u) << RTC_1_YEAR_OFFSET;
 996:Generated_Source\PSoC4/RTC_1.h **** 
 997:Generated_Source\PSoC4/RTC_1.h ****     return(inputDate);
 998:Generated_Source\PSoC4/RTC_1.h **** }
ARM GAS  C:\Users\7709\AppData\Local\Temp\ccQ2UUYk.s 			page 27


 999:Generated_Source\PSoC4/RTC_1.h **** 
1000:Generated_Source\PSoC4/RTC_1.h **** 
1001:Generated_Source\PSoC4/RTC_1.h **** /*******************************************************************************
1002:Generated_Source\PSoC4/RTC_1.h **** * Function Name: RTC_1_GetNextMinSec
1003:Generated_Source\PSoC4/RTC_1.h **** ****************************************************************************//**
1004:Generated_Source\PSoC4/RTC_1.h **** *\internal
1005:Generated_Source\PSoC4/RTC_1.h **** * This is an internal function that calculates the value of the next Second/Minute
1006:Generated_Source\PSoC4/RTC_1.h **** * that follows after the current Minute/Second.
1007:Generated_Source\PSoC4/RTC_1.h **** *
1008:Generated_Source\PSoC4/RTC_1.h **** * \param curVal
1009:Generated_Source\PSoC4/RTC_1.h **** * The current Second/Minute value.
1010:Generated_Source\PSoC4/RTC_1.h **** *
1011:Generated_Source\PSoC4/RTC_1.h **** * \return
1012:Generated_Source\PSoC4/RTC_1.h **** * Returns the Second/Minute which follows after the current Second/Minute.
1013:Generated_Source\PSoC4/RTC_1.h **** * \endinternal
1014:Generated_Source\PSoC4/RTC_1.h **** *******************************************************************************/
1015:Generated_Source\PSoC4/RTC_1.h **** static CY_INLINE uint32 RTC_1_GetNextMinSec(uint32 curVal)
1016:Generated_Source\PSoC4/RTC_1.h **** {
1017:Generated_Source\PSoC4/RTC_1.h ****     return((curVal < 59u) ? (curVal + 1u) : 0u);
1018:Generated_Source\PSoC4/RTC_1.h **** }
1019:Generated_Source\PSoC4/RTC_1.h **** 
1020:Generated_Source\PSoC4/RTC_1.h **** 
1021:Generated_Source\PSoC4/RTC_1.h **** /*******************************************************************************
1022:Generated_Source\PSoC4/RTC_1.h **** * Function Name: RTC_1_GetNextHour
1023:Generated_Source\PSoC4/RTC_1.h **** ****************************************************************************//**
1024:Generated_Source\PSoC4/RTC_1.h **** * \internal
1025:Generated_Source\PSoC4/RTC_1.h **** *  This is an internal function that calculates the value of the next Hour
1026:Generated_Source\PSoC4/RTC_1.h **** *  that follows after the current Hour.
1027:Generated_Source\PSoC4/RTC_1.h **** *
1028:Generated_Source\PSoC4/RTC_1.h **** * \param curVal
1029:Generated_Source\PSoC4/RTC_1.h **** * The current Hour value.
1030:Generated_Source\PSoC4/RTC_1.h **** *
1031:Generated_Source\PSoC4/RTC_1.h **** * \return
1032:Generated_Source\PSoC4/RTC_1.h **** * Returns the Hour which follows after the current Hour.
1033:Generated_Source\PSoC4/RTC_1.h **** * \endinternal
1034:Generated_Source\PSoC4/RTC_1.h **** *******************************************************************************/
1035:Generated_Source\PSoC4/RTC_1.h **** static CY_INLINE uint32 RTC_1_GetNextHour(uint32 curVal)
1036:Generated_Source\PSoC4/RTC_1.h **** {
1037:Generated_Source\PSoC4/RTC_1.h ****     return((curVal < 23u) ? (curVal + 1u) : 0u);
1038:Generated_Source\PSoC4/RTC_1.h **** }
1039:Generated_Source\PSoC4/RTC_1.h **** 
1040:Generated_Source\PSoC4/RTC_1.h **** 
1041:Generated_Source\PSoC4/RTC_1.h **** /*******************************************************************************
1042:Generated_Source\PSoC4/RTC_1.h **** * Function Name: RTC_1_GetNextDay
1043:Generated_Source\PSoC4/RTC_1.h **** ****************************************************************************//**
1044:Generated_Source\PSoC4/RTC_1.h **** * \internal
1045:Generated_Source\PSoC4/RTC_1.h **** *  This is an internal function that calculates the value of the next Day
1046:Generated_Source\PSoC4/RTC_1.h **** *  that follows after the current Day.
1047:Generated_Source\PSoC4/RTC_1.h **** *
1048:Generated_Source\PSoC4/RTC_1.h **** * \param curYear
1049:Generated_Source\PSoC4/RTC_1.h **** * The current year.
1050:Generated_Source\PSoC4/RTC_1.h **** *
1051:Generated_Source\PSoC4/RTC_1.h **** * \param curMonth
1052:Generated_Source\PSoC4/RTC_1.h **** * The current month.
1053:Generated_Source\PSoC4/RTC_1.h **** *
1054:Generated_Source\PSoC4/RTC_1.h **** * \param curDay
1055:Generated_Source\PSoC4/RTC_1.h **** * The current day.
ARM GAS  C:\Users\7709\AppData\Local\Temp\ccQ2UUYk.s 			page 28


1056:Generated_Source\PSoC4/RTC_1.h **** *
1057:Generated_Source\PSoC4/RTC_1.h **** * \param alarmCfgMask
1058:Generated_Source\PSoC4/RTC_1.h **** * Alarm Config Mask.
1059:Generated_Source\PSoC4/RTC_1.h **** *
1060:Generated_Source\PSoC4/RTC_1.h **** * \return
1061:Generated_Source\PSoC4/RTC_1.h **** * Returns the day which follows after the current Day.
1062:Generated_Source\PSoC4/RTC_1.h **** * \endinternal
1063:Generated_Source\PSoC4/RTC_1.h **** *******************************************************************************/
1064:Generated_Source\PSoC4/RTC_1.h **** static CY_INLINE uint32 RTC_1_GetNextDay(uint32 curYear, uint32 curMonth,
1065:Generated_Source\PSoC4/RTC_1.h ****                                                     uint32 curDay, uint32 alarmCfgMask)
1066:Generated_Source\PSoC4/RTC_1.h **** {
1067:Generated_Source\PSoC4/RTC_1.h ****     uint32 daysInMonth;
1068:Generated_Source\PSoC4/RTC_1.h ****     uint32 tmpVal;
1069:Generated_Source\PSoC4/RTC_1.h **** 
1070:Generated_Source\PSoC4/RTC_1.h ****     daysInMonth = RTC_1_DaysInMonth(curMonth, curYear);
1071:Generated_Source\PSoC4/RTC_1.h **** 
1072:Generated_Source\PSoC4/RTC_1.h ****     if(0u != (alarmCfgMask & RTC_1_ALARM_DAYOFWEEK_MASK))
1073:Generated_Source\PSoC4/RTC_1.h ****     {
1074:Generated_Source\PSoC4/RTC_1.h ****         tmpVal = curDay + RTC_1_DAYS_PER_WEEK;
1075:Generated_Source\PSoC4/RTC_1.h ****         tmpVal = (tmpVal > daysInMonth) ? (tmpVal - daysInMonth) : tmpVal;
1076:Generated_Source\PSoC4/RTC_1.h ****     }
1077:Generated_Source\PSoC4/RTC_1.h ****     else
1078:Generated_Source\PSoC4/RTC_1.h ****     {
1079:Generated_Source\PSoC4/RTC_1.h ****         tmpVal = (curDay < daysInMonth) ? (curDay + 1u) : 1u;
1080:Generated_Source\PSoC4/RTC_1.h ****     }
1081:Generated_Source\PSoC4/RTC_1.h **** 
1082:Generated_Source\PSoC4/RTC_1.h ****     return(tmpVal);
1083:Generated_Source\PSoC4/RTC_1.h **** }
1084:Generated_Source\PSoC4/RTC_1.h **** 
1085:Generated_Source\PSoC4/RTC_1.h **** 
1086:Generated_Source\PSoC4/RTC_1.h **** /*******************************************************************************
1087:Generated_Source\PSoC4/RTC_1.h **** * Function Name: RTC_1_GetNextMonth
1088:Generated_Source\PSoC4/RTC_1.h **** ****************************************************************************//**
1089:Generated_Source\PSoC4/RTC_1.h **** * \internal
1090:Generated_Source\PSoC4/RTC_1.h **** * This is an internal function that calculates the value of the next month
1091:Generated_Source\PSoC4/RTC_1.h **** * that follows after the current month.
1092:Generated_Source\PSoC4/RTC_1.h **** *
1093:Generated_Source\PSoC4/RTC_1.h **** * \param curMonth
1094:Generated_Source\PSoC4/RTC_1.h **** * The current month.
1095:Generated_Source\PSoC4/RTC_1.h **** *
1096:Generated_Source\PSoC4/RTC_1.h **** * \return
1097:Generated_Source\PSoC4/RTC_1.h **** * Returns the month which follows after the current month.
1098:Generated_Source\PSoC4/RTC_1.h **** * \endinternal
1099:Generated_Source\PSoC4/RTC_1.h **** *******************************************************************************/
1100:Generated_Source\PSoC4/RTC_1.h **** static CY_INLINE uint32 RTC_1_GetNextMonth(uint32 curMonth)
1101:Generated_Source\PSoC4/RTC_1.h **** {
1102:Generated_Source\PSoC4/RTC_1.h ****     return((curMonth < 12u) ? (curMonth + 1u) : 1u);
1103:Generated_Source\PSoC4/RTC_1.h **** }
1104:Generated_Source\PSoC4/RTC_1.h **** 
1105:Generated_Source\PSoC4/RTC_1.h **** 
1106:Generated_Source\PSoC4/RTC_1.h **** /*******************************************************************************
1107:Generated_Source\PSoC4/RTC_1.h **** * Function Name: RTC_1_GetNextYear
1108:Generated_Source\PSoC4/RTC_1.h **** ****************************************************************************//**
1109:Generated_Source\PSoC4/RTC_1.h **** * \internal
1110:Generated_Source\PSoC4/RTC_1.h **** * This is an internal function that calculates the value of the next year
1111:Generated_Source\PSoC4/RTC_1.h **** * that follows after the current year.
1112:Generated_Source\PSoC4/RTC_1.h **** *
ARM GAS  C:\Users\7709\AppData\Local\Temp\ccQ2UUYk.s 			page 29


1113:Generated_Source\PSoC4/RTC_1.h **** * \param curYear
1114:Generated_Source\PSoC4/RTC_1.h **** * The current year.
1115:Generated_Source\PSoC4/RTC_1.h **** *
1116:Generated_Source\PSoC4/RTC_1.h **** * \return
1117:Generated_Source\PSoC4/RTC_1.h **** * Returns the year which follows after the current year.
1118:Generated_Source\PSoC4/RTC_1.h **** * \endinternal
1119:Generated_Source\PSoC4/RTC_1.h **** *******************************************************************************/
1120:Generated_Source\PSoC4/RTC_1.h **** static CY_INLINE uint32 RTC_1_GetNextYear(uint32 curYear)
1121:Generated_Source\PSoC4/RTC_1.h **** {
1122:Generated_Source\PSoC4/RTC_1.h ****     return(curYear + 1u);
1123:Generated_Source\PSoC4/RTC_1.h **** }
1124:Generated_Source\PSoC4/RTC_1.h **** 
1125:Generated_Source\PSoC4/RTC_1.h **** 
1126:Generated_Source\PSoC4/RTC_1.h **** /*******************************************************************************
1127:Generated_Source\PSoC4/RTC_1.h **** * Function Name: RTC_1_SetTimeFormat
1128:Generated_Source\PSoC4/RTC_1.h **** ****************************************************************************//**
1129:Generated_Source\PSoC4/RTC_1.h **** * \internal
1130:Generated_Source\PSoC4/RTC_1.h **** * Updates the "Time Format" value in the variable that contains time in the
1131:Generated_Source\PSoC4/RTC_1.h **** * "HH:MM:SS" format.
1132:Generated_Source\PSoC4/RTC_1.h **** *
1133:Generated_Source\PSoC4/RTC_1.h **** * \param inputTime
1134:Generated_Source\PSoC4/RTC_1.h **** * The current value of the time in the "HH:MM:SS" format.
1135:Generated_Source\PSoC4/RTC_1.h **** *
1136:Generated_Source\PSoC4/RTC_1.h **** * \param timeFormat
1137:Generated_Source\PSoC4/RTC_1.h **** * Required time format
1138:Generated_Source\PSoC4/RTC_1.h **** *
1139:Generated_Source\PSoC4/RTC_1.h **** * \return
1140:Generated_Source\PSoC4/RTC_1.h **** * Returns the updated value of the time in the "HH:MM:SS" format.
1141:Generated_Source\PSoC4/RTC_1.h **** * \endinternal
1142:Generated_Source\PSoC4/RTC_1.h **** *******************************************************************************/
1143:Generated_Source\PSoC4/RTC_1.h **** static CY_INLINE uint32 RTC_1_SetTimeFormat(uint32 inputTime, uint32 timeFormat)
1144:Generated_Source\PSoC4/RTC_1.h **** {
1145:Generated_Source\PSoC4/RTC_1.h ****     inputTime &= ~(RTC_1_TIME_FORMAT_MASK);
1146:Generated_Source\PSoC4/RTC_1.h **** 
1147:Generated_Source\PSoC4/RTC_1.h ****     if((uint32)RTC_1_12_HOURS_FORMAT != timeFormat)
1148:Generated_Source\PSoC4/RTC_1.h ****     {
1149:Generated_Source\PSoC4/RTC_1.h ****         inputTime |= RTC_1_TIME_FORMAT_MASK;
1150:Generated_Source\PSoC4/RTC_1.h ****     }
1151:Generated_Source\PSoC4/RTC_1.h **** 
1152:Generated_Source\PSoC4/RTC_1.h ****     return(inputTime);
1153:Generated_Source\PSoC4/RTC_1.h **** }
1154:Generated_Source\PSoC4/RTC_1.h **** 
1155:Generated_Source\PSoC4/RTC_1.h **** 
1156:Generated_Source\PSoC4/RTC_1.h **** /*******************************************************************************
1157:Generated_Source\PSoC4/RTC_1.h **** * Function Name: RTC_1_GetTimeFormat
1158:Generated_Source\PSoC4/RTC_1.h **** ****************************************************************************//**
1159:Generated_Source\PSoC4/RTC_1.h **** * \internal
1160:Generated_Source\PSoC4/RTC_1.h **** * Reads the time format from the variable that contains time in the
1161:Generated_Source\PSoC4/RTC_1.h **** * "HH:MM:SS" format.
1162:Generated_Source\PSoC4/RTC_1.h **** *
1163:Generated_Source\PSoC4/RTC_1.h **** * \param inputTime
1164:Generated_Source\PSoC4/RTC_1.h **** * The current value of the time in the "HH:MM:SS" format.
1165:Generated_Source\PSoC4/RTC_1.h **** *
1166:Generated_Source\PSoC4/RTC_1.h **** * \return
1167:Generated_Source\PSoC4/RTC_1.h **** * Returns the time format that is stored in the variable that contains time
1168:Generated_Source\PSoC4/RTC_1.h **** * in the "HH:MM:SS" format.
1169:Generated_Source\PSoC4/RTC_1.h **** * \endinternal
ARM GAS  C:\Users\7709\AppData\Local\Temp\ccQ2UUYk.s 			page 30


1170:Generated_Source\PSoC4/RTC_1.h **** *******************************************************************************/
1171:Generated_Source\PSoC4/RTC_1.h **** static CY_INLINE uint32 RTC_1_GetTimeFormat(uint32 inputTime)
1172:Generated_Source\PSoC4/RTC_1.h **** {
 485              		.loc 1 1172 0
 486              		.cfi_startproc
 487              		@ args = 0, pretend = 0, frame = 8
 488              		@ frame_needed = 1, uses_anonymous_args = 0
 489 0000 80B5     		push	{r7, lr}
 490              		.cfi_def_cfa_offset 8
 491              		.cfi_offset 7, -8
 492              		.cfi_offset 14, -4
 493 0002 82B0     		sub	sp, sp, #8
 494              		.cfi_def_cfa_offset 16
 495 0004 00AF     		add	r7, sp, #0
 496              		.cfi_def_cfa_register 7
 497 0006 7860     		str	r0, [r7, #4]
1173:Generated_Source\PSoC4/RTC_1.h ****     return ((0uL != (inputTime & (1uL << RTC_1_TIME_FORMAT_OFFSET))) ?
 498              		.loc 1 1173 0
 499 0008 7A68     		ldr	r2, [r7, #4]
 500 000a 8023     		movs	r3, #128
 501 000c 1B04     		lsls	r3, r3, #16
 502 000e 1340     		ands	r3, r2
1174:Generated_Source\PSoC4/RTC_1.h ****                                        (uint32)RTC_1_12_HOURS_FORMAT :
 503              		.loc 1 1174 0
 504 0010 01D0     		beq	.L26
 505              		.loc 1 1174 0 is_stmt 0 discriminator 1
 506 0012 0123     		movs	r3, #1
1173:Generated_Source\PSoC4/RTC_1.h ****     return ((0uL != (inputTime & (1uL << RTC_1_TIME_FORMAT_OFFSET))) ?
 507              		.loc 1 1173 0 is_stmt 1 discriminator 1
 508 0014 00E0     		b	.L28
 509              	.L26:
 510              		.loc 1 1174 0 discriminator 2
 511 0016 0023     		movs	r3, #0
 512              	.L28:
1175:Generated_Source\PSoC4/RTC_1.h ****                                        (uint32)RTC_1_24_HOURS_FORMAT);
1176:Generated_Source\PSoC4/RTC_1.h **** }
 513              		.loc 1 1176 0 discriminator 1
 514 0018 1800     		movs	r0, r3
 515 001a BD46     		mov	sp, r7
 516 001c 02B0     		add	sp, sp, #8
 517              		@ sp needed
 518 001e 80BD     		pop	{r7, pc}
 519              		.cfi_endproc
 520              	.LFE24:
 521              		.size	RTC_1_GetTimeFormat, .-RTC_1_GetTimeFormat
 522              		.global	__aeabi_uidiv
 523              		.section	.text.RTC_1_ConstructTime,"ax",%progbits
 524              		.align	2
 525              		.code	16
 526              		.thumb_func
 527              		.type	RTC_1_ConstructTime, %function
 528              	RTC_1_ConstructTime:
 529              	.LFB25:
1177:Generated_Source\PSoC4/RTC_1.h **** 
1178:Generated_Source\PSoC4/RTC_1.h **** 
1179:Generated_Source\PSoC4/RTC_1.h **** /*******************************************************************************
1180:Generated_Source\PSoC4/RTC_1.h **** * Function Name: RTC_1_ConstructTime
ARM GAS  C:\Users\7709\AppData\Local\Temp\ccQ2UUYk.s 			page 31


1181:Generated_Source\PSoC4/RTC_1.h **** ****************************************************************************//**
1182:Generated_Source\PSoC4/RTC_1.h **** *
1183:Generated_Source\PSoC4/RTC_1.h **** * Returns the time in the format used in APIs from individual elements
1184:Generated_Source\PSoC4/RTC_1.h **** * passed (hour, min, sec etc)
1185:Generated_Source\PSoC4/RTC_1.h **** *
1186:Generated_Source\PSoC4/RTC_1.h **** * \param timeFormat
1187:Generated_Source\PSoC4/RTC_1.h **** * The 12/24 hours time format, see \ref group_rtc_hour_format
1188:Generated_Source\PSoC4/RTC_1.h **** *
1189:Generated_Source\PSoC4/RTC_1.h **** * \param stateAmPm 
1190:Generated_Source\PSoC4/RTC_1.h **** * The AM/PM status, see \ref group_rtc_am_pm.
1191:Generated_Source\PSoC4/RTC_1.h **** *
1192:Generated_Source\PSoC4/RTC_1.h **** * \param hour
1193:Generated_Source\PSoC4/RTC_1.h **** * The hour.
1194:Generated_Source\PSoC4/RTC_1.h **** *
1195:Generated_Source\PSoC4/RTC_1.h **** * \param min
1196:Generated_Source\PSoC4/RTC_1.h **** * The minute.
1197:Generated_Source\PSoC4/RTC_1.h **** *
1198:Generated_Source\PSoC4/RTC_1.h **** * \param sec
1199:Generated_Source\PSoC4/RTC_1.h **** * The second.
1200:Generated_Source\PSoC4/RTC_1.h **** *
1201:Generated_Source\PSoC4/RTC_1.h **** * \return
1202:Generated_Source\PSoC4/RTC_1.h **** * Time in the format used in API.
1203:Generated_Source\PSoC4/RTC_1.h **** *
1204:Generated_Source\PSoC4/RTC_1.h **** *******************************************************************************/
1205:Generated_Source\PSoC4/RTC_1.h **** static CY_INLINE uint32 RTC_1_ConstructTime(uint32 timeFormat, uint32 stateAmPm, 
1206:Generated_Source\PSoC4/RTC_1.h ****                                                        uint32 hour, uint32 min, uint32 sec)
1207:Generated_Source\PSoC4/RTC_1.h **** {
 530              		.loc 1 1207 0
 531              		.cfi_startproc
 532              		@ args = 4, pretend = 0, frame = 24
 533              		@ frame_needed = 1, uses_anonymous_args = 0
 534 0000 80B5     		push	{r7, lr}
 535              		.cfi_def_cfa_offset 8
 536              		.cfi_offset 7, -8
 537              		.cfi_offset 14, -4
 538 0002 86B0     		sub	sp, sp, #24
 539              		.cfi_def_cfa_offset 32
 540 0004 00AF     		add	r7, sp, #0
 541              		.cfi_def_cfa_register 7
 542 0006 F860     		str	r0, [r7, #12]
 543 0008 B960     		str	r1, [r7, #8]
 544 000a 7A60     		str	r2, [r7, #4]
 545 000c 3B60     		str	r3, [r7]
1208:Generated_Source\PSoC4/RTC_1.h ****     uint32 retVal;
1209:Generated_Source\PSoC4/RTC_1.h **** 
1210:Generated_Source\PSoC4/RTC_1.h ****     retVal  = timeFormat << RTC_1_TIME_FORMAT_OFFSET;
 546              		.loc 1 1210 0
 547 000e FB68     		ldr	r3, [r7, #12]
 548 0010 DB05     		lsls	r3, r3, #23
 549 0012 7B61     		str	r3, [r7, #20]
1211:Generated_Source\PSoC4/RTC_1.h ****     retVal |= stateAmPm << RTC_1_PERIOD_OF_DAY_OFFSET;
 550              		.loc 1 1211 0
 551 0014 BB68     		ldr	r3, [r7, #8]
 552 0016 9B05     		lsls	r3, r3, #22
 553 0018 7A69     		ldr	r2, [r7, #20]
 554 001a 1343     		orrs	r3, r2
 555 001c 7B61     		str	r3, [r7, #20]
ARM GAS  C:\Users\7709\AppData\Local\Temp\ccQ2UUYk.s 			page 32


1212:Generated_Source\PSoC4/RTC_1.h **** 
1213:Generated_Source\PSoC4/RTC_1.h ****     retVal |= (hour / 10u) << RTC_1_10_HOURS_OFFSET;
 556              		.loc 1 1213 0
 557 001e 7B68     		ldr	r3, [r7, #4]
 558 0020 0A21     		movs	r1, #10
 559 0022 1800     		movs	r0, r3
 560 0024 FFF7FEFF 		bl	__aeabi_uidiv
 561 0028 0300     		movs	r3, r0
 562 002a 1B05     		lsls	r3, r3, #20
 563 002c 7A69     		ldr	r2, [r7, #20]
 564 002e 1343     		orrs	r3, r2
 565 0030 7B61     		str	r3, [r7, #20]
1214:Generated_Source\PSoC4/RTC_1.h ****     retVal |= (hour % 10u) << RTC_1_HOURS_OFFSET;
 566              		.loc 1 1214 0
 567 0032 7B68     		ldr	r3, [r7, #4]
 568 0034 0A21     		movs	r1, #10
 569 0036 1800     		movs	r0, r3
 570 0038 FFF7FEFF 		bl	__aeabi_uidivmod
 571 003c 0B00     		movs	r3, r1
 572 003e 1B04     		lsls	r3, r3, #16
 573 0040 7A69     		ldr	r2, [r7, #20]
 574 0042 1343     		orrs	r3, r2
 575 0044 7B61     		str	r3, [r7, #20]
1215:Generated_Source\PSoC4/RTC_1.h **** 
1216:Generated_Source\PSoC4/RTC_1.h ****     retVal |= (min / 10u) << RTC_1_10_MINUTES_OFFSET;
 576              		.loc 1 1216 0
 577 0046 3B68     		ldr	r3, [r7]
 578 0048 0A21     		movs	r1, #10
 579 004a 1800     		movs	r0, r3
 580 004c FFF7FEFF 		bl	__aeabi_uidiv
 581 0050 0300     		movs	r3, r0
 582 0052 1B03     		lsls	r3, r3, #12
 583 0054 7A69     		ldr	r2, [r7, #20]
 584 0056 1343     		orrs	r3, r2
 585 0058 7B61     		str	r3, [r7, #20]
1217:Generated_Source\PSoC4/RTC_1.h ****     retVal |= (min % 10u) << RTC_1_MINUTES_OFFSET;
 586              		.loc 1 1217 0
 587 005a 3B68     		ldr	r3, [r7]
 588 005c 0A21     		movs	r1, #10
 589 005e 1800     		movs	r0, r3
 590 0060 FFF7FEFF 		bl	__aeabi_uidivmod
 591 0064 0B00     		movs	r3, r1
 592 0066 1B02     		lsls	r3, r3, #8
 593 0068 7A69     		ldr	r2, [r7, #20]
 594 006a 1343     		orrs	r3, r2
 595 006c 7B61     		str	r3, [r7, #20]
1218:Generated_Source\PSoC4/RTC_1.h **** 
1219:Generated_Source\PSoC4/RTC_1.h ****     retVal |= (sec / 10u) << RTC_1_10_SECONDS_OFFSET;
 596              		.loc 1 1219 0
 597 006e 3B6A     		ldr	r3, [r7, #32]
 598 0070 0A21     		movs	r1, #10
 599 0072 1800     		movs	r0, r3
 600 0074 FFF7FEFF 		bl	__aeabi_uidiv
 601 0078 0300     		movs	r3, r0
 602 007a 1B01     		lsls	r3, r3, #4
 603 007c 7A69     		ldr	r2, [r7, #20]
 604 007e 1343     		orrs	r3, r2
ARM GAS  C:\Users\7709\AppData\Local\Temp\ccQ2UUYk.s 			page 33


 605 0080 7B61     		str	r3, [r7, #20]
1220:Generated_Source\PSoC4/RTC_1.h ****     retVal |= (sec % 10u) << RTC_1_SECONDS_OFFSET;
 606              		.loc 1 1220 0
 607 0082 3B6A     		ldr	r3, [r7, #32]
 608 0084 0A21     		movs	r1, #10
 609 0086 1800     		movs	r0, r3
 610 0088 FFF7FEFF 		bl	__aeabi_uidivmod
 611 008c 0B00     		movs	r3, r1
 612 008e 1A00     		movs	r2, r3
 613 0090 7B69     		ldr	r3, [r7, #20]
 614 0092 1343     		orrs	r3, r2
 615 0094 7B61     		str	r3, [r7, #20]
1221:Generated_Source\PSoC4/RTC_1.h **** 
1222:Generated_Source\PSoC4/RTC_1.h ****     return (retVal);
 616              		.loc 1 1222 0
 617 0096 7B69     		ldr	r3, [r7, #20]
1223:Generated_Source\PSoC4/RTC_1.h **** }
 618              		.loc 1 1223 0
 619 0098 1800     		movs	r0, r3
 620 009a BD46     		mov	sp, r7
 621 009c 06B0     		add	sp, sp, #24
 622              		@ sp needed
 623 009e 80BD     		pop	{r7, pc}
 624              		.cfi_endproc
 625              	.LFE25:
 626              		.size	RTC_1_ConstructTime, .-RTC_1_ConstructTime
 627              		.section	.text.RTC_1_ConstructDate,"ax",%progbits
 628              		.align	2
 629              		.code	16
 630              		.thumb_func
 631              		.type	RTC_1_ConstructDate, %function
 632              	RTC_1_ConstructDate:
 633              	.LFB26:
1224:Generated_Source\PSoC4/RTC_1.h **** 
1225:Generated_Source\PSoC4/RTC_1.h **** 
1226:Generated_Source\PSoC4/RTC_1.h **** /*******************************************************************************
1227:Generated_Source\PSoC4/RTC_1.h **** * Function Name: RTC_1_ConstructDate
1228:Generated_Source\PSoC4/RTC_1.h **** ****************************************************************************//**
1229:Generated_Source\PSoC4/RTC_1.h **** *
1230:Generated_Source\PSoC4/RTC_1.h **** *  Returns the date in the format used in APIs from individual elements
1231:Generated_Source\PSoC4/RTC_1.h **** *  passed (day. Month and year)
1232:Generated_Source\PSoC4/RTC_1.h **** *
1233:Generated_Source\PSoC4/RTC_1.h **** * \param month
1234:Generated_Source\PSoC4/RTC_1.h **** * The month.
1235:Generated_Source\PSoC4/RTC_1.h **** *
1236:Generated_Source\PSoC4/RTC_1.h **** * \param day
1237:Generated_Source\PSoC4/RTC_1.h **** * The day.
1238:Generated_Source\PSoC4/RTC_1.h **** *
1239:Generated_Source\PSoC4/RTC_1.h **** * \param year
1240:Generated_Source\PSoC4/RTC_1.h **** * The year.
1241:Generated_Source\PSoC4/RTC_1.h **** *
1242:Generated_Source\PSoC4/RTC_1.h **** * \return
1243:Generated_Source\PSoC4/RTC_1.h **** * The date in the format used in API.
1244:Generated_Source\PSoC4/RTC_1.h **** *
1245:Generated_Source\PSoC4/RTC_1.h **** *******************************************************************************/
1246:Generated_Source\PSoC4/RTC_1.h **** static CY_INLINE uint32 RTC_1_ConstructDate(uint32 month, uint32 day, uint32 year)
1247:Generated_Source\PSoC4/RTC_1.h **** {
ARM GAS  C:\Users\7709\AppData\Local\Temp\ccQ2UUYk.s 			page 34


 634              		.loc 1 1247 0
 635              		.cfi_startproc
 636              		@ args = 0, pretend = 0, frame = 24
 637              		@ frame_needed = 1, uses_anonymous_args = 0
 638 0000 80B5     		push	{r7, lr}
 639              		.cfi_def_cfa_offset 8
 640              		.cfi_offset 7, -8
 641              		.cfi_offset 14, -4
 642 0002 86B0     		sub	sp, sp, #24
 643              		.cfi_def_cfa_offset 32
 644 0004 00AF     		add	r7, sp, #0
 645              		.cfi_def_cfa_register 7
 646 0006 F860     		str	r0, [r7, #12]
 647 0008 B960     		str	r1, [r7, #8]
 648 000a 7A60     		str	r2, [r7, #4]
1248:Generated_Source\PSoC4/RTC_1.h ****     uint32 retVal;
1249:Generated_Source\PSoC4/RTC_1.h ****     uint32 tmpVal = year;
 649              		.loc 1 1249 0
 650 000c 7B68     		ldr	r3, [r7, #4]
 651 000e 7B61     		str	r3, [r7, #20]
1250:Generated_Source\PSoC4/RTC_1.h **** 
1251:Generated_Source\PSoC4/RTC_1.h ****     retVal  = (month / 10u) << RTC_1_10_MONTH_OFFSET;
 652              		.loc 1 1251 0
 653 0010 FB68     		ldr	r3, [r7, #12]
 654 0012 0A21     		movs	r1, #10
 655 0014 1800     		movs	r0, r3
 656 0016 FFF7FEFF 		bl	__aeabi_uidiv
 657 001a 0300     		movs	r3, r0
 658 001c 1B07     		lsls	r3, r3, #28
 659 001e 3B61     		str	r3, [r7, #16]
1252:Generated_Source\PSoC4/RTC_1.h ****     retVal |= (month % 10u) << RTC_1_MONTH_OFFSET;
 660              		.loc 1 1252 0
 661 0020 FB68     		ldr	r3, [r7, #12]
 662 0022 0A21     		movs	r1, #10
 663 0024 1800     		movs	r0, r3
 664 0026 FFF7FEFF 		bl	__aeabi_uidivmod
 665 002a 0B00     		movs	r3, r1
 666 002c 1B06     		lsls	r3, r3, #24
 667 002e 3A69     		ldr	r2, [r7, #16]
 668 0030 1343     		orrs	r3, r2
 669 0032 3B61     		str	r3, [r7, #16]
1253:Generated_Source\PSoC4/RTC_1.h **** 
1254:Generated_Source\PSoC4/RTC_1.h ****     retVal |= (day / 10u) << RTC_1_10_DAY_OFFSET;
 670              		.loc 1 1254 0
 671 0034 BB68     		ldr	r3, [r7, #8]
 672 0036 0A21     		movs	r1, #10
 673 0038 1800     		movs	r0, r3
 674 003a FFF7FEFF 		bl	__aeabi_uidiv
 675 003e 0300     		movs	r3, r0
 676 0040 1B05     		lsls	r3, r3, #20
 677 0042 3A69     		ldr	r2, [r7, #16]
 678 0044 1343     		orrs	r3, r2
 679 0046 3B61     		str	r3, [r7, #16]
1255:Generated_Source\PSoC4/RTC_1.h ****     retVal |= (day % 10u) << RTC_1_DAY_OFFSET;
 680              		.loc 1 1255 0
 681 0048 BB68     		ldr	r3, [r7, #8]
 682 004a 0A21     		movs	r1, #10
ARM GAS  C:\Users\7709\AppData\Local\Temp\ccQ2UUYk.s 			page 35


 683 004c 1800     		movs	r0, r3
 684 004e FFF7FEFF 		bl	__aeabi_uidivmod
 685 0052 0B00     		movs	r3, r1
 686 0054 1B04     		lsls	r3, r3, #16
 687 0056 3A69     		ldr	r2, [r7, #16]
 688 0058 1343     		orrs	r3, r2
 689 005a 3B61     		str	r3, [r7, #16]
1256:Generated_Source\PSoC4/RTC_1.h **** 
1257:Generated_Source\PSoC4/RTC_1.h ****     retVal |= (year / 1000u) << RTC_1_1000_YEAR_OFFSET;
 690              		.loc 1 1257 0
 691 005c 7A68     		ldr	r2, [r7, #4]
 692 005e FA23     		movs	r3, #250
 693 0060 9900     		lsls	r1, r3, #2
 694 0062 1000     		movs	r0, r2
 695 0064 FFF7FEFF 		bl	__aeabi_uidiv
 696 0068 0300     		movs	r3, r0
 697 006a 1B03     		lsls	r3, r3, #12
 698 006c 3A69     		ldr	r2, [r7, #16]
 699 006e 1343     		orrs	r3, r2
 700 0070 3B61     		str	r3, [r7, #16]
1258:Generated_Source\PSoC4/RTC_1.h ****     tmpVal %= 1000u;
 701              		.loc 1 1258 0
 702 0072 7A69     		ldr	r2, [r7, #20]
 703 0074 FA23     		movs	r3, #250
 704 0076 9900     		lsls	r1, r3, #2
 705 0078 1000     		movs	r0, r2
 706 007a FFF7FEFF 		bl	__aeabi_uidivmod
 707 007e 0B00     		movs	r3, r1
 708 0080 7B61     		str	r3, [r7, #20]
1259:Generated_Source\PSoC4/RTC_1.h **** 
1260:Generated_Source\PSoC4/RTC_1.h ****     retVal |= (tmpVal / 100u) << RTC_1_100_YEAR_OFFSET;
 709              		.loc 1 1260 0
 710 0082 7B69     		ldr	r3, [r7, #20]
 711 0084 6421     		movs	r1, #100
 712 0086 1800     		movs	r0, r3
 713 0088 FFF7FEFF 		bl	__aeabi_uidiv
 714 008c 0300     		movs	r3, r0
 715 008e 1B02     		lsls	r3, r3, #8
 716 0090 3A69     		ldr	r2, [r7, #16]
 717 0092 1343     		orrs	r3, r2
 718 0094 3B61     		str	r3, [r7, #16]
1261:Generated_Source\PSoC4/RTC_1.h ****     tmpVal %= 100u;
 719              		.loc 1 1261 0
 720 0096 7B69     		ldr	r3, [r7, #20]
 721 0098 6421     		movs	r1, #100
 722 009a 1800     		movs	r0, r3
 723 009c FFF7FEFF 		bl	__aeabi_uidivmod
 724 00a0 0B00     		movs	r3, r1
 725 00a2 7B61     		str	r3, [r7, #20]
1262:Generated_Source\PSoC4/RTC_1.h **** 
1263:Generated_Source\PSoC4/RTC_1.h ****     retVal |= (tmpVal / 10u) << RTC_1_10_YEAR_OFFSET;
 726              		.loc 1 1263 0
 727 00a4 7B69     		ldr	r3, [r7, #20]
 728 00a6 0A21     		movs	r1, #10
 729 00a8 1800     		movs	r0, r3
 730 00aa FFF7FEFF 		bl	__aeabi_uidiv
 731 00ae 0300     		movs	r3, r0
ARM GAS  C:\Users\7709\AppData\Local\Temp\ccQ2UUYk.s 			page 36


 732 00b0 1B01     		lsls	r3, r3, #4
 733 00b2 3A69     		ldr	r2, [r7, #16]
 734 00b4 1343     		orrs	r3, r2
 735 00b6 3B61     		str	r3, [r7, #16]
1264:Generated_Source\PSoC4/RTC_1.h ****     retVal |= (tmpVal % 10u) << RTC_1_YEAR_OFFSET;
 736              		.loc 1 1264 0
 737 00b8 7B69     		ldr	r3, [r7, #20]
 738 00ba 0A21     		movs	r1, #10
 739 00bc 1800     		movs	r0, r3
 740 00be FFF7FEFF 		bl	__aeabi_uidivmod
 741 00c2 0B00     		movs	r3, r1
 742 00c4 1A00     		movs	r2, r3
 743 00c6 3B69     		ldr	r3, [r7, #16]
 744 00c8 1343     		orrs	r3, r2
 745 00ca 3B61     		str	r3, [r7, #16]
1265:Generated_Source\PSoC4/RTC_1.h **** 
1266:Generated_Source\PSoC4/RTC_1.h ****     return (retVal);
 746              		.loc 1 1266 0
 747 00cc 3B69     		ldr	r3, [r7, #16]
1267:Generated_Source\PSoC4/RTC_1.h **** }
 748              		.loc 1 1267 0
 749 00ce 1800     		movs	r0, r3
 750 00d0 BD46     		mov	sp, r7
 751 00d2 06B0     		add	sp, sp, #24
 752              		@ sp needed
 753 00d4 80BD     		pop	{r7, pc}
 754              		.cfi_endproc
 755              	.LFE26:
 756              		.size	RTC_1_ConstructDate, .-RTC_1_ConstructDate
 757              		.section	.text.RTC_1_GetDayOfWeek,"ax",%progbits
 758              		.align	2
 759              		.code	16
 760              		.thumb_func
 761              		.type	RTC_1_GetDayOfWeek, %function
 762              	RTC_1_GetDayOfWeek:
 763              	.LFB27:
1268:Generated_Source\PSoC4/RTC_1.h **** 
1269:Generated_Source\PSoC4/RTC_1.h **** 
1270:Generated_Source\PSoC4/RTC_1.h **** /*******************************************************************************
1271:Generated_Source\PSoC4/RTC_1.h **** * Function Name: RTC_1_GetDayOfWeek
1272:Generated_Source\PSoC4/RTC_1.h **** ****************************************************************************//**
1273:Generated_Source\PSoC4/RTC_1.h **** * \internal
1274:Generated_Source\PSoC4/RTC_1.h **** *
1275:Generated_Source\PSoC4/RTC_1.h **** *  Returns a day of the week for a year, month, and day of month that are passed
1276:Generated_Source\PSoC4/RTC_1.h **** *  through parameters. Zeller's congruence is used to calculate the day of
1277:Generated_Source\PSoC4/RTC_1.h **** *  the week.
1278:Generated_Source\PSoC4/RTC_1.h **** *
1279:Generated_Source\PSoC4/RTC_1.h **** *  For the Georgian calendar, Zeller's congruence is:
1280:Generated_Source\PSoC4/RTC_1.h **** *  h = (q + [13 * (m + 1)] + K + [K/4] + [J/4] - 2J) mod 7;
1281:Generated_Source\PSoC4/RTC_1.h **** *
1282:Generated_Source\PSoC4/RTC_1.h **** *  h - The day of the week (0 = Saturday, 1 = Sunday, 2 = Monday, ..., 
1283:Generated_Source\PSoC4/RTC_1.h **** *  6 = Friday).
1284:Generated_Source\PSoC4/RTC_1.h **** *  q - The day of the month.
1285:Generated_Source\PSoC4/RTC_1.h **** *  m - The month (3 = March, 4 = April, 5 = May, ..., 14 = February).
1286:Generated_Source\PSoC4/RTC_1.h **** *  K - The year of the century (year \mod 100).
1287:Generated_Source\PSoC4/RTC_1.h **** *  J - The zero-based century (actually [year/100]) For example, the zero-based
1288:Generated_Source\PSoC4/RTC_1.h **** *  centuries for 1995 and 2000 are 19 and 20 respectively (not to be
ARM GAS  C:\Users\7709\AppData\Local\Temp\ccQ2UUYk.s 			page 37


1289:Generated_Source\PSoC4/RTC_1.h **** *  confused with the common ordinal century enumeration which indicates
1290:Generated_Source\PSoC4/RTC_1.h **** *  20th for both cases).
1291:Generated_Source\PSoC4/RTC_1.h **** *
1292:Generated_Source\PSoC4/RTC_1.h **** * \note
1293:Generated_Source\PSoC4/RTC_1.h **** * In this algorithm January and February are counted as months 13 and 14
1294:Generated_Source\PSoC4/RTC_1.h **** * of the previous year.
1295:Generated_Source\PSoC4/RTC_1.h **** *
1296:Generated_Source\PSoC4/RTC_1.h **** * \param day
1297:Generated_Source\PSoC4/RTC_1.h **** * The day of the month(1..31)
1298:Generated_Source\PSoC4/RTC_1.h **** *
1299:Generated_Source\PSoC4/RTC_1.h **** * \param month
1300:Generated_Source\PSoC4/RTC_1.h **** * The month of the year, see \ref group_rtc_month
1301:Generated_Source\PSoC4/RTC_1.h **** *
1302:Generated_Source\PSoC4/RTC_1.h **** * \param year
1303:Generated_Source\PSoC4/RTC_1.h **** * The year value.
1304:Generated_Source\PSoC4/RTC_1.h **** *
1305:Generated_Source\PSoC4/RTC_1.h **** * \return
1306:Generated_Source\PSoC4/RTC_1.h **** * Returns a day of the week, see \ref group_rtc_day_of_the_week.
1307:Generated_Source\PSoC4/RTC_1.h **** *
1308:Generated_Source\PSoC4/RTC_1.h **** * \endinternal
1309:Generated_Source\PSoC4/RTC_1.h **** *******************************************************************************/
1310:Generated_Source\PSoC4/RTC_1.h **** static CY_INLINE uint32 RTC_1_GetDayOfWeek(uint32 day, uint32 month, uint32 year)
1311:Generated_Source\PSoC4/RTC_1.h **** {
 764              		.loc 1 1311 0
 765              		.cfi_startproc
 766              		@ args = 0, pretend = 0, frame = 24
 767              		@ frame_needed = 1, uses_anonymous_args = 0
 768 0000 90B5     		push	{r4, r7, lr}
 769              		.cfi_def_cfa_offset 12
 770              		.cfi_offset 4, -12
 771              		.cfi_offset 7, -8
 772              		.cfi_offset 14, -4
 773 0002 87B0     		sub	sp, sp, #28
 774              		.cfi_def_cfa_offset 40
 775 0004 00AF     		add	r7, sp, #0
 776              		.cfi_def_cfa_register 7
 777 0006 F860     		str	r0, [r7, #12]
 778 0008 B960     		str	r1, [r7, #8]
 779 000a 7A60     		str	r2, [r7, #4]
1312:Generated_Source\PSoC4/RTC_1.h ****     uint32 retVal;
1313:Generated_Source\PSoC4/RTC_1.h **** 
1314:Generated_Source\PSoC4/RTC_1.h ****     /* Converts month number from regular convention
1315:Generated_Source\PSoC4/RTC_1.h ****      * (1=January,..., 12=December) to convention required for this
1316:Generated_Source\PSoC4/RTC_1.h ****      * algorithm(January and February are counted as months 13 and 14 of
1317:Generated_Source\PSoC4/RTC_1.h ****      * previous year).
1318:Generated_Source\PSoC4/RTC_1.h ****     */
1319:Generated_Source\PSoC4/RTC_1.h ****     if(month < (uint32)RTC_1_MARCH)
 780              		.loc 1 1319 0
 781 000c BB68     		ldr	r3, [r7, #8]
 782 000e 022B     		cmp	r3, #2
 783 0010 05D8     		bhi	.L34
1320:Generated_Source\PSoC4/RTC_1.h ****     {
1321:Generated_Source\PSoC4/RTC_1.h ****         month = 12u + month;
 784              		.loc 1 1321 0
 785 0012 BB68     		ldr	r3, [r7, #8]
 786 0014 0C33     		adds	r3, r3, #12
 787 0016 BB60     		str	r3, [r7, #8]
ARM GAS  C:\Users\7709\AppData\Local\Temp\ccQ2UUYk.s 			page 38


1322:Generated_Source\PSoC4/RTC_1.h ****         year--;
 788              		.loc 1 1322 0
 789 0018 7B68     		ldr	r3, [r7, #4]
 790 001a 013B     		subs	r3, r3, #1
 791 001c 7B60     		str	r3, [r7, #4]
 792              	.L34:
1323:Generated_Source\PSoC4/RTC_1.h ****     }
1324:Generated_Source\PSoC4/RTC_1.h **** 
1325:Generated_Source\PSoC4/RTC_1.h ****     /* Calculates Day of Week using Zeller's congruence algorithms */
1326:Generated_Source\PSoC4/RTC_1.h ****     retVal = (day + (((month + 1u) * 26u) / 10u) + year + (year / 4u) + (6u * (year / 100u)) + (yea
 793              		.loc 1 1326 0
 794 001e BB68     		ldr	r3, [r7, #8]
 795 0020 0133     		adds	r3, r3, #1
 796 0022 1A22     		movs	r2, #26
 797 0024 5343     		muls	r3, r2
 798 0026 0A21     		movs	r1, #10
 799 0028 1800     		movs	r0, r3
 800 002a FFF7FEFF 		bl	__aeabi_uidiv
 801 002e 0300     		movs	r3, r0
 802 0030 1A00     		movs	r2, r3
 803 0032 FB68     		ldr	r3, [r7, #12]
 804 0034 D218     		adds	r2, r2, r3
 805 0036 7B68     		ldr	r3, [r7, #4]
 806 0038 D218     		adds	r2, r2, r3
 807 003a 7B68     		ldr	r3, [r7, #4]
 808 003c 9B08     		lsrs	r3, r3, #2
 809 003e D418     		adds	r4, r2, r3
 810 0040 7B68     		ldr	r3, [r7, #4]
 811 0042 6421     		movs	r1, #100
 812 0044 1800     		movs	r0, r3
 813 0046 FFF7FEFF 		bl	__aeabi_uidiv
 814 004a 0300     		movs	r3, r0
 815 004c 1A00     		movs	r2, r3
 816 004e 1300     		movs	r3, r2
 817 0050 5B00     		lsls	r3, r3, #1
 818 0052 9B18     		adds	r3, r3, r2
 819 0054 5B00     		lsls	r3, r3, #1
 820 0056 E418     		adds	r4, r4, r3
 821 0058 7A68     		ldr	r2, [r7, #4]
 822 005a C823     		movs	r3, #200
 823 005c 5900     		lsls	r1, r3, #1
 824 005e 1000     		movs	r0, r2
 825 0060 FFF7FEFF 		bl	__aeabi_uidiv
 826 0064 0300     		movs	r3, r0
 827 0066 E318     		adds	r3, r4, r3
 828 0068 0721     		movs	r1, #7
 829 006a 1800     		movs	r0, r3
 830 006c FFF7FEFF 		bl	__aeabi_uidivmod
 831 0070 0B00     		movs	r3, r1
 832 0072 7B61     		str	r3, [r7, #20]
1327:Generated_Source\PSoC4/RTC_1.h **** 
1328:Generated_Source\PSoC4/RTC_1.h ****     /* Makes correction for Saturday. Saturday number should be 7 instead of 0. */
1329:Generated_Source\PSoC4/RTC_1.h ****     if(0u == retVal)
 833              		.loc 1 1329 0
 834 0074 7B69     		ldr	r3, [r7, #20]
 835 0076 002B     		cmp	r3, #0
 836 0078 01D1     		bne	.L35
ARM GAS  C:\Users\7709\AppData\Local\Temp\ccQ2UUYk.s 			page 39


1330:Generated_Source\PSoC4/RTC_1.h ****     {
1331:Generated_Source\PSoC4/RTC_1.h ****         retVal = (uint32)RTC_1_SATURDAY;
 837              		.loc 1 1331 0
 838 007a 0723     		movs	r3, #7
 839 007c 7B61     		str	r3, [r7, #20]
 840              	.L35:
1332:Generated_Source\PSoC4/RTC_1.h ****     }
1333:Generated_Source\PSoC4/RTC_1.h **** 
1334:Generated_Source\PSoC4/RTC_1.h ****     return(retVal);
 841              		.loc 1 1334 0
 842 007e 7B69     		ldr	r3, [r7, #20]
1335:Generated_Source\PSoC4/RTC_1.h **** }
 843              		.loc 1 1335 0
 844 0080 1800     		movs	r0, r3
 845 0082 BD46     		mov	sp, r7
 846 0084 07B0     		add	sp, sp, #28
 847              		@ sp needed
 848 0086 90BD     		pop	{r4, r7, pc}
 849              		.cfi_endproc
 850              	.LFE27:
 851              		.size	RTC_1_GetDayOfWeek, .-RTC_1_GetDayOfWeek
 852              		.section	.text.RTC_1_DaysBeforeMonth,"ax",%progbits
 853              		.align	2
 854              		.code	16
 855              		.thumb_func
 856              		.type	RTC_1_DaysBeforeMonth, %function
 857              	RTC_1_DaysBeforeMonth:
 858              	.LFB28:
1336:Generated_Source\PSoC4/RTC_1.h **** 
1337:Generated_Source\PSoC4/RTC_1.h **** 
1338:Generated_Source\PSoC4/RTC_1.h **** /*******************************************************************************
1339:Generated_Source\PSoC4/RTC_1.h **** * Function Name: RTC_1_DaysBeforeMonth
1340:Generated_Source\PSoC4/RTC_1.h **** ****************************************************************************//**
1341:Generated_Source\PSoC4/RTC_1.h **** *
1342:Generated_Source\PSoC4/RTC_1.h **** * Calculates how many days elapsed from the beginning of the year to the
1343:Generated_Source\PSoC4/RTC_1.h **** * beginning of the current month.
1344:Generated_Source\PSoC4/RTC_1.h **** *
1345:Generated_Source\PSoC4/RTC_1.h **** * \param month
1346:Generated_Source\PSoC4/RTC_1.h **** * A month of a year, see \ref group_rtc_month
1347:Generated_Source\PSoC4/RTC_1.h **** *
1348:Generated_Source\PSoC4/RTC_1.h **** * \param year
1349:Generated_Source\PSoC4/RTC_1.h **** * A year value.
1350:Generated_Source\PSoC4/RTC_1.h **** *
1351:Generated_Source\PSoC4/RTC_1.h **** * \return
1352:Generated_Source\PSoC4/RTC_1.h **** * A number of days elapsed from the beginning of the year to the
1353:Generated_Source\PSoC4/RTC_1.h **** * beginning of the current month passed through the parameters.
1354:Generated_Source\PSoC4/RTC_1.h **** *
1355:Generated_Source\PSoC4/RTC_1.h **** *******************************************************************************/
1356:Generated_Source\PSoC4/RTC_1.h **** static CY_INLINE uint32 RTC_1_DaysBeforeMonth(uint32 month, uint32 year)
1357:Generated_Source\PSoC4/RTC_1.h **** {
 859              		.loc 1 1357 0
 860              		.cfi_startproc
 861              		@ args = 0, pretend = 0, frame = 16
 862              		@ frame_needed = 1, uses_anonymous_args = 0
 863 0000 80B5     		push	{r7, lr}
 864              		.cfi_def_cfa_offset 8
 865              		.cfi_offset 7, -8
ARM GAS  C:\Users\7709\AppData\Local\Temp\ccQ2UUYk.s 			page 40


 866              		.cfi_offset 14, -4
 867 0002 84B0     		sub	sp, sp, #16
 868              		.cfi_def_cfa_offset 24
 869 0004 00AF     		add	r7, sp, #0
 870              		.cfi_def_cfa_register 7
 871 0006 7860     		str	r0, [r7, #4]
 872 0008 3960     		str	r1, [r7]
1358:Generated_Source\PSoC4/RTC_1.h ****     uint32 retVal;
1359:Generated_Source\PSoC4/RTC_1.h **** 
1360:Generated_Source\PSoC4/RTC_1.h ****     retVal = RTC_1_daysBeforeMonthTbl[month - 1u];
 873              		.loc 1 1360 0
 874 000a 7B68     		ldr	r3, [r7, #4]
 875 000c 5A1E     		subs	r2, r3, #1
 876 000e 0A4B     		ldr	r3, .L40
 877 0010 5200     		lsls	r2, r2, #1
 878 0012 D35A     		ldrh	r3, [r2, r3]
 879 0014 FB60     		str	r3, [r7, #12]
1361:Generated_Source\PSoC4/RTC_1.h ****     if((0u != RTC_1_LeapYear(year)) && (month > (uint32)RTC_1_FEBRUARY))
 880              		.loc 1 1361 0
 881 0016 3B68     		ldr	r3, [r7]
 882 0018 1800     		movs	r0, r3
 883 001a FFF7FEFF 		bl	RTC_1_LeapYear
 884 001e 031E     		subs	r3, r0, #0
 885 0020 05D0     		beq	.L38
 886              		.loc 1 1361 0 is_stmt 0 discriminator 1
 887 0022 7B68     		ldr	r3, [r7, #4]
 888 0024 022B     		cmp	r3, #2
 889 0026 02D9     		bls	.L38
1362:Generated_Source\PSoC4/RTC_1.h ****     {
1363:Generated_Source\PSoC4/RTC_1.h ****         retVal++;
 890              		.loc 1 1363 0 is_stmt 1
 891 0028 FB68     		ldr	r3, [r7, #12]
 892 002a 0133     		adds	r3, r3, #1
 893 002c FB60     		str	r3, [r7, #12]
 894              	.L38:
1364:Generated_Source\PSoC4/RTC_1.h ****     }
1365:Generated_Source\PSoC4/RTC_1.h **** 
1366:Generated_Source\PSoC4/RTC_1.h ****     return(retVal);
 895              		.loc 1 1366 0
 896 002e FB68     		ldr	r3, [r7, #12]
1367:Generated_Source\PSoC4/RTC_1.h **** }
 897              		.loc 1 1367 0
 898 0030 1800     		movs	r0, r3
 899 0032 BD46     		mov	sp, r7
 900 0034 04B0     		add	sp, sp, #16
 901              		@ sp needed
 902 0036 80BD     		pop	{r7, pc}
 903              	.L41:
 904              		.align	2
 905              	.L40:
 906 0038 00000000 		.word	RTC_1_daysBeforeMonthTbl
 907              		.cfi_endproc
 908              	.LFE28:
 909              		.size	RTC_1_DaysBeforeMonth, .-RTC_1_DaysBeforeMonth
 910              		.section	.text.RTC_1_CySysRtcSetCallback,"ax",%progbits
 911              		.align	2
 912              		.code	16
ARM GAS  C:\Users\7709\AppData\Local\Temp\ccQ2UUYk.s 			page 41


 913              		.thumb_func
 914              		.type	RTC_1_CySysRtcSetCallback, %function
 915              	RTC_1_CySysRtcSetCallback:
 916              	.LFB29:
1368:Generated_Source\PSoC4/RTC_1.h **** 
1369:Generated_Source\PSoC4/RTC_1.h **** #if defined(CYDEV_RTC_SOURCE_WDT)
1370:Generated_Source\PSoC4/RTC_1.h ****     #if((0u != CYDEV_WDT_GENERATE_ISR) && (0u == RTC_1_INITIAL_UPDATE_MODE))
1371:Generated_Source\PSoC4/RTC_1.h **** 
1372:Generated_Source\PSoC4/RTC_1.h ****         /*******************************************************************************
1373:Generated_Source\PSoC4/RTC_1.h ****         * Function Name: RTC_1_CySysRtcSetCallback
1374:Generated_Source\PSoC4/RTC_1.h ****         ****************************************************************************//**
1375:Generated_Source\PSoC4/RTC_1.h ****         *
1376:Generated_Source\PSoC4/RTC_1.h ****         *  This is an internal function that registers a callback for the
1377:Generated_Source\PSoC4/RTC_1.h ****         *  RTC_1_Update() function by address "0".
1378:Generated_Source\PSoC4/RTC_1.h ****         *
1379:Generated_Source\PSoC4/RTC_1.h ****         * \param wdtNumber
1380:Generated_Source\PSoC4/RTC_1.h ****         * The number of the WDT or DeepSleep Timer to be used to pull the
1381:Generated_Source\PSoC4/RTC_1.h ****         * RTC_1_Update() function.
1382:Generated_Source\PSoC4/RTC_1.h ****         *
1383:Generated_Source\PSoC4/RTC_1.h ****         * The callback registered before by address "0" is replaced
1384:Generated_Source\PSoC4/RTC_1.h ****         * by the RTC_1_Update() function.
1385:Generated_Source\PSoC4/RTC_1.h ****         *
1386:Generated_Source\PSoC4/RTC_1.h ****         *******************************************************************************/
1387:Generated_Source\PSoC4/RTC_1.h ****         static CY_INLINE void RTC_1_CySysRtcSetCallback(uint32 wdtNumber)
1388:Generated_Source\PSoC4/RTC_1.h ****         {
 917              		.loc 1 1388 0
 918              		.cfi_startproc
 919              		@ args = 0, pretend = 0, frame = 8
 920              		@ frame_needed = 1, uses_anonymous_args = 0
 921 0000 80B5     		push	{r7, lr}
 922              		.cfi_def_cfa_offset 8
 923              		.cfi_offset 7, -8
 924              		.cfi_offset 14, -4
 925 0002 82B0     		sub	sp, sp, #8
 926              		.cfi_def_cfa_offset 16
 927 0004 00AF     		add	r7, sp, #0
 928              		.cfi_def_cfa_register 7
 929 0006 7860     		str	r0, [r7, #4]
1389:Generated_Source\PSoC4/RTC_1.h ****             #if((0u != CY_IP_WCO_WDT_EN) && (0u != CY_IP_SRSSLT))
1390:Generated_Source\PSoC4/RTC_1.h ****                 (void)CySysTimerSetInterruptCallback(wdtNumber, RTC_1_Update);
1391:Generated_Source\PSoC4/RTC_1.h ****             #else
1392:Generated_Source\PSoC4/RTC_1.h ****                 (void)CySysWdtSetIsrCallback(wdtNumber, RTC_1_Update);
 930              		.loc 1 1392 0
 931 0008 044A     		ldr	r2, .L43
 932 000a 7B68     		ldr	r3, [r7, #4]
 933 000c 1100     		movs	r1, r2
 934 000e 1800     		movs	r0, r3
 935 0010 FFF7FEFF 		bl	CySysWdtSetInterruptCallback
1393:Generated_Source\PSoC4/RTC_1.h ****             #endif /* ((0u != CY_IP_WCO_WDT_EN) && (0u != CY_IP_SRSSLT)) */
1394:Generated_Source\PSoC4/RTC_1.h ****         }
 936              		.loc 1 1394 0
 937 0014 C046     		nop
 938 0016 BD46     		mov	sp, r7
 939 0018 02B0     		add	sp, sp, #8
 940              		@ sp needed
 941 001a 80BD     		pop	{r7, pc}
 942              	.L44:
ARM GAS  C:\Users\7709\AppData\Local\Temp\ccQ2UUYk.s 			page 42


 943              		.align	2
 944              	.L43:
 945 001c 00000000 		.word	RTC_1_Update
 946              		.cfi_endproc
 947              	.LFE29:
 948              		.size	RTC_1_CySysRtcSetCallback, .-RTC_1_CySysRtcSetCallback
 949              		.section	.text.RTC_1_CySysRtcResetCallback,"ax",%progbits
 950              		.align	2
 951              		.code	16
 952              		.thumb_func
 953              		.type	RTC_1_CySysRtcResetCallback, %function
 954              	RTC_1_CySysRtcResetCallback:
 955              	.LFB30:
1395:Generated_Source\PSoC4/RTC_1.h **** 
1396:Generated_Source\PSoC4/RTC_1.h **** 
1397:Generated_Source\PSoC4/RTC_1.h ****         /*******************************************************************************
1398:Generated_Source\PSoC4/RTC_1.h ****         * Function Name: RTC_1_CySysRtcResetCallback
1399:Generated_Source\PSoC4/RTC_1.h ****         ****************************************************************************//**
1400:Generated_Source\PSoC4/RTC_1.h ****         *
1401:Generated_Source\PSoC4/RTC_1.h ****         *  This is an internal function that clears a callback by address "0".
1402:Generated_Source\PSoC4/RTC_1.h ****         *
1403:Generated_Source\PSoC4/RTC_1.h ****         * \param wdtNumber
1404:Generated_Source\PSoC4/RTC_1.h ****         * The number of the WDT or DeeSleep Timer to be cleared callback for.
1405:Generated_Source\PSoC4/RTC_1.h ****         *
1406:Generated_Source\PSoC4/RTC_1.h ****         * The callback registered before by address "0" is replaced
1407:Generated_Source\PSoC4/RTC_1.h ****         * by the NULL pointer.
1408:Generated_Source\PSoC4/RTC_1.h ****         *
1409:Generated_Source\PSoC4/RTC_1.h ****         *******************************************************************************/
1410:Generated_Source\PSoC4/RTC_1.h ****         static CY_INLINE void RTC_1_CySysRtcResetCallback(uint32 wdtNumber)
1411:Generated_Source\PSoC4/RTC_1.h ****         {
 956              		.loc 1 1411 0
 957              		.cfi_startproc
 958              		@ args = 0, pretend = 0, frame = 8
 959              		@ frame_needed = 1, uses_anonymous_args = 0
 960 0000 80B5     		push	{r7, lr}
 961              		.cfi_def_cfa_offset 8
 962              		.cfi_offset 7, -8
 963              		.cfi_offset 14, -4
 964 0002 82B0     		sub	sp, sp, #8
 965              		.cfi_def_cfa_offset 16
 966 0004 00AF     		add	r7, sp, #0
 967              		.cfi_def_cfa_register 7
 968 0006 7860     		str	r0, [r7, #4]
1412:Generated_Source\PSoC4/RTC_1.h ****             #if((0u != CY_IP_WCO_WDT_EN) && (0u != CY_IP_SRSSLT))
1413:Generated_Source\PSoC4/RTC_1.h ****                 (void)CySysTimerSetInterruptCallback(wdtNumber, (void *)0);
1414:Generated_Source\PSoC4/RTC_1.h ****             #else
1415:Generated_Source\PSoC4/RTC_1.h ****                 (void)CySysWdtSetIsrCallback(wdtNumber, (void *)0);
 969              		.loc 1 1415 0
 970 0008 7B68     		ldr	r3, [r7, #4]
 971 000a 0021     		movs	r1, #0
 972 000c 1800     		movs	r0, r3
 973 000e FFF7FEFF 		bl	CySysWdtSetInterruptCallback
1416:Generated_Source\PSoC4/RTC_1.h ****             #endif /* ((0u != CY_IP_WCO_WDT_EN) && (0u != CY_IP_SRSSLT)) */
1417:Generated_Source\PSoC4/RTC_1.h ****         }
 974              		.loc 1 1417 0
 975 0012 C046     		nop
 976 0014 BD46     		mov	sp, r7
ARM GAS  C:\Users\7709\AppData\Local\Temp\ccQ2UUYk.s 			page 43


 977 0016 02B0     		add	sp, sp, #8
 978              		@ sp needed
 979 0018 80BD     		pop	{r7, pc}
 980              		.cfi_endproc
 981              	.LFE30:
 982              		.size	RTC_1_CySysRtcResetCallback, .-RTC_1_CySysRtcResetCallback
 983              		.comm	RTC_1_initVar,1,1
 984              		.comm	RTC_1_unixTime,8,8
 985              		.comm	RTC_1_currentTimeDate,16,4
 986 001a C046     		.bss
 987              		.align	2
 988              	RTC_1_updateTimePeriod:
 989 0000 00000000 		.space	4
 990              		.align	2
 991              	RTC_1_tickRefOneSec:
 992 0004 00000000 		.space	4
 993              		.comm	RTC_1_dstStatus,1,1
 994              		.align	2
 995              	RTC_1_dstTimeOffset:
 996 0008 00000000 		.space	4
 997              		.comm	RTC_1_alarmCurStatus,4,4
 998              		.global	RTC_1_daysBeforeMonthTbl
 999              		.section	.rodata
 1000              		.align	2
 1001              		.type	RTC_1_daysBeforeMonthTbl, %object
 1002              		.size	RTC_1_daysBeforeMonthTbl, 24
 1003              	RTC_1_daysBeforeMonthTbl:
 1004 0000 0000     		.short	0
 1005 0002 1F00     		.short	31
 1006 0004 3B00     		.short	59
 1007 0006 5A00     		.short	90
 1008 0008 7800     		.short	120
 1009 000a 9700     		.short	151
 1010 000c B500     		.short	181
 1011 000e D400     		.short	212
 1012 0010 F300     		.short	243
 1013 0012 1101     		.short	273
 1014 0014 3001     		.short	304
 1015 0016 4E01     		.short	334
 1016              		.global	RTC_1_daysInMonthTbl
 1017              		.align	2
 1018              		.type	RTC_1_daysInMonthTbl, %object
 1019              		.size	RTC_1_daysInMonthTbl, 12
 1020              	RTC_1_daysInMonthTbl:
 1021 0018 1F       		.byte	31
 1022 0019 1C       		.byte	28
 1023 001a 1F       		.byte	31
 1024 001b 1E       		.byte	30
 1025 001c 1F       		.byte	31
 1026 001d 1E       		.byte	30
 1027 001e 1F       		.byte	31
 1028 001f 1F       		.byte	31
 1029 0020 1E       		.byte	30
 1030 0021 1F       		.byte	31
 1031 0022 1E       		.byte	30
 1032 0023 1F       		.byte	31
 1033              		.section	.text.RTC_1_Start,"ax",%progbits
ARM GAS  C:\Users\7709\AppData\Local\Temp\ccQ2UUYk.s 			page 44


 1034              		.align	2
 1035              		.global	RTC_1_Start
 1036              		.code	16
 1037              		.thumb_func
 1038              		.type	RTC_1_Start, %function
 1039              	RTC_1_Start:
 1040              	.LFB31:
 1041              		.file 2 "Generated_Source\\PSoC4\\RTC_1.c"
   1:Generated_Source\PSoC4/RTC_1.c **** /***************************************************************************//**
   2:Generated_Source\PSoC4/RTC_1.c **** * \file Name: RTC_1.c
   3:Generated_Source\PSoC4/RTC_1.c **** * \version 1.20
   4:Generated_Source\PSoC4/RTC_1.c **** *
   5:Generated_Source\PSoC4/RTC_1.c **** *  This file provides the source code to the API for the RTC_P4 Component.
   6:Generated_Source\PSoC4/RTC_1.c **** *
   7:Generated_Source\PSoC4/RTC_1.c **** ********************************************************************************
   8:Generated_Source\PSoC4/RTC_1.c **** * \copyright
   9:Generated_Source\PSoC4/RTC_1.c **** * Copyright 2015-2017, Cypress Semiconductor Corporation. All rights reserved.
  10:Generated_Source\PSoC4/RTC_1.c **** * You may use this file only in accordance with the license, terms, conditions,
  11:Generated_Source\PSoC4/RTC_1.c **** * disclaimers, and limitations in the end user license agreement accompanying
  12:Generated_Source\PSoC4/RTC_1.c **** * the software package with which this file was provided.
  13:Generated_Source\PSoC4/RTC_1.c **** *******************************************************************************/
  14:Generated_Source\PSoC4/RTC_1.c **** 
  15:Generated_Source\PSoC4/RTC_1.c **** #include "RTC_1.h"
  16:Generated_Source\PSoC4/RTC_1.c **** 
  17:Generated_Source\PSoC4/RTC_1.c **** uint8  RTC_1_initVar;
  18:Generated_Source\PSoC4/RTC_1.c **** 
  19:Generated_Source\PSoC4/RTC_1.c **** volatile uint64 RTC_1_unixTime;
  20:Generated_Source\PSoC4/RTC_1.c **** RTC_1_DATE_TIME RTC_1_currentTimeDate;
  21:Generated_Source\PSoC4/RTC_1.c **** 
  22:Generated_Source\PSoC4/RTC_1.c **** static uint32 RTC_1_updateTimePeriod;
  23:Generated_Source\PSoC4/RTC_1.c **** static uint32 RTC_1_tickRefOneSec;
  24:Generated_Source\PSoC4/RTC_1.c **** 
  25:Generated_Source\PSoC4/RTC_1.c **** uint8  RTC_1_dstStatus;
  26:Generated_Source\PSoC4/RTC_1.c **** static uint32 RTC_1_dstTimeOffset;
  27:Generated_Source\PSoC4/RTC_1.c **** #if(0u != RTC_1_INITIAL_DST_STATUS)
  28:Generated_Source\PSoC4/RTC_1.c ****     static volatile uint64 RTC_1_unixTimeDstStart;
  29:Generated_Source\PSoC4/RTC_1.c ****     static volatile uint64 RTC_1_unixTimeDstStop;
  30:Generated_Source\PSoC4/RTC_1.c ****     RTC_1_DST_TIME RTC_1_dstStartTime;
  31:Generated_Source\PSoC4/RTC_1.c ****     RTC_1_DST_TIME RTC_1_dstStopTime;
  32:Generated_Source\PSoC4/RTC_1.c **** #endif /* (0u != RTC_1_INITIAL_DST_STATUS) */
  33:Generated_Source\PSoC4/RTC_1.c **** 
  34:Generated_Source\PSoC4/RTC_1.c **** uint32 RTC_1_alarmCurStatus;
  35:Generated_Source\PSoC4/RTC_1.c **** #if(0u != RTC_1_INITIAL_ALARM_STATUS)
  36:Generated_Source\PSoC4/RTC_1.c ****     uint32  RTC_1_alarmCfgMask = 0xFFu;
  37:Generated_Source\PSoC4/RTC_1.c ****     static volatile uint64 RTC_1_unixTimeAlarm;
  38:Generated_Source\PSoC4/RTC_1.c ****     RTC_1_DATE_TIME RTC_1_alarmCfgTimeDate;
  39:Generated_Source\PSoC4/RTC_1.c ****     void (*RTC_1_alarmCallbackPtr)(void) = (void *)0;
  40:Generated_Source\PSoC4/RTC_1.c **** #endif /* (0u != RTC_1_INITIAL_ALARM_STATUS) */
  41:Generated_Source\PSoC4/RTC_1.c **** 
  42:Generated_Source\PSoC4/RTC_1.c **** const uint16 RTC_1_daysBeforeMonthTbl[RTC_1_MONTHS_PER_YEAR] = {
  43:Generated_Source\PSoC4/RTC_1.c ****                                                  (0u), /* JANUARY */
  44:Generated_Source\PSoC4/RTC_1.c ****                                                  (0u + 31u), /* FEBRUARY */
  45:Generated_Source\PSoC4/RTC_1.c ****                                                  (0u + 31u + 28u), /* MARCH */
  46:Generated_Source\PSoC4/RTC_1.c ****                                                  (0u + 31u + 28u + 31u), /* APRIL */
  47:Generated_Source\PSoC4/RTC_1.c ****                                                  (0u + 31u + 28u + 31u + 30u), /* MAY */
  48:Generated_Source\PSoC4/RTC_1.c ****                                                  (0u + 31u + 28u + 31u + 30u + 31u), /* JUNE */
  49:Generated_Source\PSoC4/RTC_1.c ****                                                  (0u + 31u + 28u + 31u + 30u + 31u + 30u), /* JULY 
ARM GAS  C:\Users\7709\AppData\Local\Temp\ccQ2UUYk.s 			page 45


  50:Generated_Source\PSoC4/RTC_1.c ****                                                  (0u + 31u + 28u + 31u + 30u + 31u + 30u + 31u), /*
  51:Generated_Source\PSoC4/RTC_1.c ****                                                  (0u + 31u + 28u + 31u + 30u + 31u + 30u + 31u + 31
  52:Generated_Source\PSoC4/RTC_1.c ****                                                  (0u + 31u + 28u + 31u + 30u + 31u + 30u + 31u + 31
  53:Generated_Source\PSoC4/RTC_1.c ****                                                  (0u + 31u + 28u + 31u + 30u + 31u + 30u + 31u + 31
  54:Generated_Source\PSoC4/RTC_1.c ****                                                  (0u + 31u + 28u + 31u + 30u + 31u + 30u + 31u + 31
  55:Generated_Source\PSoC4/RTC_1.c **** 
  56:Generated_Source\PSoC4/RTC_1.c **** const uint8 RTC_1_daysInMonthTbl[RTC_1_MONTHS_PER_YEAR] = {RTC_1_DAYS_IN_JANUARY,
  57:Generated_Source\PSoC4/RTC_1.c ****                                                                                  RTC_1_DAYS_IN_FEBR
  58:Generated_Source\PSoC4/RTC_1.c ****                                                                                  RTC_1_DAYS_IN_MARC
  59:Generated_Source\PSoC4/RTC_1.c ****                                                                                  RTC_1_DAYS_IN_APRI
  60:Generated_Source\PSoC4/RTC_1.c ****                                                                                  RTC_1_DAYS_IN_MAY,
  61:Generated_Source\PSoC4/RTC_1.c ****                                                                                  RTC_1_DAYS_IN_JUNE
  62:Generated_Source\PSoC4/RTC_1.c ****                                                                                  RTC_1_DAYS_IN_JULY
  63:Generated_Source\PSoC4/RTC_1.c ****                                                                                  RTC_1_DAYS_IN_AUGU
  64:Generated_Source\PSoC4/RTC_1.c ****                                                                                  RTC_1_DAYS_IN_SEPT
  65:Generated_Source\PSoC4/RTC_1.c ****                                                                                  RTC_1_DAYS_IN_OCTO
  66:Generated_Source\PSoC4/RTC_1.c ****                                                                                  RTC_1_DAYS_IN_NOVE
  67:Generated_Source\PSoC4/RTC_1.c ****                                                                                  RTC_1_DAYS_IN_DECE
  68:Generated_Source\PSoC4/RTC_1.c **** 
  69:Generated_Source\PSoC4/RTC_1.c **** 
  70:Generated_Source\PSoC4/RTC_1.c **** /*******************************************************************************
  71:Generated_Source\PSoC4/RTC_1.c **** * Function Name: RTC_1_Start
  72:Generated_Source\PSoC4/RTC_1.c **** ****************************************************************************//**
  73:Generated_Source\PSoC4/RTC_1.c **** *
  74:Generated_Source\PSoC4/RTC_1.c **** * Performs all the required calculations for the time and date registers and
  75:Generated_Source\PSoC4/RTC_1.c **** * initializes the component along with the date and time selected in the
  76:Generated_Source\PSoC4/RTC_1.c **** * customizer. 
  77:Generated_Source\PSoC4/RTC_1.c **** *
  78:Generated_Source\PSoC4/RTC_1.c **** * If "Implement RTC update manually" is disabled in the customizer
  79:Generated_Source\PSoC4/RTC_1.c **** * and if WDT or DeepSleep timer is selected as a source in the clocks 
  80:Generated_Source\PSoC4/RTC_1.c **** * configuration window (low frequency clocks tab), attaches RTC_Update API to a
  81:Generated_Source\PSoC4/RTC_1.c **** * corresponding ISR callback of WDT or DeepSleep Timer.
  82:Generated_Source\PSoC4/RTC_1.c **** *
  83:Generated_Source\PSoC4/RTC_1.c **** * \note "Implement RTC update manually" checkbox is available for PSoC 4200L / 
  84:Generated_Source\PSoC4/RTC_1.c **** * PSoC 4100M / PSoC 4200M / PSoC 4100 BLE / PSoC 4200 BLE / PSoC 4000S / PSoC 
  85:Generated_Source\PSoC4/RTC_1.c **** * 4100S and Analog Coprocessor.
  86:Generated_Source\PSoC4/RTC_1.c **** *
  87:Generated_Source\PSoC4/RTC_1.c **** *******************************************************************************/
  88:Generated_Source\PSoC4/RTC_1.c **** void RTC_1_Start(void)
  89:Generated_Source\PSoC4/RTC_1.c **** {
 1042              		.loc 2 89 0
 1043              		.cfi_startproc
 1044              		@ args = 0, pretend = 0, frame = 0
 1045              		@ frame_needed = 1, uses_anonymous_args = 0
 1046 0000 80B5     		push	{r7, lr}
 1047              		.cfi_def_cfa_offset 8
 1048              		.cfi_offset 7, -8
 1049              		.cfi_offset 14, -4
 1050 0002 00AF     		add	r7, sp, #0
 1051              		.cfi_def_cfa_register 7
  90:Generated_Source\PSoC4/RTC_1.c ****     if(0u == RTC_1_initVar)
 1052              		.loc 2 90 0
 1053 0004 054B     		ldr	r3, .L48
 1054 0006 1B78     		ldrb	r3, [r3]
 1055 0008 002B     		cmp	r3, #0
 1056 000a 01D1     		bne	.L47
  91:Generated_Source\PSoC4/RTC_1.c ****     {
ARM GAS  C:\Users\7709\AppData\Local\Temp\ccQ2UUYk.s 			page 46


  92:Generated_Source\PSoC4/RTC_1.c ****         RTC_1_Init();
 1057              		.loc 2 92 0
 1058 000c FFF7FEFF 		bl	RTC_1_Init
 1059              	.L47:
  93:Generated_Source\PSoC4/RTC_1.c ****     }
  94:Generated_Source\PSoC4/RTC_1.c **** 
  95:Generated_Source\PSoC4/RTC_1.c ****     #if defined(CYDEV_RTC_SOURCE_WDT)
  96:Generated_Source\PSoC4/RTC_1.c ****         #if((0u != CYDEV_WDT_GENERATE_ISR) && (0u == RTC_1_INITIAL_UPDATE_MODE))
  97:Generated_Source\PSoC4/RTC_1.c ****             RTC_1_CySysRtcSetCallback(CYDEV_RTC_SOURCE_WDT);
 1060              		.loc 2 97 0
 1061 0010 0020     		movs	r0, #0
 1062 0012 FFF7FEFF 		bl	RTC_1_CySysRtcSetCallback
  98:Generated_Source\PSoC4/RTC_1.c ****         #endif /* ((0u != CYDEV_WDT_GENERATE_ISR) && (0u == RTC_1_INITIAL_UPDATE_MODE)) */
  99:Generated_Source\PSoC4/RTC_1.c ****     #endif /* (CYDEV_RTC_SOURCE_WDT) */
 100:Generated_Source\PSoC4/RTC_1.c **** }
 1063              		.loc 2 100 0
 1064 0016 C046     		nop
 1065 0018 BD46     		mov	sp, r7
 1066              		@ sp needed
 1067 001a 80BD     		pop	{r7, pc}
 1068              	.L49:
 1069              		.align	2
 1070              	.L48:
 1071 001c 00000000 		.word	RTC_1_initVar
 1072              		.cfi_endproc
 1073              	.LFE31:
 1074              		.size	RTC_1_Start, .-RTC_1_Start
 1075              		.section	.text.RTC_1_Stop,"ax",%progbits
 1076              		.align	2
 1077              		.global	RTC_1_Stop
 1078              		.code	16
 1079              		.thumb_func
 1080              		.type	RTC_1_Stop, %function
 1081              	RTC_1_Stop:
 1082              	.LFB32:
 101:Generated_Source\PSoC4/RTC_1.c **** 
 102:Generated_Source\PSoC4/RTC_1.c **** 
 103:Generated_Source\PSoC4/RTC_1.c **** /*******************************************************************************
 104:Generated_Source\PSoC4/RTC_1.c **** * Function Name: RTC_1_Stop
 105:Generated_Source\PSoC4/RTC_1.c **** ****************************************************************************//**
 106:Generated_Source\PSoC4/RTC_1.c **** *
 107:Generated_Source\PSoC4/RTC_1.c **** * Stops the time and date updates.
 108:Generated_Source\PSoC4/RTC_1.c **** *
 109:Generated_Source\PSoC4/RTC_1.c **** *******************************************************************************/
 110:Generated_Source\PSoC4/RTC_1.c **** void RTC_1_Stop(void)
 111:Generated_Source\PSoC4/RTC_1.c **** {
 1083              		.loc 2 111 0
 1084              		.cfi_startproc
 1085              		@ args = 0, pretend = 0, frame = 0
 1086              		@ frame_needed = 1, uses_anonymous_args = 0
 1087 0000 80B5     		push	{r7, lr}
 1088              		.cfi_def_cfa_offset 8
 1089              		.cfi_offset 7, -8
 1090              		.cfi_offset 14, -4
 1091 0002 00AF     		add	r7, sp, #0
 1092              		.cfi_def_cfa_register 7
 112:Generated_Source\PSoC4/RTC_1.c ****     #if defined(CYDEV_RTC_SOURCE_WDT)
ARM GAS  C:\Users\7709\AppData\Local\Temp\ccQ2UUYk.s 			page 47


 113:Generated_Source\PSoC4/RTC_1.c ****         #if((0u != CYDEV_WDT_GENERATE_ISR) && (0u == RTC_1_INITIAL_UPDATE_MODE))
 114:Generated_Source\PSoC4/RTC_1.c ****             RTC_1_CySysRtcResetCallback(CYDEV_RTC_SOURCE_WDT);
 1093              		.loc 2 114 0
 1094 0004 0020     		movs	r0, #0
 1095 0006 FFF7FEFF 		bl	RTC_1_CySysRtcResetCallback
 115:Generated_Source\PSoC4/RTC_1.c ****         #endif /* ((0u != CYDEV_WDT_GENERATE_ISR) && (0u == RTC_1_INITIAL_UPDATE_MODE)) */
 116:Generated_Source\PSoC4/RTC_1.c ****     #endif /* (CYDEV_RTC_SOURCE_WDT) */
 117:Generated_Source\PSoC4/RTC_1.c **** }
 1096              		.loc 2 117 0
 1097 000a C046     		nop
 1098 000c BD46     		mov	sp, r7
 1099              		@ sp needed
 1100 000e 80BD     		pop	{r7, pc}
 1101              		.cfi_endproc
 1102              	.LFE32:
 1103              		.size	RTC_1_Stop, .-RTC_1_Stop
 1104              		.section	.text.RTC_1_Init,"ax",%progbits
 1105              		.align	2
 1106              		.global	RTC_1_Init
 1107              		.code	16
 1108              		.thumb_func
 1109              		.type	RTC_1_Init, %function
 1110              	RTC_1_Init:
 1111              	.LFB33:
 118:Generated_Source\PSoC4/RTC_1.c **** 
 119:Generated_Source\PSoC4/RTC_1.c **** 
 120:Generated_Source\PSoC4/RTC_1.c **** /*******************************************************************************
 121:Generated_Source\PSoC4/RTC_1.c **** * Function Name: RTC_1_Init
 122:Generated_Source\PSoC4/RTC_1.c **** ****************************************************************************//**
 123:Generated_Source\PSoC4/RTC_1.c **** *
 124:Generated_Source\PSoC4/RTC_1.c **** * Initializes or restores the component according to the customizer Configure
 125:Generated_Source\PSoC4/RTC_1.c **** * dialogue settings.
 126:Generated_Source\PSoC4/RTC_1.c **** *
 127:Generated_Source\PSoC4/RTC_1.c **** * It is not necessary to call RTC_Init() because RTC_Start() API calls this 
 128:Generated_Source\PSoC4/RTC_1.c **** * function and is the preferred method to begin component operation.
 129:Generated_Source\PSoC4/RTC_1.c **** *
 130:Generated_Source\PSoC4/RTC_1.c **** * All registers are set to values according to the customizer Configure
 131:Generated_Source\PSoC4/RTC_1.c **** * dialogue. The default date value, if not set by the user before this function
 132:Generated_Source\PSoC4/RTC_1.c **** * call, is 12:00:00 AM January 1, 2000.
 133:Generated_Source\PSoC4/RTC_1.c **** *
 134:Generated_Source\PSoC4/RTC_1.c **** *******************************************************************************/
 135:Generated_Source\PSoC4/RTC_1.c **** void RTC_1_Init(void)
 136:Generated_Source\PSoC4/RTC_1.c **** {
 1112              		.loc 2 136 0
 1113              		.cfi_startproc
 1114              		@ args = 0, pretend = 0, frame = 8
 1115              		@ frame_needed = 1, uses_anonymous_args = 0
 1116 0000 80B5     		push	{r7, lr}
 1117              		.cfi_def_cfa_offset 8
 1118              		.cfi_offset 7, -8
 1119              		.cfi_offset 14, -4
 1120 0002 84B0     		sub	sp, sp, #16
 1121              		.cfi_def_cfa_offset 24
 1122 0004 02AF     		add	r7, sp, #8
 1123              		.cfi_def_cfa 7, 16
 137:Generated_Source\PSoC4/RTC_1.c ****     uint32 tmpDate;
 138:Generated_Source\PSoC4/RTC_1.c ****     uint32 tmpTime;
ARM GAS  C:\Users\7709\AppData\Local\Temp\ccQ2UUYk.s 			page 48


 139:Generated_Source\PSoC4/RTC_1.c **** 
 140:Generated_Source\PSoC4/RTC_1.c ****     #if(0u != RTC_1_INITIAL_DST_STATUS)
 141:Generated_Source\PSoC4/RTC_1.c ****         RTC_1_DST_TIME dstTimeTmp;
 142:Generated_Source\PSoC4/RTC_1.c ****     #endif /* (0u != RTC_1_INITIAL_DST_STATUS) */
 143:Generated_Source\PSoC4/RTC_1.c **** 
 144:Generated_Source\PSoC4/RTC_1.c ****     RTC_1_initVar = 1u;
 1124              		.loc 2 144 0
 1125 0006 154B     		ldr	r3, .L52
 1126 0008 0122     		movs	r2, #1
 1127 000a 1A70     		strb	r2, [r3]
 145:Generated_Source\PSoC4/RTC_1.c ****     RTC_1_dstTimeOffset = 0uL;
 1128              		.loc 2 145 0
 1129 000c 144B     		ldr	r3, .L52+4
 1130 000e 0022     		movs	r2, #0
 1131 0010 1A60     		str	r2, [r3]
 146:Generated_Source\PSoC4/RTC_1.c ****     RTC_1_currentTimeDate.status = 0uL;
 1132              		.loc 2 146 0
 1133 0012 144B     		ldr	r3, .L52+8
 1134 0014 0022     		movs	r2, #0
 1135 0016 DA60     		str	r2, [r3, #12]
 147:Generated_Source\PSoC4/RTC_1.c **** 
 148:Generated_Source\PSoC4/RTC_1.c ****     RTC_1_dstStatus      = RTC_1_INITIAL_DST_STATUS;
 1136              		.loc 2 148 0
 1137 0018 134B     		ldr	r3, .L52+12
 1138 001a 0022     		movs	r2, #0
 1139 001c 1A70     		strb	r2, [r3]
 149:Generated_Source\PSoC4/RTC_1.c ****     RTC_1_alarmCurStatus = RTC_1_INITIAL_ALARM_STATUS;
 1140              		.loc 2 149 0
 1141 001e 134B     		ldr	r3, .L52+16
 1142 0020 0022     		movs	r2, #0
 1143 0022 1A60     		str	r2, [r3]
 150:Generated_Source\PSoC4/RTC_1.c **** 
 151:Generated_Source\PSoC4/RTC_1.c ****     tmpDate = RTC_1_ConstructDate(RTC_1_INITIAL_MONTH,
 1144              		.loc 2 151 0
 1145 0024 124B     		ldr	r3, .L52+20
 1146 0026 1A00     		movs	r2, r3
 1147 0028 1C21     		movs	r1, #28
 1148 002a 0B20     		movs	r0, #11
 1149 002c FFF7FEFF 		bl	RTC_1_ConstructDate
 1150 0030 0300     		movs	r3, r0
 1151 0032 7B60     		str	r3, [r7, #4]
 152:Generated_Source\PSoC4/RTC_1.c ****                                              RTC_1_INITIAL_DAY,
 153:Generated_Source\PSoC4/RTC_1.c ****                                              RTC_1_INITIAL_YEAR);
 154:Generated_Source\PSoC4/RTC_1.c **** 
 155:Generated_Source\PSoC4/RTC_1.c ****     tmpTime = RTC_1_ConstructTime(RTC_1_INITIAL_TIME_FORMAT,
 1152              		.loc 2 155 0
 1153 0034 0A23     		movs	r3, #10
 1154 0036 0093     		str	r3, [sp]
 1155 0038 2623     		movs	r3, #38
 1156 003a 0922     		movs	r2, #9
 1157 003c 0021     		movs	r1, #0
 1158 003e 0120     		movs	r0, #1
 1159 0040 FFF7FEFF 		bl	RTC_1_ConstructTime
 1160 0044 0300     		movs	r3, r0
 1161 0046 3B60     		str	r3, [r7]
 156:Generated_Source\PSoC4/RTC_1.c ****                                              0u,
 157:Generated_Source\PSoC4/RTC_1.c ****                                             RTC_1_INITIAL_HOUR,
ARM GAS  C:\Users\7709\AppData\Local\Temp\ccQ2UUYk.s 			page 49


 158:Generated_Source\PSoC4/RTC_1.c ****                                             RTC_1_INITIAL_MINUTE,
 159:Generated_Source\PSoC4/RTC_1.c ****                                             RTC_1_INITIAL_SECOND);
 160:Generated_Source\PSoC4/RTC_1.c **** 
 161:Generated_Source\PSoC4/RTC_1.c ****     #if(0u != RTC_1_INITIAL_DST_STATUS)
 162:Generated_Source\PSoC4/RTC_1.c ****         RTC_1_dstStatus = 0u;
 163:Generated_Source\PSoC4/RTC_1.c ****         RTC_1_currentTimeDate.status = (1uL << RTC_1_STATUS_DST_OFFSET);
 164:Generated_Source\PSoC4/RTC_1.c **** 
 165:Generated_Source\PSoC4/RTC_1.c ****         dstTimeTmp.timeFormat    = RTC_1_INITIAL_DST_DATE_TYPE;
 166:Generated_Source\PSoC4/RTC_1.c ****         dstTimeTmp.hour          = RTC_1_INITIAL_DST_START_HRS;
 167:Generated_Source\PSoC4/RTC_1.c ****         dstTimeTmp.dayOfWeek     = RTC_1_INITIAL_DST_START_DOW;
 168:Generated_Source\PSoC4/RTC_1.c ****         dstTimeTmp.weekOfMonth   = RTC_1_INITIAL_DST_START_WOM;
 169:Generated_Source\PSoC4/RTC_1.c ****         dstTimeTmp.dayOfMonth    = RTC_1_INITIAL_DST_START_DOM;
 170:Generated_Source\PSoC4/RTC_1.c ****         dstTimeTmp.month         = RTC_1_INITIAL_DST_START_MONTH;
 171:Generated_Source\PSoC4/RTC_1.c ****         RTC_1_SetDSTStartTime(&dstTimeTmp, 
 172:Generated_Source\PSoC4/RTC_1.c ****                                         (RTC_1_DST_DATETYPE_ENUM)RTC_1_INITIAL_DST_DATE_TYPE);
 173:Generated_Source\PSoC4/RTC_1.c **** 
 174:Generated_Source\PSoC4/RTC_1.c ****         dstTimeTmp.timeFormat    = RTC_1_INITIAL_DST_DATE_TYPE;
 175:Generated_Source\PSoC4/RTC_1.c ****         dstTimeTmp.hour          = RTC_1_INITIAL_DST_STOP_HRS;
 176:Generated_Source\PSoC4/RTC_1.c ****         dstTimeTmp.dayOfWeek     = RTC_1_INITIAL_DST_STOP_DOW;
 177:Generated_Source\PSoC4/RTC_1.c ****         dstTimeTmp.weekOfMonth   = RTC_1_INITIAL_DST_STOP_WOM;
 178:Generated_Source\PSoC4/RTC_1.c ****         dstTimeTmp.dayOfMonth    = RTC_1_INITIAL_DST_STOP_DOM;
 179:Generated_Source\PSoC4/RTC_1.c ****         dstTimeTmp.month         = RTC_1_INITIAL_DST_STOP_MONTH;
 180:Generated_Source\PSoC4/RTC_1.c ****         RTC_1_SetDSTStopTime(&dstTimeTmp, 
 181:Generated_Source\PSoC4/RTC_1.c ****                                        (RTC_1_DST_DATETYPE_ENUM)RTC_1_INITIAL_DST_DATE_TYPE);
 182:Generated_Source\PSoC4/RTC_1.c **** 
 183:Generated_Source\PSoC4/RTC_1.c ****         RTC_1_unixTimeDstStart = RTC_1_GetDstUnixTime(&RTC_1_dstStartTime);
 184:Generated_Source\PSoC4/RTC_1.c ****         RTC_1_unixTimeDstStop  = RTC_1_GetDstUnixTime(&RTC_1_dstStopTime);
 185:Generated_Source\PSoC4/RTC_1.c **** 
 186:Generated_Source\PSoC4/RTC_1.c ****         if((RTC_1_unixTime >= RTC_1_unixTimeDstStart) &&
 187:Generated_Source\PSoC4/RTC_1.c ****            (RTC_1_unixTime <= RTC_1_unixTimeDstStop))
 188:Generated_Source\PSoC4/RTC_1.c ****         {
 189:Generated_Source\PSoC4/RTC_1.c ****             RTC_1_dstStatus = 1u;
 190:Generated_Source\PSoC4/RTC_1.c ****             RTC_1_dstTimeOffset = RTC_1_SECONDS_PER_HOUR;
 191:Generated_Source\PSoC4/RTC_1.c ****         }
 192:Generated_Source\PSoC4/RTC_1.c ****     #endif /* (0u != RTC_1_INITIAL_DST_STATUS) */
 193:Generated_Source\PSoC4/RTC_1.c **** 
 194:Generated_Source\PSoC4/RTC_1.c ****     RTC_1_SetDateAndTime(tmpTime, tmpDate);
 1162              		.loc 2 194 0
 1163 0048 7A68     		ldr	r2, [r7, #4]
 1164 004a 3B68     		ldr	r3, [r7]
 1165 004c 1100     		movs	r1, r2
 1166 004e 1800     		movs	r0, r3
 1167 0050 FFF7FEFF 		bl	RTC_1_SetDateAndTime
 195:Generated_Source\PSoC4/RTC_1.c **** }
 1168              		.loc 2 195 0
 1169 0054 C046     		nop
 1170 0056 BD46     		mov	sp, r7
 1171 0058 02B0     		add	sp, sp, #8
 1172              		@ sp needed
 1173 005a 80BD     		pop	{r7, pc}
 1174              	.L53:
 1175              		.align	2
 1176              	.L52:
 1177 005c 00000000 		.word	RTC_1_initVar
 1178 0060 08000000 		.word	RTC_1_dstTimeOffset
 1179 0064 00000000 		.word	RTC_1_currentTimeDate
 1180 0068 00000000 		.word	RTC_1_dstStatus
ARM GAS  C:\Users\7709\AppData\Local\Temp\ccQ2UUYk.s 			page 50


 1181 006c 00000000 		.word	RTC_1_alarmCurStatus
 1182 0070 E1070000 		.word	2017
 1183              		.cfi_endproc
 1184              	.LFE33:
 1185              		.size	RTC_1_Init, .-RTC_1_Init
 1186              		.section	.text.RTC_1_SetDateAndTime,"ax",%progbits
 1187              		.align	2
 1188              		.global	RTC_1_SetDateAndTime
 1189              		.code	16
 1190              		.thumb_func
 1191              		.type	RTC_1_SetDateAndTime, %function
 1192              	RTC_1_SetDateAndTime:
 1193              	.LFB34:
 196:Generated_Source\PSoC4/RTC_1.c **** 
 197:Generated_Source\PSoC4/RTC_1.c **** 
 198:Generated_Source\PSoC4/RTC_1.c **** /*******************************************************************************
 199:Generated_Source\PSoC4/RTC_1.c **** * Function Name: RTC_1_SetDateAndTime
 200:Generated_Source\PSoC4/RTC_1.c **** ****************************************************************************//**
 201:Generated_Source\PSoC4/RTC_1.c **** *
 202:Generated_Source\PSoC4/RTC_1.c **** * Sets the time and date values as the current time and date.
 203:Generated_Source\PSoC4/RTC_1.c **** *
 204:Generated_Source\PSoC4/RTC_1.c **** * \param inputTime
 205:Generated_Source\PSoC4/RTC_1.c **** * The time value in the HH:MM:SS format. <br>
 206:Generated_Source\PSoC4/RTC_1.c **** * "HH"- The 2nd 8-bit MSB that denotes the hour value.
 207:Generated_Source\PSoC4/RTC_1.c **** * (0-23 for the 24-hour format and 1-12 for the 12-hour format. The MSB bit of 
 208:Generated_Source\PSoC4/RTC_1.c **** * the value denotes AM/PM for the 12-hour format (0-AM and 1-PM). <br>
 209:Generated_Source\PSoC4/RTC_1.c **** * "MM" - The 3nd 8-bit MSB denotes the minutes value, the valid 
 210:Generated_Source\PSoC4/RTC_1.c **** * entries -> 0-59.<br>
 211:Generated_Source\PSoC4/RTC_1.c **** * "SS" - The 8-bit LSB denotes the seconds value, the valid entries -> 0-59.
 212:Generated_Source\PSoC4/RTC_1.c **** * Each byte is in the BCD format. Invalid time entries retain the
 213:Generated_Source\PSoC4/RTC_1.c **** * previously set values.
 214:Generated_Source\PSoC4/RTC_1.c **** *
 215:Generated_Source\PSoC4/RTC_1.c **** * \param inputDate
 216:Generated_Source\PSoC4/RTC_1.c **** * The date value in the format selected in the customizer.
 217:Generated_Source\PSoC4/RTC_1.c **** * For the MM/DD/YYYY format: <br>
 218:Generated_Source\PSoC4/RTC_1.c **** * "MM" - The 8-bit MSB denotes the month value in BCD, the valid 
 219:Generated_Source\PSoC4/RTC_1.c **** * entries -> 1-12<br>
 220:Generated_Source\PSoC4/RTC_1.c **** * "DD" - The 2nd 8-bit MSB denotes a day of the month value in BCD, the valid
 221:Generated_Source\PSoC4/RTC_1.c **** * entries -> 1-31.<br>
 222:Generated_Source\PSoC4/RTC_1.c **** * "YYYY" - The 16-bit LSB denotes a year in BCD, the valid entries -> 1900-2200.
 223:Generated_Source\PSoC4/RTC_1.c **** * Each byte is in the BCD format. Invalid date entries retain the
 224:Generated_Source\PSoC4/RTC_1.c **** * previously set values.
 225:Generated_Source\PSoC4/RTC_1.c **** *
 226:Generated_Source\PSoC4/RTC_1.c **** *******************************************************************************/
 227:Generated_Source\PSoC4/RTC_1.c **** void RTC_1_SetDateAndTime(uint32 inputTime, uint32 inputDate)
 228:Generated_Source\PSoC4/RTC_1.c **** {
 1194              		.loc 2 228 0
 1195              		.cfi_startproc
 1196              		@ args = 0, pretend = 0, frame = 24
 1197              		@ frame_needed = 1, uses_anonymous_args = 0
 1198 0000 90B5     		push	{r4, r7, lr}
 1199              		.cfi_def_cfa_offset 12
 1200              		.cfi_offset 4, -12
 1201              		.cfi_offset 7, -8
 1202              		.cfi_offset 14, -4
 1203 0002 87B0     		sub	sp, sp, #28
 1204              		.cfi_def_cfa_offset 40
ARM GAS  C:\Users\7709\AppData\Local\Temp\ccQ2UUYk.s 			page 51


 1205 0004 00AF     		add	r7, sp, #0
 1206              		.cfi_def_cfa_register 7
 1207 0006 7860     		str	r0, [r7, #4]
 1208 0008 3960     		str	r1, [r7]
 229:Generated_Source\PSoC4/RTC_1.c ****     uint32 tmpDay;
 230:Generated_Source\PSoC4/RTC_1.c ****     uint32 tmpMonth;
 231:Generated_Source\PSoC4/RTC_1.c ****     uint32 tmpYear;
 232:Generated_Source\PSoC4/RTC_1.c **** 
 233:Generated_Source\PSoC4/RTC_1.c ****     tmpDay   = RTC_1_GetDay(inputDate);
 1209              		.loc 2 233 0
 1210 000a 3B68     		ldr	r3, [r7]
 1211 000c 1800     		movs	r0, r3
 1212 000e FFF7FEFF 		bl	RTC_1_GetDay
 1213 0012 0300     		movs	r3, r0
 1214 0014 7B61     		str	r3, [r7, #20]
 234:Generated_Source\PSoC4/RTC_1.c ****     tmpMonth = RTC_1_GetMonth(inputDate);
 1215              		.loc 2 234 0
 1216 0016 3B68     		ldr	r3, [r7]
 1217 0018 1800     		movs	r0, r3
 1218 001a FFF7FEFF 		bl	RTC_1_GetMonth
 1219 001e 0300     		movs	r3, r0
 1220 0020 3B61     		str	r3, [r7, #16]
 235:Generated_Source\PSoC4/RTC_1.c ****     tmpYear  = RTC_1_GetYear(inputDate);
 1221              		.loc 2 235 0
 1222 0022 3B68     		ldr	r3, [r7]
 1223 0024 1800     		movs	r0, r3
 1224 0026 FFF7FEFF 		bl	RTC_1_GetYear
 1225 002a 0300     		movs	r3, r0
 1226 002c FB60     		str	r3, [r7, #12]
 236:Generated_Source\PSoC4/RTC_1.c **** 
 237:Generated_Source\PSoC4/RTC_1.c ****     RTC_1_unixTime = RTC_1_DateTimeToUnix(inputDate, inputTime);
 1227              		.loc 2 237 0
 1228 002e 7A68     		ldr	r2, [r7, #4]
 1229 0030 3B68     		ldr	r3, [r7]
 1230 0032 1100     		movs	r1, r2
 1231 0034 1800     		movs	r0, r3
 1232 0036 FFF7FEFF 		bl	RTC_1_DateTimeToUnix
 1233 003a 0300     		movs	r3, r0
 1234 003c 0C00     		movs	r4, r1
 1235 003e 0B4A     		ldr	r2, .L55
 1236 0040 1360     		str	r3, [r2]
 1237 0042 5460     		str	r4, [r2, #4]
 238:Generated_Source\PSoC4/RTC_1.c ****     RTC_1_currentTimeDate.date = inputDate;
 1238              		.loc 2 238 0
 1239 0044 0A4B     		ldr	r3, .L55+4
 1240 0046 3A68     		ldr	r2, [r7]
 1241 0048 5A60     		str	r2, [r3, #4]
 239:Generated_Source\PSoC4/RTC_1.c ****     RTC_1_currentTimeDate.time = inputTime;
 1242              		.loc 2 239 0
 1243 004a 094B     		ldr	r3, .L55+4
 1244 004c 7A68     		ldr	r2, [r7, #4]
 1245 004e 1A60     		str	r2, [r3]
 240:Generated_Source\PSoC4/RTC_1.c ****     RTC_1_currentTimeDate.dayOfWeek = RTC_1_GetDayOfWeek(tmpDay, tmpMonth, tmpYear);
 1246              		.loc 2 240 0
 1247 0050 FA68     		ldr	r2, [r7, #12]
 1248 0052 3969     		ldr	r1, [r7, #16]
 1249 0054 7B69     		ldr	r3, [r7, #20]
ARM GAS  C:\Users\7709\AppData\Local\Temp\ccQ2UUYk.s 			page 52


 1250 0056 1800     		movs	r0, r3
 1251 0058 FFF7FEFF 		bl	RTC_1_GetDayOfWeek
 1252 005c 0200     		movs	r2, r0
 1253 005e 044B     		ldr	r3, .L55+4
 1254 0060 9A60     		str	r2, [r3, #8]
 241:Generated_Source\PSoC4/RTC_1.c **** 
 242:Generated_Source\PSoC4/RTC_1.c ****     #if(0u != RTC_1_INITIAL_DST_STATUS)
 243:Generated_Source\PSoC4/RTC_1.c ****         RTC_1_unixTimeDstStart = RTC_1_GetDstUnixTime(&RTC_1_dstStartTime);
 244:Generated_Source\PSoC4/RTC_1.c ****         RTC_1_unixTimeDstStop  = RTC_1_GetDstUnixTime(&RTC_1_dstStopTime);
 245:Generated_Source\PSoC4/RTC_1.c **** 
 246:Generated_Source\PSoC4/RTC_1.c ****         if((RTC_1_unixTime >= RTC_1_unixTimeDstStart) &&
 247:Generated_Source\PSoC4/RTC_1.c ****            (RTC_1_unixTime <= RTC_1_unixTimeDstStop))
 248:Generated_Source\PSoC4/RTC_1.c ****         {
 249:Generated_Source\PSoC4/RTC_1.c ****             RTC_1_dstStatus = 1u;
 250:Generated_Source\PSoC4/RTC_1.c ****             RTC_1_dstTimeOffset = RTC_1_SECONDS_PER_HOUR;
 251:Generated_Source\PSoC4/RTC_1.c ****             RTC_1_unixTime -= RTC_1_dstTimeOffset;
 252:Generated_Source\PSoC4/RTC_1.c ****         }
 253:Generated_Source\PSoC4/RTC_1.c ****         else
 254:Generated_Source\PSoC4/RTC_1.c ****         {
 255:Generated_Source\PSoC4/RTC_1.c ****             RTC_1_dstStatus = 0u;
 256:Generated_Source\PSoC4/RTC_1.c ****             RTC_1_dstTimeOffset = 0uL;
 257:Generated_Source\PSoC4/RTC_1.c ****         }
 258:Generated_Source\PSoC4/RTC_1.c ****     #endif /* (0u != RTC_1_INITIAL_DST_STATUS) */
 259:Generated_Source\PSoC4/RTC_1.c **** 
 260:Generated_Source\PSoC4/RTC_1.c ****     #if(0u != RTC_1_INITIAL_ALARM_STATUS)
 261:Generated_Source\PSoC4/RTC_1.c ****         RTC_1_unixTimeAlarm = RTC_1_ConstructUnixAlarmTime(&RTC_1_alarmCfgTimeDate,
 262:Generated_Source\PSoC4/RTC_1.c ****                                                                                  (uint8)RTC_1_alarm
 263:Generated_Source\PSoC4/RTC_1.c ****     #endif /* (0u != RTC_1_INITIAL_ALARM_STATUS) */
 264:Generated_Source\PSoC4/RTC_1.c **** }
 1255              		.loc 2 264 0
 1256 0062 C046     		nop
 1257 0064 BD46     		mov	sp, r7
 1258 0066 07B0     		add	sp, sp, #28
 1259              		@ sp needed
 1260 0068 90BD     		pop	{r4, r7, pc}
 1261              	.L56:
 1262 006a C046     		.align	2
 1263              	.L55:
 1264 006c 00000000 		.word	RTC_1_unixTime
 1265 0070 00000000 		.word	RTC_1_currentTimeDate
 1266              		.cfi_endproc
 1267              	.LFE34:
 1268              		.size	RTC_1_SetDateAndTime, .-RTC_1_SetDateAndTime
 1269              		.section	.text.RTC_1_SetUnixTime,"ax",%progbits
 1270              		.align	2
 1271              		.global	RTC_1_SetUnixTime
 1272              		.code	16
 1273              		.thumb_func
 1274              		.type	RTC_1_SetUnixTime, %function
 1275              	RTC_1_SetUnixTime:
 1276              	.LFB35:
 265:Generated_Source\PSoC4/RTC_1.c **** 
 266:Generated_Source\PSoC4/RTC_1.c **** 
 267:Generated_Source\PSoC4/RTC_1.c **** /*******************************************************************************
 268:Generated_Source\PSoC4/RTC_1.c **** * Function Name: RTC_1_SetUnixTime
 269:Generated_Source\PSoC4/RTC_1.c **** ****************************************************************************//**
 270:Generated_Source\PSoC4/RTC_1.c **** *
ARM GAS  C:\Users\7709\AppData\Local\Temp\ccQ2UUYk.s 			page 53


 271:Generated_Source\PSoC4/RTC_1.c **** * Sets the time in the Unix/Epoch time format - the number of seconds elapsed
 272:Generated_Source\PSoC4/RTC_1.c **** * from January 1, 1970 UTC 00:00 hrs.
 273:Generated_Source\PSoC4/RTC_1.c **** *
 274:Generated_Source\PSoC4/RTC_1.c **** * \param time
 275:Generated_Source\PSoC4/RTC_1.c **** * The time value in the Unix time/Epoch time format.
 276:Generated_Source\PSoC4/RTC_1.c **** *
 277:Generated_Source\PSoC4/RTC_1.c **** *******************************************************************************/
 278:Generated_Source\PSoC4/RTC_1.c **** void RTC_1_SetUnixTime(uint64 unixTime)
 279:Generated_Source\PSoC4/RTC_1.c **** {
 1277              		.loc 2 279 0
 1278              		.cfi_startproc
 1279              		@ args = 0, pretend = 0, frame = 24
 1280              		@ frame_needed = 1, uses_anonymous_args = 0
 1281 0000 90B5     		push	{r4, r7, lr}
 1282              		.cfi_def_cfa_offset 12
 1283              		.cfi_offset 4, -12
 1284              		.cfi_offset 7, -8
 1285              		.cfi_offset 14, -4
 1286 0002 89B0     		sub	sp, sp, #36
 1287              		.cfi_def_cfa_offset 48
 1288 0004 02AF     		add	r7, sp, #8
 1289              		.cfi_def_cfa 7, 40
 1290 0006 3860     		str	r0, [r7]
 1291 0008 7960     		str	r1, [r7, #4]
 280:Generated_Source\PSoC4/RTC_1.c ****     RTC_1_DATE_TIME tmpDateTime;
 281:Generated_Source\PSoC4/RTC_1.c **** 
 282:Generated_Source\PSoC4/RTC_1.c ****     RTC_1_unixTime = unixTime;
 1292              		.loc 2 282 0
 1293 000a 0A4A     		ldr	r2, .L58
 1294 000c 3B68     		ldr	r3, [r7]
 1295 000e 7C68     		ldr	r4, [r7, #4]
 1296 0010 1360     		str	r3, [r2]
 1297 0012 5460     		str	r4, [r2, #4]
 283:Generated_Source\PSoC4/RTC_1.c ****     RTC_1_UnixToDateTime(&tmpDateTime, unixTime, (uint32)RTC_1_24_HOURS_FORMAT);
 1298              		.loc 2 283 0
 1299 0014 3B68     		ldr	r3, [r7]
 1300 0016 7C68     		ldr	r4, [r7, #4]
 1301 0018 0822     		movs	r2, #8
 1302 001a B918     		adds	r1, r7, r2
 1303 001c 0022     		movs	r2, #0
 1304 001e 0092     		str	r2, [sp]
 1305 0020 1A00     		movs	r2, r3
 1306 0022 2300     		movs	r3, r4
 1307 0024 0800     		movs	r0, r1
 1308 0026 FFF7FEFF 		bl	RTC_1_UnixToDateTime
 284:Generated_Source\PSoC4/RTC_1.c **** 
 285:Generated_Source\PSoC4/RTC_1.c ****     #if(0u != RTC_1_INITIAL_DST_STATUS)
 286:Generated_Source\PSoC4/RTC_1.c ****         RTC_1_unixTimeDstStart = RTC_1_GetDstUnixTime(&RTC_1_dstStartTime);
 287:Generated_Source\PSoC4/RTC_1.c ****         RTC_1_unixTimeDstStop  = RTC_1_GetDstUnixTime(&RTC_1_dstStopTime);
 288:Generated_Source\PSoC4/RTC_1.c **** 
 289:Generated_Source\PSoC4/RTC_1.c ****         if((RTC_1_unixTime >= RTC_1_unixTimeDstStart) &&
 290:Generated_Source\PSoC4/RTC_1.c ****            (RTC_1_unixTime <= RTC_1_unixTimeDstStop))
 291:Generated_Source\PSoC4/RTC_1.c ****         {
 292:Generated_Source\PSoC4/RTC_1.c ****             RTC_1_dstStatus = 1u;
 293:Generated_Source\PSoC4/RTC_1.c ****             RTC_1_dstTimeOffset = RTC_1_SECONDS_PER_HOUR;
 294:Generated_Source\PSoC4/RTC_1.c ****         }
 295:Generated_Source\PSoC4/RTC_1.c ****         else
ARM GAS  C:\Users\7709\AppData\Local\Temp\ccQ2UUYk.s 			page 54


 296:Generated_Source\PSoC4/RTC_1.c ****         {
 297:Generated_Source\PSoC4/RTC_1.c ****             RTC_1_dstStatus = 0u;
 298:Generated_Source\PSoC4/RTC_1.c ****             RTC_1_dstTimeOffset = 0uL;
 299:Generated_Source\PSoC4/RTC_1.c ****         }
 300:Generated_Source\PSoC4/RTC_1.c ****     #endif /* (0u != RTC_1_INITIAL_DST_STATUS) */
 301:Generated_Source\PSoC4/RTC_1.c **** }
 1309              		.loc 2 301 0
 1310 002a C046     		nop
 1311 002c BD46     		mov	sp, r7
 1312 002e 07B0     		add	sp, sp, #28
 1313              		@ sp needed
 1314 0030 90BD     		pop	{r4, r7, pc}
 1315              	.L59:
 1316 0032 C046     		.align	2
 1317              	.L58:
 1318 0034 00000000 		.word	RTC_1_unixTime
 1319              		.cfi_endproc
 1320              	.LFE35:
 1321              		.size	RTC_1_SetUnixTime, .-RTC_1_SetUnixTime
 1322              		.section	.text.RTC_1_GetUnixTime,"ax",%progbits
 1323              		.align	2
 1324              		.global	RTC_1_GetUnixTime
 1325              		.code	16
 1326              		.thumb_func
 1327              		.type	RTC_1_GetUnixTime, %function
 1328              	RTC_1_GetUnixTime:
 1329              	.LFB36:
 302:Generated_Source\PSoC4/RTC_1.c **** 
 303:Generated_Source\PSoC4/RTC_1.c **** 
 304:Generated_Source\PSoC4/RTC_1.c **** /*******************************************************************************
 305:Generated_Source\PSoC4/RTC_1.c **** * Function Name: RTC_1_GetUnixTime
 306:Generated_Source\PSoC4/RTC_1.c **** ****************************************************************************//**
 307:Generated_Source\PSoC4/RTC_1.c **** *
 308:Generated_Source\PSoC4/RTC_1.c **** * Returns the time in the Unix/Epoch time format - the number of seconds 
 309:Generated_Source\PSoC4/RTC_1.c **** * elapsed from January 1, 1970 UTC 00:00 hrs.
 310:Generated_Source\PSoC4/RTC_1.c **** *
 311:Generated_Source\PSoC4/RTC_1.c **** * \return
 312:Generated_Source\PSoC4/RTC_1.c **** * Time The time value in the Unix time/Epoch time format.
 313:Generated_Source\PSoC4/RTC_1.c **** *
 314:Generated_Source\PSoC4/RTC_1.c **** *******************************************************************************/
 315:Generated_Source\PSoC4/RTC_1.c **** uint64 RTC_1_GetUnixTime(void)
 316:Generated_Source\PSoC4/RTC_1.c **** {
 1330              		.loc 2 316 0
 1331              		.cfi_startproc
 1332              		@ args = 0, pretend = 0, frame = 0
 1333              		@ frame_needed = 1, uses_anonymous_args = 0
 1334 0000 90B5     		push	{r4, r7, lr}
 1335              		.cfi_def_cfa_offset 12
 1336              		.cfi_offset 4, -12
 1337              		.cfi_offset 7, -8
 1338              		.cfi_offset 14, -4
 1339 0002 00AF     		add	r7, sp, #0
 1340              		.cfi_def_cfa_register 7
 317:Generated_Source\PSoC4/RTC_1.c ****     return (RTC_1_unixTime);
 1341              		.loc 2 317 0
 1342 0004 034B     		ldr	r3, .L62
 1343 0006 5C68     		ldr	r4, [r3, #4]
ARM GAS  C:\Users\7709\AppData\Local\Temp\ccQ2UUYk.s 			page 55


 1344 0008 1B68     		ldr	r3, [r3]
 318:Generated_Source\PSoC4/RTC_1.c **** }
 1345              		.loc 2 318 0
 1346 000a 1800     		movs	r0, r3
 1347 000c 2100     		movs	r1, r4
 1348 000e BD46     		mov	sp, r7
 1349              		@ sp needed
 1350 0010 90BD     		pop	{r4, r7, pc}
 1351              	.L63:
 1352 0012 C046     		.align	2
 1353              	.L62:
 1354 0014 00000000 		.word	RTC_1_unixTime
 1355              		.cfi_endproc
 1356              	.LFE36:
 1357              		.size	RTC_1_GetUnixTime, .-RTC_1_GetUnixTime
 1358              		.section	.text.RTC_1_SetPeriod,"ax",%progbits
 1359              		.align	2
 1360              		.global	RTC_1_SetPeriod
 1361              		.code	16
 1362              		.thumb_func
 1363              		.type	RTC_1_SetPeriod, %function
 1364              	RTC_1_SetPeriod:
 1365              	.LFB37:
 319:Generated_Source\PSoC4/RTC_1.c **** 
 320:Generated_Source\PSoC4/RTC_1.c **** 
 321:Generated_Source\PSoC4/RTC_1.c **** /*******************************************************************************
 322:Generated_Source\PSoC4/RTC_1.c **** * Function Name: RTC_1_SetPeriod
 323:Generated_Source\PSoC4/RTC_1.c **** ****************************************************************************//**
 324:Generated_Source\PSoC4/RTC_1.c **** *
 325:Generated_Source\PSoC4/RTC_1.c **** * Sets the RTC time update API period.
 326:Generated_Source\PSoC4/RTC_1.c **** *
 327:Generated_Source\PSoC4/RTC_1.c **** * The user needs to pass the period as
 328:Generated_Source\PSoC4/RTC_1.c **** * a number of ticks and also a reference number of ticks taken by the same 
 329:Generated_Source\PSoC4/RTC_1.c **** * clock source for one second. For instance, for a 32 kHz clock source and RTC
 330:Generated_Source\PSoC4/RTC_1.c **** * period of 100 ms, the "ticks" value is 3200 and the "refOneSecTicks" value
 331:Generated_Source\PSoC4/RTC_1.c **** * is 32000. This value is used to increment the time every time
 332:Generated_Source\PSoC4/RTC_1.c **** * RTC_1_Update() API is called.
 333:Generated_Source\PSoC4/RTC_1.c **** *
 334:Generated_Source\PSoC4/RTC_1.c **** * \param ticks
 335:Generated_Source\PSoC4/RTC_1.c **** * The clock period taken as a number of ticks.
 336:Generated_Source\PSoC4/RTC_1.c **** *
 337:Generated_Source\PSoC4/RTC_1.c **** * \param refOneSecTicks
 338:Generated_Source\PSoC4/RTC_1.c **** * The reference number of ticks taken by the same clock source
 339:Generated_Source\PSoC4/RTC_1.c **** * for one second (the input clock frequency in Hz).
 340:Generated_Source\PSoC4/RTC_1.c **** *
 341:Generated_Source\PSoC4/RTC_1.c **** *******************************************************************************/
 342:Generated_Source\PSoC4/RTC_1.c **** void RTC_1_SetPeriod(uint32 ticks, uint32 refOneSecTicks)
 343:Generated_Source\PSoC4/RTC_1.c **** {
 1366              		.loc 2 343 0
 1367              		.cfi_startproc
 1368              		@ args = 0, pretend = 0, frame = 8
 1369              		@ frame_needed = 1, uses_anonymous_args = 0
 1370 0000 80B5     		push	{r7, lr}
 1371              		.cfi_def_cfa_offset 8
 1372              		.cfi_offset 7, -8
 1373              		.cfi_offset 14, -4
 1374 0002 82B0     		sub	sp, sp, #8
ARM GAS  C:\Users\7709\AppData\Local\Temp\ccQ2UUYk.s 			page 56


 1375              		.cfi_def_cfa_offset 16
 1376 0004 00AF     		add	r7, sp, #0
 1377              		.cfi_def_cfa_register 7
 1378 0006 7860     		str	r0, [r7, #4]
 1379 0008 3960     		str	r1, [r7]
 344:Generated_Source\PSoC4/RTC_1.c ****     RTC_1_updateTimePeriod = ticks;
 1380              		.loc 2 344 0
 1381 000a 054B     		ldr	r3, .L65
 1382 000c 7A68     		ldr	r2, [r7, #4]
 1383 000e 1A60     		str	r2, [r3]
 345:Generated_Source\PSoC4/RTC_1.c ****     RTC_1_tickRefOneSec    = refOneSecTicks;
 1384              		.loc 2 345 0
 1385 0010 044B     		ldr	r3, .L65+4
 1386 0012 3A68     		ldr	r2, [r7]
 1387 0014 1A60     		str	r2, [r3]
 346:Generated_Source\PSoC4/RTC_1.c **** }
 1388              		.loc 2 346 0
 1389 0016 C046     		nop
 1390 0018 BD46     		mov	sp, r7
 1391 001a 02B0     		add	sp, sp, #8
 1392              		@ sp needed
 1393 001c 80BD     		pop	{r7, pc}
 1394              	.L66:
 1395 001e C046     		.align	2
 1396              	.L65:
 1397 0020 00000000 		.word	RTC_1_updateTimePeriod
 1398 0024 04000000 		.word	RTC_1_tickRefOneSec
 1399              		.cfi_endproc
 1400              	.LFE37:
 1401              		.size	RTC_1_SetPeriod, .-RTC_1_SetPeriod
 1402              		.section	.text.RTC_1_GetPeriod,"ax",%progbits
 1403              		.align	2
 1404              		.global	RTC_1_GetPeriod
 1405              		.code	16
 1406              		.thumb_func
 1407              		.type	RTC_1_GetPeriod, %function
 1408              	RTC_1_GetPeriod:
 1409              	.LFB38:
 347:Generated_Source\PSoC4/RTC_1.c **** 
 348:Generated_Source\PSoC4/RTC_1.c **** 
 349:Generated_Source\PSoC4/RTC_1.c **** /*******************************************************************************
 350:Generated_Source\PSoC4/RTC_1.c **** * Function Name: RTC_1_SetPeriod
 351:Generated_Source\PSoC4/RTC_1.c **** ****************************************************************************//**
 352:Generated_Source\PSoC4/RTC_1.c **** *
 353:Generated_Source\PSoC4/RTC_1.c **** * Gets the RTC time update API period.
 354:Generated_Source\PSoC4/RTC_1.c **** *
 355:Generated_Source\PSoC4/RTC_1.c **** * \return
 356:Generated_Source\PSoC4/RTC_1.c **** * Period The clock period taken as a number of ticks.
 357:Generated_Source\PSoC4/RTC_1.c **** *
 358:Generated_Source\PSoC4/RTC_1.c **** *******************************************************************************/
 359:Generated_Source\PSoC4/RTC_1.c **** uint32 RTC_1_GetPeriod(void)
 360:Generated_Source\PSoC4/RTC_1.c **** {
 1410              		.loc 2 360 0
 1411              		.cfi_startproc
 1412              		@ args = 0, pretend = 0, frame = 0
 1413              		@ frame_needed = 1, uses_anonymous_args = 0
 1414 0000 80B5     		push	{r7, lr}
ARM GAS  C:\Users\7709\AppData\Local\Temp\ccQ2UUYk.s 			page 57


 1415              		.cfi_def_cfa_offset 8
 1416              		.cfi_offset 7, -8
 1417              		.cfi_offset 14, -4
 1418 0002 00AF     		add	r7, sp, #0
 1419              		.cfi_def_cfa_register 7
 361:Generated_Source\PSoC4/RTC_1.c ****     return(RTC_1_updateTimePeriod);
 1420              		.loc 2 361 0
 1421 0004 024B     		ldr	r3, .L69
 1422 0006 1B68     		ldr	r3, [r3]
 362:Generated_Source\PSoC4/RTC_1.c **** }
 1423              		.loc 2 362 0
 1424 0008 1800     		movs	r0, r3
 1425 000a BD46     		mov	sp, r7
 1426              		@ sp needed
 1427 000c 80BD     		pop	{r7, pc}
 1428              	.L70:
 1429 000e C046     		.align	2
 1430              	.L69:
 1431 0010 00000000 		.word	RTC_1_updateTimePeriod
 1432              		.cfi_endproc
 1433              	.LFE38:
 1434              		.size	RTC_1_GetPeriod, .-RTC_1_GetPeriod
 1435              		.section	.text.RTC_1_GetRefOneSec,"ax",%progbits
 1436              		.align	2
 1437              		.global	RTC_1_GetRefOneSec
 1438              		.code	16
 1439              		.thumb_func
 1440              		.type	RTC_1_GetRefOneSec, %function
 1441              	RTC_1_GetRefOneSec:
 1442              	.LFB39:
 363:Generated_Source\PSoC4/RTC_1.c **** 
 364:Generated_Source\PSoC4/RTC_1.c **** 
 365:Generated_Source\PSoC4/RTC_1.c **** /*******************************************************************************
 366:Generated_Source\PSoC4/RTC_1.c **** * Function Name: RTC_1_GetRefOneSec
 367:Generated_Source\PSoC4/RTC_1.c **** ****************************************************************************//**
 368:Generated_Source\PSoC4/RTC_1.c **** *
 369:Generated_Source\PSoC4/RTC_1.c **** * Gets the RTC time update API period.
 370:Generated_Source\PSoC4/RTC_1.c **** *
 371:Generated_Source\PSoC4/RTC_1.c **** * \return
 372:Generated_Source\PSoC4/RTC_1.c **** * Period The reference number of ticks taken by the RTC clock source for one
 373:Generated_Source\PSoC4/RTC_1.c **** * second.
 374:Generated_Source\PSoC4/RTC_1.c **** *
 375:Generated_Source\PSoC4/RTC_1.c **** *******************************************************************************/
 376:Generated_Source\PSoC4/RTC_1.c **** uint32 RTC_1_GetRefOneSec(void)
 377:Generated_Source\PSoC4/RTC_1.c **** {
 1443              		.loc 2 377 0
 1444              		.cfi_startproc
 1445              		@ args = 0, pretend = 0, frame = 0
 1446              		@ frame_needed = 1, uses_anonymous_args = 0
 1447 0000 80B5     		push	{r7, lr}
 1448              		.cfi_def_cfa_offset 8
 1449              		.cfi_offset 7, -8
 1450              		.cfi_offset 14, -4
 1451 0002 00AF     		add	r7, sp, #0
 1452              		.cfi_def_cfa_register 7
 378:Generated_Source\PSoC4/RTC_1.c ****     return(RTC_1_tickRefOneSec);
 1453              		.loc 2 378 0
ARM GAS  C:\Users\7709\AppData\Local\Temp\ccQ2UUYk.s 			page 58


 1454 0004 024B     		ldr	r3, .L73
 1455 0006 1B68     		ldr	r3, [r3]
 379:Generated_Source\PSoC4/RTC_1.c **** }
 1456              		.loc 2 379 0
 1457 0008 1800     		movs	r0, r3
 1458 000a BD46     		mov	sp, r7
 1459              		@ sp needed
 1460 000c 80BD     		pop	{r7, pc}
 1461              	.L74:
 1462 000e C046     		.align	2
 1463              	.L73:
 1464 0010 04000000 		.word	RTC_1_tickRefOneSec
 1465              		.cfi_endproc
 1466              	.LFE39:
 1467              		.size	RTC_1_GetRefOneSec, .-RTC_1_GetRefOneSec
 1468              		.section	.text.RTC_1_GetDateAndTime,"ax",%progbits
 1469              		.align	2
 1470              		.global	RTC_1_GetDateAndTime
 1471              		.code	16
 1472              		.thumb_func
 1473              		.type	RTC_1_GetDateAndTime, %function
 1474              	RTC_1_GetDateAndTime:
 1475              	.LFB40:
 380:Generated_Source\PSoC4/RTC_1.c **** 
 381:Generated_Source\PSoC4/RTC_1.c **** 
 382:Generated_Source\PSoC4/RTC_1.c **** /*******************************************************************************
 383:Generated_Source\PSoC4/RTC_1.c **** * Function Name: RTC_1_GetDateAndTime
 384:Generated_Source\PSoC4/RTC_1.c **** ****************************************************************************//**
 385:Generated_Source\PSoC4/RTC_1.c **** *
 386:Generated_Source\PSoC4/RTC_1.c **** * Reads the current time and date.
 387:Generated_Source\PSoC4/RTC_1.c **** *
 388:Generated_Source\PSoC4/RTC_1.c **** * \param dateTime
 389:Generated_Source\PSoC4/RTC_1.c **** * The pointer to the RTC_date_time structure to which time and date is returned.
 390:Generated_Source\PSoC4/RTC_1.c **** *
 391:Generated_Source\PSoC4/RTC_1.c **** *******************************************************************************/
 392:Generated_Source\PSoC4/RTC_1.c **** void RTC_1_GetDateAndTime(RTC_1_DATE_TIME* dateTime)
 393:Generated_Source\PSoC4/RTC_1.c **** {
 1476              		.loc 2 393 0
 1477              		.cfi_startproc
 1478              		@ args = 0, pretend = 0, frame = 8
 1479              		@ frame_needed = 1, uses_anonymous_args = 0
 1480 0000 90B5     		push	{r4, r7, lr}
 1481              		.cfi_def_cfa_offset 12
 1482              		.cfi_offset 4, -12
 1483              		.cfi_offset 7, -8
 1484              		.cfi_offset 14, -4
 1485 0002 85B0     		sub	sp, sp, #20
 1486              		.cfi_def_cfa_offset 32
 1487 0004 02AF     		add	r7, sp, #8
 1488              		.cfi_def_cfa 7, 24
 1489 0006 7860     		str	r0, [r7, #4]
 394:Generated_Source\PSoC4/RTC_1.c ****     RTC_1_UnixToDateTime(dateTime, (RTC_1_unixTime  + RTC_1_dstTimeOffset),
 1490              		.loc 2 394 0
 1491 0008 0A4B     		ldr	r3, .L76
 1492 000a 1B68     		ldr	r3, [r3]
 1493 000c 1900     		movs	r1, r3
 1494 000e 0023     		movs	r3, #0
ARM GAS  C:\Users\7709\AppData\Local\Temp\ccQ2UUYk.s 			page 59


 1495 0010 1A00     		movs	r2, r3
 1496 0012 094B     		ldr	r3, .L76+4
 1497 0014 5C68     		ldr	r4, [r3, #4]
 1498 0016 1B68     		ldr	r3, [r3]
 1499 0018 5B18     		adds	r3, r3, r1
 1500 001a 5441     		adcs	r4, r4, r2
 1501 001c 7968     		ldr	r1, [r7, #4]
 1502 001e 0122     		movs	r2, #1
 1503 0020 0092     		str	r2, [sp]
 1504 0022 1A00     		movs	r2, r3
 1505 0024 2300     		movs	r3, r4
 1506 0026 0800     		movs	r0, r1
 1507 0028 FFF7FEFF 		bl	RTC_1_UnixToDateTime
 395:Generated_Source\PSoC4/RTC_1.c ****                                                                             RTC_1_INITIAL_TIME_FORM
 396:Generated_Source\PSoC4/RTC_1.c **** }
 1508              		.loc 2 396 0
 1509 002c C046     		nop
 1510 002e BD46     		mov	sp, r7
 1511 0030 03B0     		add	sp, sp, #12
 1512              		@ sp needed
 1513 0032 90BD     		pop	{r4, r7, pc}
 1514              	.L77:
 1515              		.align	2
 1516              	.L76:
 1517 0034 08000000 		.word	RTC_1_dstTimeOffset
 1518 0038 00000000 		.word	RTC_1_unixTime
 1519              		.cfi_endproc
 1520              	.LFE40:
 1521              		.size	RTC_1_GetDateAndTime, .-RTC_1_GetDateAndTime
 1522              		.section	.text.RTC_1_GetTime,"ax",%progbits
 1523              		.align	2
 1524              		.global	RTC_1_GetTime
 1525              		.code	16
 1526              		.thumb_func
 1527              		.type	RTC_1_GetTime, %function
 1528              	RTC_1_GetTime:
 1529              	.LFB41:
 397:Generated_Source\PSoC4/RTC_1.c **** 
 398:Generated_Source\PSoC4/RTC_1.c **** 
 399:Generated_Source\PSoC4/RTC_1.c **** /*******************************************************************************
 400:Generated_Source\PSoC4/RTC_1.c **** * Function Name: RTC_1_GetTime
 401:Generated_Source\PSoC4/RTC_1.c **** ****************************************************************************//**
 402:Generated_Source\PSoC4/RTC_1.c **** *
 403:Generated_Source\PSoC4/RTC_1.c **** * Reads the current time.
 404:Generated_Source\PSoC4/RTC_1.c **** *
 405:Generated_Source\PSoC4/RTC_1.c **** * \return
 406:Generated_Source\PSoC4/RTC_1.c **** * date The value of date in the user selected format. The date value is 
 407:Generated_Source\PSoC4/RTC_1.c **** * available in the BCD format.
 408:Generated_Source\PSoC4/RTC_1.c **** *
 409:Generated_Source\PSoC4/RTC_1.c **** * \warning
 410:Generated_Source\PSoC4/RTC_1.c **** * Using RTC_1_GetTime and RTC_GetDate API separately might result
 411:Generated_Source\PSoC4/RTC_1.c **** * in errors when the time wraps around the end of the day. To avoid this,
 412:Generated_Source\PSoC4/RTC_1.c **** * use RTC_1_GetDateAndTime API.
 413:Generated_Source\PSoC4/RTC_1.c **** *
 414:Generated_Source\PSoC4/RTC_1.c **** *******************************************************************************/
 415:Generated_Source\PSoC4/RTC_1.c **** uint32 RTC_1_GetTime(void)
 416:Generated_Source\PSoC4/RTC_1.c **** {
ARM GAS  C:\Users\7709\AppData\Local\Temp\ccQ2UUYk.s 			page 60


 1530              		.loc 2 416 0
 1531              		.cfi_startproc
 1532              		@ args = 0, pretend = 0, frame = 0
 1533              		@ frame_needed = 1, uses_anonymous_args = 0
 1534 0000 90B5     		push	{r4, r7, lr}
 1535              		.cfi_def_cfa_offset 12
 1536              		.cfi_offset 4, -12
 1537              		.cfi_offset 7, -8
 1538              		.cfi_offset 14, -4
 1539 0002 83B0     		sub	sp, sp, #12
 1540              		.cfi_def_cfa_offset 24
 1541 0004 02AF     		add	r7, sp, #8
 1542              		.cfi_def_cfa 7, 16
 417:Generated_Source\PSoC4/RTC_1.c ****     RTC_1_UnixToDateTime(&RTC_1_currentTimeDate,
 1543              		.loc 2 417 0
 1544 0006 0C4B     		ldr	r3, .L80
 1545 0008 1B68     		ldr	r3, [r3]
 1546 000a 1900     		movs	r1, r3
 1547 000c 0023     		movs	r3, #0
 1548 000e 1A00     		movs	r2, r3
 1549 0010 0A4B     		ldr	r3, .L80+4
 1550 0012 5C68     		ldr	r4, [r3, #4]
 1551 0014 1B68     		ldr	r3, [r3]
 1552 0016 5B18     		adds	r3, r3, r1
 1553 0018 5441     		adcs	r4, r4, r2
 1554 001a 0949     		ldr	r1, .L80+8
 1555 001c 0122     		movs	r2, #1
 1556 001e 0092     		str	r2, [sp]
 1557 0020 1A00     		movs	r2, r3
 1558 0022 2300     		movs	r3, r4
 1559 0024 0800     		movs	r0, r1
 1560 0026 FFF7FEFF 		bl	RTC_1_UnixToDateTime
 418:Generated_Source\PSoC4/RTC_1.c ****                                     (RTC_1_unixTime  + RTC_1_dstTimeOffset),
 419:Generated_Source\PSoC4/RTC_1.c ****                                      RTC_1_INITIAL_TIME_FORMAT);
 420:Generated_Source\PSoC4/RTC_1.c **** 
 421:Generated_Source\PSoC4/RTC_1.c ****     return(RTC_1_currentTimeDate.time);
 1561              		.loc 2 421 0
 1562 002a 054B     		ldr	r3, .L80+8
 1563 002c 1B68     		ldr	r3, [r3]
 422:Generated_Source\PSoC4/RTC_1.c **** }
 1564              		.loc 2 422 0
 1565 002e 1800     		movs	r0, r3
 1566 0030 BD46     		mov	sp, r7
 1567 0032 01B0     		add	sp, sp, #4
 1568              		@ sp needed
 1569 0034 90BD     		pop	{r4, r7, pc}
 1570              	.L81:
 1571 0036 C046     		.align	2
 1572              	.L80:
 1573 0038 08000000 		.word	RTC_1_dstTimeOffset
 1574 003c 00000000 		.word	RTC_1_unixTime
 1575 0040 00000000 		.word	RTC_1_currentTimeDate
 1576              		.cfi_endproc
 1577              	.LFE41:
 1578              		.size	RTC_1_GetTime, .-RTC_1_GetTime
 1579              		.section	.text.RTC_1_GetDate,"ax",%progbits
 1580              		.align	2
ARM GAS  C:\Users\7709\AppData\Local\Temp\ccQ2UUYk.s 			page 61


 1581              		.global	RTC_1_GetDate
 1582              		.code	16
 1583              		.thumb_func
 1584              		.type	RTC_1_GetDate, %function
 1585              	RTC_1_GetDate:
 1586              	.LFB42:
 423:Generated_Source\PSoC4/RTC_1.c **** 
 424:Generated_Source\PSoC4/RTC_1.c **** 
 425:Generated_Source\PSoC4/RTC_1.c **** /*******************************************************************************
 426:Generated_Source\PSoC4/RTC_1.c **** * Function Name: RTC_1_GetDate
 427:Generated_Source\PSoC4/RTC_1.c **** ****************************************************************************//**
 428:Generated_Source\PSoC4/RTC_1.c **** *
 429:Generated_Source\PSoC4/RTC_1.c **** * Reads the current time.
 430:Generated_Source\PSoC4/RTC_1.c **** *
 431:Generated_Source\PSoC4/RTC_1.c **** * \return
 432:Generated_Source\PSoC4/RTC_1.c **** * time The time value in the format selected by the user (12/24 hr);
 433:Generated_Source\PSoC4/RTC_1.c **** * The time value is available in the BCD format.
 434:Generated_Source\PSoC4/RTC_1.c **** *
 435:Generated_Source\PSoC4/RTC_1.c **** * \note
 436:Generated_Source\PSoC4/RTC_1.c **** * Using RTC_1_GetTime and RTC_1_GetDate API separately
 437:Generated_Source\PSoC4/RTC_1.c **** * might result in errors when the time wraps around the end of the day. To
 438:Generated_Source\PSoC4/RTC_1.c **** * avoid this, use RTC_1_GetDateAndTime API.
 439:Generated_Source\PSoC4/RTC_1.c **** *
 440:Generated_Source\PSoC4/RTC_1.c **** *******************************************************************************/
 441:Generated_Source\PSoC4/RTC_1.c **** uint32 RTC_1_GetDate(void)
 442:Generated_Source\PSoC4/RTC_1.c **** {
 1587              		.loc 2 442 0
 1588              		.cfi_startproc
 1589              		@ args = 0, pretend = 0, frame = 0
 1590              		@ frame_needed = 1, uses_anonymous_args = 0
 1591 0000 90B5     		push	{r4, r7, lr}
 1592              		.cfi_def_cfa_offset 12
 1593              		.cfi_offset 4, -12
 1594              		.cfi_offset 7, -8
 1595              		.cfi_offset 14, -4
 1596 0002 83B0     		sub	sp, sp, #12
 1597              		.cfi_def_cfa_offset 24
 1598 0004 02AF     		add	r7, sp, #8
 1599              		.cfi_def_cfa 7, 16
 443:Generated_Source\PSoC4/RTC_1.c ****     RTC_1_UnixToDateTime(&RTC_1_currentTimeDate,
 1600              		.loc 2 443 0
 1601 0006 0C4B     		ldr	r3, .L84
 1602 0008 1B68     		ldr	r3, [r3]
 1603 000a 1900     		movs	r1, r3
 1604 000c 0023     		movs	r3, #0
 1605 000e 1A00     		movs	r2, r3
 1606 0010 0A4B     		ldr	r3, .L84+4
 1607 0012 5C68     		ldr	r4, [r3, #4]
 1608 0014 1B68     		ldr	r3, [r3]
 1609 0016 5B18     		adds	r3, r3, r1
 1610 0018 5441     		adcs	r4, r4, r2
 1611 001a 0949     		ldr	r1, .L84+8
 1612 001c 0122     		movs	r2, #1
 1613 001e 0092     		str	r2, [sp]
 1614 0020 1A00     		movs	r2, r3
 1615 0022 2300     		movs	r3, r4
 1616 0024 0800     		movs	r0, r1
ARM GAS  C:\Users\7709\AppData\Local\Temp\ccQ2UUYk.s 			page 62


 1617 0026 FFF7FEFF 		bl	RTC_1_UnixToDateTime
 444:Generated_Source\PSoC4/RTC_1.c ****                                     (RTC_1_unixTime  + RTC_1_dstTimeOffset),
 445:Generated_Source\PSoC4/RTC_1.c ****                                      RTC_1_INITIAL_TIME_FORMAT);
 446:Generated_Source\PSoC4/RTC_1.c **** 
 447:Generated_Source\PSoC4/RTC_1.c ****     return(RTC_1_currentTimeDate.date);
 1618              		.loc 2 447 0
 1619 002a 054B     		ldr	r3, .L84+8
 1620 002c 5B68     		ldr	r3, [r3, #4]
 448:Generated_Source\PSoC4/RTC_1.c **** }
 1621              		.loc 2 448 0
 1622 002e 1800     		movs	r0, r3
 1623 0030 BD46     		mov	sp, r7
 1624 0032 01B0     		add	sp, sp, #4
 1625              		@ sp needed
 1626 0034 90BD     		pop	{r4, r7, pc}
 1627              	.L85:
 1628 0036 C046     		.align	2
 1629              	.L84:
 1630 0038 08000000 		.word	RTC_1_dstTimeOffset
 1631 003c 00000000 		.word	RTC_1_unixTime
 1632 0040 00000000 		.word	RTC_1_currentTimeDate
 1633              		.cfi_endproc
 1634              	.LFE42:
 1635              		.size	RTC_1_GetDate, .-RTC_1_GetDate
 1636              		.section	.text.RTC_1_ReadStatus,"ax",%progbits
 1637              		.align	2
 1638              		.global	RTC_1_ReadStatus
 1639              		.code	16
 1640              		.thumb_func
 1641              		.type	RTC_1_ReadStatus, %function
 1642              	RTC_1_ReadStatus:
 1643              	.LFB43:
 449:Generated_Source\PSoC4/RTC_1.c **** 
 450:Generated_Source\PSoC4/RTC_1.c **** 
 451:Generated_Source\PSoC4/RTC_1.c **** #if(0u != RTC_1_INITIAL_ALARM_STATUS)
 452:Generated_Source\PSoC4/RTC_1.c ****     /*******************************************************************************
 453:Generated_Source\PSoC4/RTC_1.c ****     * Function Name: RTC_1_SetAlarmDateAndTime
 454:Generated_Source\PSoC4/RTC_1.c ****     ****************************************************************************//**
 455:Generated_Source\PSoC4/RTC_1.c ****     *
 456:Generated_Source\PSoC4/RTC_1.c ****     * Writes the time and date values as the current alarm time and date.
 457:Generated_Source\PSoC4/RTC_1.c ****     *
 458:Generated_Source\PSoC4/RTC_1.c ****     * \param alarmTime
 459:Generated_Source\PSoC4/RTC_1.c ****     * The pointer to the RTC_1_date_time global structure 
 460:Generated_Source\PSoC4/RTC_1.c ****     * where new values of the alarm time and date are stored, 
 461:Generated_Source\PSoC4/RTC_1.c ****     * see \ref RTC_1_DATE_TIME.
 462:Generated_Source\PSoC4/RTC_1.c ****     *
 463:Generated_Source\PSoC4/RTC_1.c ****     * \note
 464:Generated_Source\PSoC4/RTC_1.c ****     * Invalid time entries are written with "00:00:00:00" for the 24-hour format 
 465:Generated_Source\PSoC4/RTC_1.c ****     * and "AM 12:00:00:00" for the 12-hour format. Invalid date entries are 
 466:Generated_Source\PSoC4/RTC_1.c ****     * written with a date equivalent to 01-JAN-2000.
 467:Generated_Source\PSoC4/RTC_1.c ****     *
 468:Generated_Source\PSoC4/RTC_1.c ****     *******************************************************************************/
 469:Generated_Source\PSoC4/RTC_1.c ****     void RTC_1_SetAlarmDateAndTime(const RTC_1_DATE_TIME* alarmTime)
 470:Generated_Source\PSoC4/RTC_1.c ****     {
 471:Generated_Source\PSoC4/RTC_1.c ****         RTC_1_alarmCfgTimeDate = *alarmTime;
 472:Generated_Source\PSoC4/RTC_1.c ****         RTC_1_unixTimeAlarm = 
 473:Generated_Source\PSoC4/RTC_1.c ****         RTC_1_ConstructUnixAlarmTime(alarmTime, (uint8)RTC_1_alarmCfgMask);
ARM GAS  C:\Users\7709\AppData\Local\Temp\ccQ2UUYk.s 			page 63


 474:Generated_Source\PSoC4/RTC_1.c ****     }
 475:Generated_Source\PSoC4/RTC_1.c **** 
 476:Generated_Source\PSoC4/RTC_1.c **** 
 477:Generated_Source\PSoC4/RTC_1.c ****     /*******************************************************************************
 478:Generated_Source\PSoC4/RTC_1.c ****     * Function Name: RTC_1_GetAlarmDateAndTime
 479:Generated_Source\PSoC4/RTC_1.c ****     ****************************************************************************//**
 480:Generated_Source\PSoC4/RTC_1.c ****     *
 481:Generated_Source\PSoC4/RTC_1.c ****     * Reads the current alarm time and date.
 482:Generated_Source\PSoC4/RTC_1.c ****     *
 483:Generated_Source\PSoC4/RTC_1.c ****     * \param alarmTimeDate
 484:Generated_Source\PSoC4/RTC_1.c ****     * The pointer to the RTC_1_date_time structure to which the alarm 
 485:Generated_Source\PSoC4/RTC_1.c ****     * date and time are returned, see \ref RTC_1_DATE_TIME.
 486:Generated_Source\PSoC4/RTC_1.c ****     *
 487:Generated_Source\PSoC4/RTC_1.c ****     *******************************************************************************/
 488:Generated_Source\PSoC4/RTC_1.c ****     void RTC_1_GetAlarmDateAndTime(RTC_1_DATE_TIME* alarmTimeDate)
 489:Generated_Source\PSoC4/RTC_1.c ****     {
 490:Generated_Source\PSoC4/RTC_1.c ****         *alarmTimeDate = RTC_1_alarmCfgTimeDate;
 491:Generated_Source\PSoC4/RTC_1.c ****     }
 492:Generated_Source\PSoC4/RTC_1.c **** 
 493:Generated_Source\PSoC4/RTC_1.c **** 
 494:Generated_Source\PSoC4/RTC_1.c ****     /*******************************************************************************
 495:Generated_Source\PSoC4/RTC_1.c ****     * Function Name: RTC_1_SetAlarmMask
 496:Generated_Source\PSoC4/RTC_1.c ****     ****************************************************************************//**
 497:Generated_Source\PSoC4/RTC_1.c ****     *
 498:Generated_Source\PSoC4/RTC_1.c ****     * Writes the Alarm Mask software register with one bit per time/date entry.
 499:Generated_Source\PSoC4/RTC_1.c ****     * The alarm is true when all masked time/date values match the Alarm values.
 500:Generated_Source\PSoC4/RTC_1.c ****     * Generated only if the alarm functionality is enabled.
 501:Generated_Source\PSoC4/RTC_1.c ****     *
 502:Generated_Source\PSoC4/RTC_1.c ****     * \param mask
 503:Generated_Source\PSoC4/RTC_1.c ****     * The Alarm Mask software register value. The values shown below can be
 504:Generated_Source\PSoC4/RTC_1.c ****     * OR'ed and passed as an argument as well, see \ref group_rtc_alarm_mask.
 505:Generated_Source\PSoC4/RTC_1.c ****     *
 506:Generated_Source\PSoC4/RTC_1.c ****     *******************************************************************************/
 507:Generated_Source\PSoC4/RTC_1.c ****     void RTC_1_SetAlarmMask(uint32 mask)
 508:Generated_Source\PSoC4/RTC_1.c ****     {
 509:Generated_Source\PSoC4/RTC_1.c ****         RTC_1_alarmCfgMask = (uint8)mask;
 510:Generated_Source\PSoC4/RTC_1.c ****         RTC_1_unixTimeAlarm = 
 511:Generated_Source\PSoC4/RTC_1.c ****         RTC_1_ConstructUnixAlarmTime(&RTC_1_alarmCfgTimeDate, (uint8)mask);
 512:Generated_Source\PSoC4/RTC_1.c ****     }
 513:Generated_Source\PSoC4/RTC_1.c **** 
 514:Generated_Source\PSoC4/RTC_1.c **** 
 515:Generated_Source\PSoC4/RTC_1.c ****     /*******************************************************************************
 516:Generated_Source\PSoC4/RTC_1.c ****     * Function Name: RTC_1_GetAlarmMask
 517:Generated_Source\PSoC4/RTC_1.c ****     ****************************************************************************//**
 518:Generated_Source\PSoC4/RTC_1.c ****     *
 519:Generated_Source\PSoC4/RTC_1.c ****     * Reads the Alarm Mask software register. Generated only if the alarm 
 520:Generated_Source\PSoC4/RTC_1.c ****     * functionality is enabled, see \ref group_rtc_alarm_mask.
 521:Generated_Source\PSoC4/RTC_1.c ****     *
 522:Generated_Source\PSoC4/RTC_1.c ****     *******************************************************************************/
 523:Generated_Source\PSoC4/RTC_1.c ****     uint32 RTC_1_GetAlarmMask(void)
 524:Generated_Source\PSoC4/RTC_1.c ****     {
 525:Generated_Source\PSoC4/RTC_1.c ****         return((uint32)RTC_1_alarmCfgMask);
 526:Generated_Source\PSoC4/RTC_1.c ****     }
 527:Generated_Source\PSoC4/RTC_1.c **** 
 528:Generated_Source\PSoC4/RTC_1.c **** 
 529:Generated_Source\PSoC4/RTC_1.c ****     /*******************************************************************************
 530:Generated_Source\PSoC4/RTC_1.c ****     * Function Name: RTC_1_GetAlarmStatus
ARM GAS  C:\Users\7709\AppData\Local\Temp\ccQ2UUYk.s 			page 64


 531:Generated_Source\PSoC4/RTC_1.c ****     ****************************************************************************//**
 532:Generated_Source\PSoC4/RTC_1.c ****     *
 533:Generated_Source\PSoC4/RTC_1.c ****     *  Returns the alarm status of RTC.
 534:Generated_Source\PSoC4/RTC_1.c ****     *
 535:Generated_Source\PSoC4/RTC_1.c ****     * \return
 536:Generated_Source\PSoC4/RTC_1.c ****     * The Alarm active status. This bit is high when the current time and date 
 537:Generated_Source\PSoC4/RTC_1.c ****     * match the alarm time and date. <br>
 538:Generated_Source\PSoC4/RTC_1.c ****     * 0 - The Alarm status is not active <br>
 539:Generated_Source\PSoC4/RTC_1.c ****     * 1 - The Alarm status is active.
 540:Generated_Source\PSoC4/RTC_1.c ****     *
 541:Generated_Source\PSoC4/RTC_1.c ****     *******************************************************************************/
 542:Generated_Source\PSoC4/RTC_1.c ****     uint32 RTC_1_GetAlarmStatus(void)
 543:Generated_Source\PSoC4/RTC_1.c ****     {
 544:Generated_Source\PSoC4/RTC_1.c ****         return((0uL != (RTC_1_currentTimeDate.status & (1uL << RTC_1_STATUS_ALARM_OFFSET))) ?
 545:Generated_Source\PSoC4/RTC_1.c ****                 1uL : 
 546:Generated_Source\PSoC4/RTC_1.c ****                 0uL);
 547:Generated_Source\PSoC4/RTC_1.c ****     }
 548:Generated_Source\PSoC4/RTC_1.c **** 
 549:Generated_Source\PSoC4/RTC_1.c **** 
 550:Generated_Source\PSoC4/RTC_1.c ****     /*******************************************************************************
 551:Generated_Source\PSoC4/RTC_1.c ****     * Function Name: RTC_1_ClearAlarmStatus
 552:Generated_Source\PSoC4/RTC_1.c ****     ****************************************************************************//**
 553:Generated_Source\PSoC4/RTC_1.c ****     *
 554:Generated_Source\PSoC4/RTC_1.c ****     *  Clears the alarm status of RTC.
 555:Generated_Source\PSoC4/RTC_1.c ****     *
 556:Generated_Source\PSoC4/RTC_1.c ****     * \note
 557:Generated_Source\PSoC4/RTC_1.c ****     * The Alarm active (AA) flag clears after read. This bit will be set in the next
 558:Generated_Source\PSoC4/RTC_1.c ****     * alarm match event only. If Alarm is set on only minutes and the alarm
 559:Generated_Source\PSoC4/RTC_1.c ****     * minutes is 20 minutes - the alarm triggers once every 20th minute of
 560:Generated_Source\PSoC4/RTC_1.c ****     * every hour.
 561:Generated_Source\PSoC4/RTC_1.c ****     *
 562:Generated_Source\PSoC4/RTC_1.c ****     *******************************************************************************/
 563:Generated_Source\PSoC4/RTC_1.c ****     void RTC_1_ClearAlarmStatus(void)
 564:Generated_Source\PSoC4/RTC_1.c ****     {
 565:Generated_Source\PSoC4/RTC_1.c ****         RTC_1_currentTimeDate.status &= (~(1uL << RTC_1_STATUS_ALARM_OFFSET));
 566:Generated_Source\PSoC4/RTC_1.c ****         RTC_1_alarmCurStatus = 0u;
 567:Generated_Source\PSoC4/RTC_1.c ****     }
 568:Generated_Source\PSoC4/RTC_1.c **** 
 569:Generated_Source\PSoC4/RTC_1.c **** 
 570:Generated_Source\PSoC4/RTC_1.c ****     /*******************************************************************************
 571:Generated_Source\PSoC4/RTC_1.c ****     * Function Name: RTC_1_SetAlarmHandler
 572:Generated_Source\PSoC4/RTC_1.c ****     ****************************************************************************//**
 573:Generated_Source\PSoC4/RTC_1.c ****     *
 574:Generated_Source\PSoC4/RTC_1.c ****     *  This API sets the function to be called when the alarm goes off / triggers.
 575:Generated_Source\PSoC4/RTC_1.c ****     *  This API is generated only if the alarm functionality is enabled in the
 576:Generated_Source\PSoC4/RTC_1.c ****     *  customizer.
 577:Generated_Source\PSoC4/RTC_1.c ****     *
 578:Generated_Source\PSoC4/RTC_1.c ****     * \param CallbackFunction
 579:Generated_Source\PSoC4/RTC_1.c ****     * The callback function address.
 580:Generated_Source\PSoC4/RTC_1.c ****     *
 581:Generated_Source\PSoC4/RTC_1.c ****     * \return
 582:Generated_Source\PSoC4/RTC_1.c ****     * A previous callback function address.
 583:Generated_Source\PSoC4/RTC_1.c ****     *
 584:Generated_Source\PSoC4/RTC_1.c ****     *******************************************************************************/
 585:Generated_Source\PSoC4/RTC_1.c ****     void* RTC_1_SetAlarmHandler(void (*CallbackFunction)(void))
 586:Generated_Source\PSoC4/RTC_1.c ****     {
 587:Generated_Source\PSoC4/RTC_1.c ****         void (*tmpCallbackPtr)(void);
ARM GAS  C:\Users\7709\AppData\Local\Temp\ccQ2UUYk.s 			page 65


 588:Generated_Source\PSoC4/RTC_1.c **** 
 589:Generated_Source\PSoC4/RTC_1.c ****         tmpCallbackPtr = RTC_1_alarmCallbackPtr;
 590:Generated_Source\PSoC4/RTC_1.c ****         RTC_1_alarmCallbackPtr = CallbackFunction;
 591:Generated_Source\PSoC4/RTC_1.c **** 
 592:Generated_Source\PSoC4/RTC_1.c ****         return((void*)tmpCallbackPtr);
 593:Generated_Source\PSoC4/RTC_1.c ****     }
 594:Generated_Source\PSoC4/RTC_1.c **** 
 595:Generated_Source\PSoC4/RTC_1.c **** 
 596:Generated_Source\PSoC4/RTC_1.c ****     /*******************************************************************************
 597:Generated_Source\PSoC4/RTC_1.c ****     * Function Name: RTC_1_GetNexAlarmTime
 598:Generated_Source\PSoC4/RTC_1.c ****     ****************************************************************************//**
 599:Generated_Source\PSoC4/RTC_1.c ****     *
 600:Generated_Source\PSoC4/RTC_1.c ****     *  This is an internal function that calculates the time of the next alarm
 601:Generated_Source\PSoC4/RTC_1.c ****     *  in the UNIX format taking into account the current "Alarm Config Mask".
 602:Generated_Source\PSoC4/RTC_1.c ****     *
 603:Generated_Source\PSoC4/RTC_1.c ****     * \param curUnixTime
 604:Generated_Source\PSoC4/RTC_1.c ****     * The current time value in the UNIX format.
 605:Generated_Source\PSoC4/RTC_1.c ****     *
 606:Generated_Source\PSoC4/RTC_1.c ****     * \param alarmCfgMask
 607:Generated_Source\PSoC4/RTC_1.c ****     * The current Alarm Config Mask.
 608:Generated_Source\PSoC4/RTC_1.c ****     *
 609:Generated_Source\PSoC4/RTC_1.c ****     * \return
 610:Generated_Source\PSoC4/RTC_1.c ****     * Returns time of the next alarm in the UNIX format.
 611:Generated_Source\PSoC4/RTC_1.c ****     *
 612:Generated_Source\PSoC4/RTC_1.c ****     *******************************************************************************/
 613:Generated_Source\PSoC4/RTC_1.c ****     uint64 RTC_1_GetNexAlarmTime(uint64 curUnixTime, uint8 alarmCfgMask)
 614:Generated_Source\PSoC4/RTC_1.c ****     {
 615:Generated_Source\PSoC4/RTC_1.c ****         uint32 prevVal;
 616:Generated_Source\PSoC4/RTC_1.c ****         uint32 nextVal;
 617:Generated_Source\PSoC4/RTC_1.c ****         uint32 carryFlag;
 618:Generated_Source\PSoC4/RTC_1.c ****         uint32 daysInMonth;
 619:Generated_Source\PSoC4/RTC_1.c ****         RTC_1_DATE_TIME curDateTime;
 620:Generated_Source\PSoC4/RTC_1.c **** 
 621:Generated_Source\PSoC4/RTC_1.c ****         carryFlag = 1u;
 622:Generated_Source\PSoC4/RTC_1.c ****         RTC_1_UnixToDateTime(&curDateTime, curUnixTime, (uint32)RTC_1_24_HOURS_FORMAT);
 623:Generated_Source\PSoC4/RTC_1.c **** 
 624:Generated_Source\PSoC4/RTC_1.c ****         /* Calculates Second value of next alarm time based on current time and Alarm Config Mask *
 625:Generated_Source\PSoC4/RTC_1.c ****         if(0uL != ((~((uint32)alarmCfgMask)) & RTC_1_ALARM_SEC_MASK))
 626:Generated_Source\PSoC4/RTC_1.c ****         {
 627:Generated_Source\PSoC4/RTC_1.c ****             prevVal = RTC_1_GetSecond(curDateTime.time);
 628:Generated_Source\PSoC4/RTC_1.c ****             nextVal = RTC_1_GetNextMinSec(prevVal);
 629:Generated_Source\PSoC4/RTC_1.c ****             curDateTime.time = RTC_1_SetSecond(curDateTime.time, nextVal);
 630:Generated_Source\PSoC4/RTC_1.c ****             carryFlag = (nextVal < prevVal) ? 1u : 0u;
 631:Generated_Source\PSoC4/RTC_1.c ****         }
 632:Generated_Source\PSoC4/RTC_1.c **** 
 633:Generated_Source\PSoC4/RTC_1.c ****         /* Calculates Minute value of next alarm time based on current time and Alarm Config Mask *
 634:Generated_Source\PSoC4/RTC_1.c ****         if((0uL != carryFlag) && (0uL != ((~((uint32)alarmCfgMask)) & RTC_1_ALARM_MIN_MASK)))
 635:Generated_Source\PSoC4/RTC_1.c ****         {
 636:Generated_Source\PSoC4/RTC_1.c ****             prevVal = RTC_1_GetMinutes(curDateTime.time);
 637:Generated_Source\PSoC4/RTC_1.c ****             nextVal = RTC_1_GetNextMinSec(prevVal);
 638:Generated_Source\PSoC4/RTC_1.c ****             curDateTime.time = RTC_1_SetMinutes(curDateTime.time, nextVal);
 639:Generated_Source\PSoC4/RTC_1.c ****             carryFlag = (nextVal < prevVal) ? 1u : 0u;
 640:Generated_Source\PSoC4/RTC_1.c ****         }
 641:Generated_Source\PSoC4/RTC_1.c **** 
 642:Generated_Source\PSoC4/RTC_1.c ****         /* Calculates Hour value of next alarm time based on current time and Alarm Config Mask */
 643:Generated_Source\PSoC4/RTC_1.c ****         if((0uL != carryFlag) && (0uL != ((~((uint32)alarmCfgMask)) & RTC_1_ALARM_HOUR_MASK)))
 644:Generated_Source\PSoC4/RTC_1.c ****         {
ARM GAS  C:\Users\7709\AppData\Local\Temp\ccQ2UUYk.s 			page 66


 645:Generated_Source\PSoC4/RTC_1.c ****             prevVal = RTC_1_GetHours(curDateTime.time);
 646:Generated_Source\PSoC4/RTC_1.c ****             nextVal = RTC_1_GetNextHour(prevVal);
 647:Generated_Source\PSoC4/RTC_1.c ****             curDateTime.time = RTC_1_SetHours(curDateTime.time, nextVal);
 648:Generated_Source\PSoC4/RTC_1.c ****             carryFlag = (nextVal < prevVal) ? 1u : 0u;
 649:Generated_Source\PSoC4/RTC_1.c ****         }
 650:Generated_Source\PSoC4/RTC_1.c **** 
 651:Generated_Source\PSoC4/RTC_1.c ****         /* Calculates Day value of next alarm time based on current time and Alarm Config Mask */
 652:Generated_Source\PSoC4/RTC_1.c ****         if((0uL != carryFlag) && (0uL != ((~((uint32)alarmCfgMask)) & RTC_1_ALARM_DAYOFMONTH_MASK))
 653:Generated_Source\PSoC4/RTC_1.c ****         {
 654:Generated_Source\PSoC4/RTC_1.c ****             prevVal = RTC_1_GetDay(curDateTime.date);
 655:Generated_Source\PSoC4/RTC_1.c ****             if(0u != (alarmCfgMask & RTC_1_ALARM_DAYOFWEEK_MASK))
 656:Generated_Source\PSoC4/RTC_1.c ****             {
 657:Generated_Source\PSoC4/RTC_1.c ****                 daysInMonth = RTC_1_DaysInMonth(RTC_1_GetMonth(curDateTime.date),
 658:Generated_Source\PSoC4/RTC_1.c ****                                                            RTC_1_GetYear(curDateTime.date));
 659:Generated_Source\PSoC4/RTC_1.c ****                 nextVal = prevVal + RTC_1_DAYS_PER_WEEK;
 660:Generated_Source\PSoC4/RTC_1.c ****                 nextVal = (nextVal > daysInMonth) ? (nextVal - daysInMonth) : nextVal;
 661:Generated_Source\PSoC4/RTC_1.c ****             }
 662:Generated_Source\PSoC4/RTC_1.c ****             else
 663:Generated_Source\PSoC4/RTC_1.c ****             {
 664:Generated_Source\PSoC4/RTC_1.c ****                 nextVal = RTC_1_GetNextDay(RTC_1_GetYear(curDateTime.date),
 665:Generated_Source\PSoC4/RTC_1.c ****                                                       RTC_1_GetMonth(curDateTime.date),
 666:Generated_Source\PSoC4/RTC_1.c ****                                                       RTC_1_GetDay(curDateTime.date),
 667:Generated_Source\PSoC4/RTC_1.c ****                                                       (~((uint32)alarmCfgMask)));
 668:Generated_Source\PSoC4/RTC_1.c ****             }
 669:Generated_Source\PSoC4/RTC_1.c ****             curDateTime.date = RTC_1_SetDay(curDateTime.date, nextVal);
 670:Generated_Source\PSoC4/RTC_1.c ****             carryFlag = (nextVal < prevVal) ? 1u : 0u;
 671:Generated_Source\PSoC4/RTC_1.c ****         }
 672:Generated_Source\PSoC4/RTC_1.c **** 
 673:Generated_Source\PSoC4/RTC_1.c ****         /* Calculates Month value of next alarm time based on current time and Alarm Config Mask */
 674:Generated_Source\PSoC4/RTC_1.c ****         if((0uL != carryFlag) && (0uL != ((~((uint32)alarmCfgMask)) & RTC_1_ALARM_MONTH_MASK)))
 675:Generated_Source\PSoC4/RTC_1.c ****         {
 676:Generated_Source\PSoC4/RTC_1.c ****             prevVal = RTC_1_GetMonth(curDateTime.date);
 677:Generated_Source\PSoC4/RTC_1.c ****             nextVal = RTC_1_GetNextMonth(prevVal);
 678:Generated_Source\PSoC4/RTC_1.c ****             curDateTime.date = RTC_1_SetMonth(curDateTime.date, nextVal);
 679:Generated_Source\PSoC4/RTC_1.c ****             carryFlag = (nextVal < prevVal) ? 1u : 0u;
 680:Generated_Source\PSoC4/RTC_1.c ****         }
 681:Generated_Source\PSoC4/RTC_1.c **** 
 682:Generated_Source\PSoC4/RTC_1.c ****         /* Calculates Year value of next alarm time based on current time and Alarm Config Mask */
 683:Generated_Source\PSoC4/RTC_1.c ****         if((0uL != carryFlag) && (0uL != ((~((uint32)alarmCfgMask)) & RTC_1_ALARM_YEAR_MASK)))
 684:Generated_Source\PSoC4/RTC_1.c ****         {
 685:Generated_Source\PSoC4/RTC_1.c ****             prevVal = RTC_1_GetYear(curDateTime.date);
 686:Generated_Source\PSoC4/RTC_1.c ****             nextVal = RTC_1_GetNextYear(prevVal);
 687:Generated_Source\PSoC4/RTC_1.c ****             curDateTime.date = RTC_1_SetYear(curDateTime.date, nextVal);
 688:Generated_Source\PSoC4/RTC_1.c ****         }
 689:Generated_Source\PSoC4/RTC_1.c **** 
 690:Generated_Source\PSoC4/RTC_1.c ****         return(RTC_1_DateTimeToUnix(curDateTime.date, curDateTime.time));
 691:Generated_Source\PSoC4/RTC_1.c ****     }
 692:Generated_Source\PSoC4/RTC_1.c **** 
 693:Generated_Source\PSoC4/RTC_1.c **** 
 694:Generated_Source\PSoC4/RTC_1.c ****     /*******************************************************************************
 695:Generated_Source\PSoC4/RTC_1.c ****     * Function Name: RTC_1_ConstructUnixAlarmTime
 696:Generated_Source\PSoC4/RTC_1.c ****     ****************************************************************************//**
 697:Generated_Source\PSoC4/RTC_1.c ****     *
 698:Generated_Source\PSoC4/RTC_1.c ****     * This is an internal function that calculates the time of the first alarm
 699:Generated_Source\PSoC4/RTC_1.c ****     * in the UNIX format taking into account the current "Alarm Config Mask".
 700:Generated_Source\PSoC4/RTC_1.c ****     *
 701:Generated_Source\PSoC4/RTC_1.c ****     * \param alarmTime
ARM GAS  C:\Users\7709\AppData\Local\Temp\ccQ2UUYk.s 			page 67


 702:Generated_Source\PSoC4/RTC_1.c ****     * Desired alarm time in the regular time format, 
 703:Generated_Source\PSoC4/RTC_1.c ****     * see \ref RTC_1_DATE_TIME
 704:Generated_Source\PSoC4/RTC_1.c ****     *
 705:Generated_Source\PSoC4/RTC_1.c ****     * \param alarmCfgMask
 706:Generated_Source\PSoC4/RTC_1.c ****     * The current Alarm Config Mask.
 707:Generated_Source\PSoC4/RTC_1.c ****     *
 708:Generated_Source\PSoC4/RTC_1.c ****     * \return
 709:Generated_Source\PSoC4/RTC_1.c ****     * time of the first alarm in the UNIX format.
 710:Generated_Source\PSoC4/RTC_1.c ****     *
 711:Generated_Source\PSoC4/RTC_1.c ****     *******************************************************************************/
 712:Generated_Source\PSoC4/RTC_1.c ****     uint64 RTC_1_ConstructUnixAlarmTime(const RTC_1_DATE_TIME* alarmTime, uint8 alarmCfgMask)
 713:Generated_Source\PSoC4/RTC_1.c ****     {
 714:Generated_Source\PSoC4/RTC_1.c ****         uint32 tmpCurVal;
 715:Generated_Source\PSoC4/RTC_1.c ****         uint32 tmpNextVal;
 716:Generated_Source\PSoC4/RTC_1.c ****         uint32 carryFlag;
 717:Generated_Source\PSoC4/RTC_1.c ****         uint32 tmpAlarmDate;
 718:Generated_Source\PSoC4/RTC_1.c ****         uint32 tmpAlarmTime;
 719:Generated_Source\PSoC4/RTC_1.c ****         uint32 daysInMonth;
 720:Generated_Source\PSoC4/RTC_1.c ****         RTC_1_DATE_TIME curDateTime;
 721:Generated_Source\PSoC4/RTC_1.c **** 
 722:Generated_Source\PSoC4/RTC_1.c ****         tmpAlarmDate = 0u;
 723:Generated_Source\PSoC4/RTC_1.c ****         tmpAlarmTime = 0u;
 724:Generated_Source\PSoC4/RTC_1.c ****         RTC_1_UnixToDateTime(&curDateTime, RTC_1_unixTime, 
 725:Generated_Source\PSoC4/RTC_1.c ****                                        (uint32)RTC_1_24_HOURS_FORMAT);
 726:Generated_Source\PSoC4/RTC_1.c **** 
 727:Generated_Source\PSoC4/RTC_1.c ****         /* Calculates Seconds value of first Alarm based on current time and Alarm Config Mask */
 728:Generated_Source\PSoC4/RTC_1.c ****         tmpCurVal =  RTC_1_GetSecond(curDateTime.time);
 729:Generated_Source\PSoC4/RTC_1.c ****         tmpNextVal = RTC_1_GetSecond(alarmTime->time);
 730:Generated_Source\PSoC4/RTC_1.c ****         carryFlag = (tmpCurVal > tmpNextVal) ? 1u : 0u;
 731:Generated_Source\PSoC4/RTC_1.c ****         if(0u != ((~((uint32)alarmCfgMask)) & RTC_1_ALARM_SEC_MASK))
 732:Generated_Source\PSoC4/RTC_1.c ****         {
 733:Generated_Source\PSoC4/RTC_1.c ****             tmpNextVal = (0u != carryFlag) ? 0u : tmpCurVal;
 734:Generated_Source\PSoC4/RTC_1.c ****         }
 735:Generated_Source\PSoC4/RTC_1.c ****         tmpAlarmTime = RTC_1_SetSecond(tmpAlarmTime, tmpNextVal);
 736:Generated_Source\PSoC4/RTC_1.c **** 
 737:Generated_Source\PSoC4/RTC_1.c ****         /* Calculates Minutes value of first Alarm based on current time and Alarm Config Mask */
 738:Generated_Source\PSoC4/RTC_1.c ****         tmpCurVal  = RTC_1_GetMinutes(curDateTime.time);
 739:Generated_Source\PSoC4/RTC_1.c ****         if(0u != ((~((uint32)alarmCfgMask)) & RTC_1_ALARM_MIN_MASK))
 740:Generated_Source\PSoC4/RTC_1.c ****         {
 741:Generated_Source\PSoC4/RTC_1.c ****             tmpNextVal = (0u != carryFlag) ? RTC_1_GetNextMinSec(tmpCurVal) : tmpCurVal;
 742:Generated_Source\PSoC4/RTC_1.c ****         }
 743:Generated_Source\PSoC4/RTC_1.c ****         else
 744:Generated_Source\PSoC4/RTC_1.c ****         {
 745:Generated_Source\PSoC4/RTC_1.c ****             tmpNextVal = RTC_1_GetMinutes(alarmTime->time);
 746:Generated_Source\PSoC4/RTC_1.c ****         }
 747:Generated_Source\PSoC4/RTC_1.c ****         carryFlag  = (tmpNextVal < tmpCurVal) ? 1u : 0u;
 748:Generated_Source\PSoC4/RTC_1.c ****         tmpAlarmTime =  RTC_1_SetMinutes(tmpAlarmTime, tmpNextVal);
 749:Generated_Source\PSoC4/RTC_1.c **** 
 750:Generated_Source\PSoC4/RTC_1.c ****         /* Calculates Hours value of first Alarm based on current time and Alarm Config Mask */
 751:Generated_Source\PSoC4/RTC_1.c ****         tmpCurVal  = RTC_1_GetHours(curDateTime.time);
 752:Generated_Source\PSoC4/RTC_1.c ****         if(0u != ((~((uint32)alarmCfgMask)) & RTC_1_ALARM_HOUR_MASK))
 753:Generated_Source\PSoC4/RTC_1.c ****         {
 754:Generated_Source\PSoC4/RTC_1.c ****             tmpNextVal = (0u != carryFlag) ? RTC_1_GetNextHour(tmpCurVal) : tmpCurVal;
 755:Generated_Source\PSoC4/RTC_1.c ****         }
 756:Generated_Source\PSoC4/RTC_1.c ****         else
 757:Generated_Source\PSoC4/RTC_1.c ****         {
 758:Generated_Source\PSoC4/RTC_1.c ****             tmpNextVal = RTC_1_GetHours(alarmTime->time);
ARM GAS  C:\Users\7709\AppData\Local\Temp\ccQ2UUYk.s 			page 68


 759:Generated_Source\PSoC4/RTC_1.c ****             if((uint32)RTC_1_24_HOURS_FORMAT != RTC_1_GetTimeFormat(alarmTime->time))
 760:Generated_Source\PSoC4/RTC_1.c ****             {
 761:Generated_Source\PSoC4/RTC_1.c ****                 if((uint32)RTC_1_AM != RTC_1_GetAmPm(alarmTime->time))
 762:Generated_Source\PSoC4/RTC_1.c ****                 {
 763:Generated_Source\PSoC4/RTC_1.c ****                     tmpNextVal += RTC_1_HOURS_PER_HALF_DAY;
 764:Generated_Source\PSoC4/RTC_1.c ****                 }
 765:Generated_Source\PSoC4/RTC_1.c ****             }
 766:Generated_Source\PSoC4/RTC_1.c ****         }
 767:Generated_Source\PSoC4/RTC_1.c ****         carryFlag  = (tmpNextVal < tmpCurVal) ? 1u : 0u;
 768:Generated_Source\PSoC4/RTC_1.c ****         tmpAlarmTime =  RTC_1_SetHours(tmpAlarmTime, tmpNextVal);
 769:Generated_Source\PSoC4/RTC_1.c **** 
 770:Generated_Source\PSoC4/RTC_1.c ****         /* Calculates Day value of first Alarm based on current time and Alarm Config Mask */
 771:Generated_Source\PSoC4/RTC_1.c ****         tmpCurVal  = RTC_1_GetDay(curDateTime.date);
 772:Generated_Source\PSoC4/RTC_1.c ****         tmpNextVal = RTC_1_GetDay(alarmTime->date);
 773:Generated_Source\PSoC4/RTC_1.c ****         if(0u != ((~((uint32)alarmCfgMask)) & RTC_1_ALARM_DAYOFMONTH_MASK))
 774:Generated_Source\PSoC4/RTC_1.c ****         {
 775:Generated_Source\PSoC4/RTC_1.c ****             if(0u != (alarmCfgMask & RTC_1_ALARM_DAYOFWEEK_MASK))
 776:Generated_Source\PSoC4/RTC_1.c ****             {
 777:Generated_Source\PSoC4/RTC_1.c ****                 daysInMonth = RTC_1_DaysInMonth(RTC_1_GetMonth(curDateTime.date),
 778:Generated_Source\PSoC4/RTC_1.c ****                                                            RTC_1_GetYear(curDateTime.date));
 779:Generated_Source\PSoC4/RTC_1.c ****                 tmpNextVal = 
 780:Generated_Source\PSoC4/RTC_1.c ****                 (curDateTime.dayOfWeek <= alarmTime->dayOfWeek) ? (alarmTime->dayOfWeek - curDateTi
 781:Generated_Source\PSoC4/RTC_1.c ****                                 ((RTC_1_DAYS_PER_WEEK - curDateTime.dayOfWeek) + alarmTime->dayOfWe
 782:Generated_Source\PSoC4/RTC_1.c ****                 tmpNextVal = tmpCurVal + tmpNextVal;
 783:Generated_Source\PSoC4/RTC_1.c ****                 tmpNextVal = (tmpNextVal > daysInMonth) ? (tmpNextVal - daysInMonth) : tmpNextVal;
 784:Generated_Source\PSoC4/RTC_1.c ****             }
 785:Generated_Source\PSoC4/RTC_1.c ****             else
 786:Generated_Source\PSoC4/RTC_1.c ****             {
 787:Generated_Source\PSoC4/RTC_1.c ****                 tmpNextVal = 
 788:Generated_Source\PSoC4/RTC_1.c ****                 (0u == carryFlag) ? tmpCurVal : RTC_1_GetNextDay(RTC_1_GetYear(curDateTime.date),
 789:Generated_Source\PSoC4/RTC_1.c ****                                                 RTC_1_GetMonth(curDateTime.date),
 790:Generated_Source\PSoC4/RTC_1.c ****                                                 tmpCurVal,
 791:Generated_Source\PSoC4/RTC_1.c ****                                                 RTC_1_ALARM_DAYOFMONTH_MASK);
 792:Generated_Source\PSoC4/RTC_1.c ****             }
 793:Generated_Source\PSoC4/RTC_1.c ****         }
 794:Generated_Source\PSoC4/RTC_1.c ****         carryFlag  = (tmpNextVal < tmpCurVal) ? 1u : 0u;
 795:Generated_Source\PSoC4/RTC_1.c ****         tmpAlarmDate =  RTC_1_SetDay(tmpAlarmDate, tmpNextVal);
 796:Generated_Source\PSoC4/RTC_1.c **** 
 797:Generated_Source\PSoC4/RTC_1.c ****         /* Calculates Month value of first Alarm based on current time and Alarm Config Mask */
 798:Generated_Source\PSoC4/RTC_1.c ****         tmpCurVal  = RTC_1_GetMonth(curDateTime.date);
 799:Generated_Source\PSoC4/RTC_1.c ****         if(0u != ((~((uint32)alarmCfgMask)) & RTC_1_ALARM_MONTH_MASK))
 800:Generated_Source\PSoC4/RTC_1.c ****         {
 801:Generated_Source\PSoC4/RTC_1.c ****             tmpNextVal = (0u != carryFlag) ? RTC_1_GetNextMonth(tmpCurVal) : tmpCurVal;
 802:Generated_Source\PSoC4/RTC_1.c ****         }
 803:Generated_Source\PSoC4/RTC_1.c ****         else
 804:Generated_Source\PSoC4/RTC_1.c ****         {
 805:Generated_Source\PSoC4/RTC_1.c ****             tmpNextVal = RTC_1_GetMonth(alarmTime->date);
 806:Generated_Source\PSoC4/RTC_1.c ****         }
 807:Generated_Source\PSoC4/RTC_1.c ****         carryFlag  = (tmpNextVal < tmpCurVal) ? 1u : 0u;
 808:Generated_Source\PSoC4/RTC_1.c ****         tmpAlarmDate =  RTC_1_SetMonth(tmpAlarmDate, tmpNextVal);
 809:Generated_Source\PSoC4/RTC_1.c **** 
 810:Generated_Source\PSoC4/RTC_1.c ****         /* Calculates Year value of first Alarm based on current time and Alarm Config Mask */
 811:Generated_Source\PSoC4/RTC_1.c ****         tmpCurVal  = RTC_1_GetYear(curDateTime.date);
 812:Generated_Source\PSoC4/RTC_1.c ****         if(0u != ((~((uint32)alarmCfgMask)) & RTC_1_ALARM_MONTH_MASK))
 813:Generated_Source\PSoC4/RTC_1.c ****         {
 814:Generated_Source\PSoC4/RTC_1.c ****             tmpNextVal = (0u != carryFlag) ? RTC_1_GetNextYear(tmpCurVal) : tmpCurVal;
 815:Generated_Source\PSoC4/RTC_1.c ****         }
ARM GAS  C:\Users\7709\AppData\Local\Temp\ccQ2UUYk.s 			page 69


 816:Generated_Source\PSoC4/RTC_1.c ****         else
 817:Generated_Source\PSoC4/RTC_1.c ****         {
 818:Generated_Source\PSoC4/RTC_1.c ****             tmpNextVal = RTC_1_GetYear(alarmTime->date);
 819:Generated_Source\PSoC4/RTC_1.c ****         }
 820:Generated_Source\PSoC4/RTC_1.c ****         tmpAlarmDate =  RTC_1_SetYear(tmpAlarmDate, tmpNextVal);
 821:Generated_Source\PSoC4/RTC_1.c **** 
 822:Generated_Source\PSoC4/RTC_1.c ****         return(RTC_1_DateTimeToUnix(tmpAlarmDate, tmpAlarmTime));
 823:Generated_Source\PSoC4/RTC_1.c ****     }
 824:Generated_Source\PSoC4/RTC_1.c **** #endif/* (0u != RTC_1_INITIAL_ALARM_STATUS) */
 825:Generated_Source\PSoC4/RTC_1.c **** 
 826:Generated_Source\PSoC4/RTC_1.c **** 
 827:Generated_Source\PSoC4/RTC_1.c **** /*******************************************************************************
 828:Generated_Source\PSoC4/RTC_1.c **** * Function Name: RTC_1_ReadStatus
 829:Generated_Source\PSoC4/RTC_1.c **** ****************************************************************************//**
 830:Generated_Source\PSoC4/RTC_1.c **** *
 831:Generated_Source\PSoC4/RTC_1.c **** * Reads the Status software register, which has flags for DST (DST),
 832:Generated_Source\PSoC4/RTC_1.c **** * Leap Year (LY), AM/PM (AM_PM).
 833:Generated_Source\PSoC4/RTC_1.c **** *
 834:Generated_Source\PSoC4/RTC_1.c **** * \return
 835:Generated_Source\PSoC4/RTC_1.c **** * The values shown below are OR'ed and returned if more than one status
 836:Generated_Source\PSoC4/RTC_1.c **** * bits are set, see \ref group_rtc_status.
 837:Generated_Source\PSoC4/RTC_1.c **** *
 838:Generated_Source\PSoC4/RTC_1.c **** * \note
 839:Generated_Source\PSoC4/RTC_1.c **** * Reading the status without sync with the date and time read may cause an
 840:Generated_Source\PSoC4/RTC_1.c **** * error due to a roll-over at AM/PM, the end of a year, the end of a day;
 841:Generated_Source\PSoC4/RTC_1.c **** * RTC_1_GetDateAndTime() API is used to obtain the status and
 842:Generated_Source\PSoC4/RTC_1.c **** * the status member of the returned structure can be checked with the masks.
 843:Generated_Source\PSoC4/RTC_1.c **** *
 844:Generated_Source\PSoC4/RTC_1.c **** *******************************************************************************/
 845:Generated_Source\PSoC4/RTC_1.c **** uint32 RTC_1_ReadStatus(void)
 846:Generated_Source\PSoC4/RTC_1.c **** {
 1644              		.loc 2 846 0
 1645              		.cfi_startproc
 1646              		@ args = 0, pretend = 0, frame = 24
 1647              		@ frame_needed = 1, uses_anonymous_args = 0
 1648 0000 80B5     		push	{r7, lr}
 1649              		.cfi_def_cfa_offset 8
 1650              		.cfi_offset 7, -8
 1651              		.cfi_offset 14, -4
 1652 0002 86B0     		sub	sp, sp, #24
 1653              		.cfi_def_cfa_offset 32
 1654 0004 00AF     		add	r7, sp, #0
 1655              		.cfi_def_cfa_register 7
 847:Generated_Source\PSoC4/RTC_1.c ****     uint32 tmpYear;
 848:Generated_Source\PSoC4/RTC_1.c ****     RTC_1_DATE_TIME tmpTimeDate;
 849:Generated_Source\PSoC4/RTC_1.c **** 
 850:Generated_Source\PSoC4/RTC_1.c ****     RTC_1_GetDateAndTime(&tmpTimeDate);
 1656              		.loc 2 850 0
 1657 0006 3B1D     		adds	r3, r7, #4
 1658 0008 1800     		movs	r0, r3
 1659 000a FFF7FEFF 		bl	RTC_1_GetDateAndTime
 851:Generated_Source\PSoC4/RTC_1.c ****     tmpYear = RTC_1_GetYear(tmpTimeDate.date);
 1660              		.loc 2 851 0
 1661 000e 3B1D     		adds	r3, r7, #4
 1662 0010 5B68     		ldr	r3, [r3, #4]
 1663 0012 1800     		movs	r0, r3
 1664 0014 FFF7FEFF 		bl	RTC_1_GetYear
ARM GAS  C:\Users\7709\AppData\Local\Temp\ccQ2UUYk.s 			page 70


 1665 0018 0300     		movs	r3, r0
 1666 001a 7B61     		str	r3, [r7, #20]
 852:Generated_Source\PSoC4/RTC_1.c **** 
 853:Generated_Source\PSoC4/RTC_1.c ****     if(0uL != RTC_1_LeapYear(tmpYear))
 1667              		.loc 2 853 0
 1668 001c 7B69     		ldr	r3, [r7, #20]
 1669 001e 1800     		movs	r0, r3
 1670 0020 FFF7FEFF 		bl	RTC_1_LeapYear
 1671 0024 031E     		subs	r3, r0, #0
 1672 0026 06D0     		beq	.L87
 854:Generated_Source\PSoC4/RTC_1.c ****     {
 855:Generated_Source\PSoC4/RTC_1.c ****         RTC_1_currentTimeDate.status |= (1uL << RTC_1_STATUS_LY_OFFSET);
 1673              		.loc 2 855 0
 1674 0028 144B     		ldr	r3, .L92
 1675 002a DB68     		ldr	r3, [r3, #12]
 1676 002c 0822     		movs	r2, #8
 1677 002e 1A43     		orrs	r2, r3
 1678 0030 124B     		ldr	r3, .L92
 1679 0032 DA60     		str	r2, [r3, #12]
 1680 0034 06E0     		b	.L88
 1681              	.L87:
 856:Generated_Source\PSoC4/RTC_1.c ****     }
 857:Generated_Source\PSoC4/RTC_1.c ****     else
 858:Generated_Source\PSoC4/RTC_1.c ****     {
 859:Generated_Source\PSoC4/RTC_1.c ****         RTC_1_currentTimeDate.status &= ~(1uL << RTC_1_STATUS_LY_OFFSET);
 1682              		.loc 2 859 0
 1683 0036 114B     		ldr	r3, .L92
 1684 0038 DB68     		ldr	r3, [r3, #12]
 1685 003a 0822     		movs	r2, #8
 1686 003c 9343     		bics	r3, r2
 1687 003e 1A00     		movs	r2, r3
 1688 0040 0E4B     		ldr	r3, .L92
 1689 0042 DA60     		str	r2, [r3, #12]
 1690              	.L88:
 860:Generated_Source\PSoC4/RTC_1.c ****     }
 861:Generated_Source\PSoC4/RTC_1.c **** 
 862:Generated_Source\PSoC4/RTC_1.c **** 
 863:Generated_Source\PSoC4/RTC_1.c ****     if(0uL != RTC_1_GetAmPm(tmpTimeDate.time))
 1691              		.loc 2 863 0
 1692 0044 3B1D     		adds	r3, r7, #4
 1693 0046 1B68     		ldr	r3, [r3]
 1694 0048 1800     		movs	r0, r3
 1695 004a FFF7FEFF 		bl	RTC_1_GetAmPm
 1696 004e 031E     		subs	r3, r0, #0
 1697 0050 06D0     		beq	.L89
 864:Generated_Source\PSoC4/RTC_1.c ****     {
 865:Generated_Source\PSoC4/RTC_1.c ****         RTC_1_currentTimeDate.status |= (1uL << RTC_1_STATUS_AM_PM_OFFSET);
 1698              		.loc 2 865 0
 1699 0052 0A4B     		ldr	r3, .L92
 1700 0054 DB68     		ldr	r3, [r3, #12]
 1701 0056 1022     		movs	r2, #16
 1702 0058 1A43     		orrs	r2, r3
 1703 005a 084B     		ldr	r3, .L92
 1704 005c DA60     		str	r2, [r3, #12]
 1705 005e 06E0     		b	.L90
 1706              	.L89:
 866:Generated_Source\PSoC4/RTC_1.c ****     }
ARM GAS  C:\Users\7709\AppData\Local\Temp\ccQ2UUYk.s 			page 71


 867:Generated_Source\PSoC4/RTC_1.c ****     else
 868:Generated_Source\PSoC4/RTC_1.c ****     {
 869:Generated_Source\PSoC4/RTC_1.c ****         RTC_1_currentTimeDate.status &= ~(1uL << RTC_1_STATUS_AM_PM_OFFSET);
 1707              		.loc 2 869 0
 1708 0060 064B     		ldr	r3, .L92
 1709 0062 DB68     		ldr	r3, [r3, #12]
 1710 0064 1022     		movs	r2, #16
 1711 0066 9343     		bics	r3, r2
 1712 0068 1A00     		movs	r2, r3
 1713 006a 044B     		ldr	r3, .L92
 1714 006c DA60     		str	r2, [r3, #12]
 1715              	.L90:
 870:Generated_Source\PSoC4/RTC_1.c ****     }
 871:Generated_Source\PSoC4/RTC_1.c **** 
 872:Generated_Source\PSoC4/RTC_1.c ****     return(RTC_1_currentTimeDate.status);
 1716              		.loc 2 872 0
 1717 006e 034B     		ldr	r3, .L92
 1718 0070 DB68     		ldr	r3, [r3, #12]
 873:Generated_Source\PSoC4/RTC_1.c **** }
 1719              		.loc 2 873 0
 1720 0072 1800     		movs	r0, r3
 1721 0074 BD46     		mov	sp, r7
 1722 0076 06B0     		add	sp, sp, #24
 1723              		@ sp needed
 1724 0078 80BD     		pop	{r7, pc}
 1725              	.L93:
 1726 007a C046     		.align	2
 1727              	.L92:
 1728 007c 00000000 		.word	RTC_1_currentTimeDate
 1729              		.cfi_endproc
 1730              	.LFE43:
 1731              		.size	RTC_1_ReadStatus, .-RTC_1_ReadStatus
 1732              		.section	.text.RTC_1_ConvertBCDToDec,"ax",%progbits
 1733              		.align	2
 1734              		.global	RTC_1_ConvertBCDToDec
 1735              		.code	16
 1736              		.thumb_func
 1737              		.type	RTC_1_ConvertBCDToDec, %function
 1738              	RTC_1_ConvertBCDToDec:
 1739              	.LFB44:
 874:Generated_Source\PSoC4/RTC_1.c **** 
 875:Generated_Source\PSoC4/RTC_1.c **** 
 876:Generated_Source\PSoC4/RTC_1.c **** #if(0u != RTC_1_INITIAL_DST_STATUS)
 877:Generated_Source\PSoC4/RTC_1.c ****     /*******************************************************************************
 878:Generated_Source\PSoC4/RTC_1.c ****     * Function Name: RTC_1_SetDSTStartTime
 879:Generated_Source\PSoC4/RTC_1.c ****     ****************************************************************************//**
 880:Generated_Source\PSoC4/RTC_1.c ****     *
 881:Generated_Source\PSoC4/RTC_1.c ****     * Stores the DST Start time.
 882:Generated_Source\PSoC4/RTC_1.c ****     *
 883:Generated_Source\PSoC4/RTC_1.c ****     * Only generated if DST is enabled. The date passed can be relative or fixed. 
 884:Generated_Source\PSoC4/RTC_1.c ****     * For a relative date, the user needs to provide a valid day of a week, a 
 885:Generated_Source\PSoC4/RTC_1.c ****     * week of a month and a month in the dstStartTime structure.
 886:Generated_Source\PSoC4/RTC_1.c ****     * For a fixed date, the user needs to enter a valid day of a month and a month 
 887:Generated_Source\PSoC4/RTC_1.c ****     * in the dstStartTime structure. The hour value is optional and if invalid
 888:Generated_Source\PSoC4/RTC_1.c ****     * taken as 00 hrs. Invalid entries are not stored and the DST start date
 889:Generated_Source\PSoC4/RTC_1.c ****     * retains a previous value or no value at all.
 890:Generated_Source\PSoC4/RTC_1.c ****     *
ARM GAS  C:\Users\7709\AppData\Local\Temp\ccQ2UUYk.s 			page 72


 891:Generated_Source\PSoC4/RTC_1.c ****     * \param dstStartTime
 892:Generated_Source\PSoC4/RTC_1.c ****     * The DST Start time register value, see \ref RTC_1_DST_TIME
 893:Generated_Source\PSoC4/RTC_1.c ****     *
 894:Generated_Source\PSoC4/RTC_1.c ****     * \param type
 895:Generated_Source\PSoC4/RTC_1.c ****     * Defines the DST operation mode, see \ref RTC_1_DST_DATETYPE_ENUM.
 896:Generated_Source\PSoC4/RTC_1.c ****     *
 897:Generated_Source\PSoC4/RTC_1.c ****     *******************************************************************************/
 898:Generated_Source\PSoC4/RTC_1.c ****     void RTC_1_SetDSTStartTime(const RTC_1_DST_TIME* dstStartTime,
 899:Generated_Source\PSoC4/RTC_1.c ****                                                 RTC_1_DST_DATETYPE_ENUM type)
 900:Generated_Source\PSoC4/RTC_1.c ****     {
 901:Generated_Source\PSoC4/RTC_1.c ****         RTC_1_dstStartTime.timeFormat    = (uint8)type;
 902:Generated_Source\PSoC4/RTC_1.c ****         RTC_1_dstStartTime.hour          = dstStartTime->hour;
 903:Generated_Source\PSoC4/RTC_1.c ****         RTC_1_dstStartTime.dayOfWeek     = dstStartTime->dayOfWeek;
 904:Generated_Source\PSoC4/RTC_1.c ****         RTC_1_dstStartTime.weekOfMonth   = dstStartTime->weekOfMonth;
