ARM GAS  C:\Users\7709\AppData\Local\Temp\ccOvqS4l.s 			page 1


   1              		.syntax unified
   2              		.cpu cortex-m0
   3              		.fpu softvfp
   4              		.eabi_attribute 20, 1
   5              		.eabi_attribute 21, 1
   6              		.eabi_attribute 23, 3
   7              		.eabi_attribute 24, 1
   8              		.eabi_attribute 25, 1
   9              		.eabi_attribute 26, 1
  10              		.eabi_attribute 30, 6
  11              		.eabi_attribute 34, 0
  12              		.eabi_attribute 18, 4
  13              		.thumb
  14              		.syntax unified
  15              		.file	"sleep.c"
  16              		.text
  17              	.Ltext0:
  18              		.cfi_sections	.debug_frame
  19              		.comm	counter,4,4
  20              		.section	.text.goSleep,"ax",%progbits
  21              		.align	2
  22              		.global	goSleep
  23              		.code	16
  24              		.thumb_func
  25              		.type	goSleep, %function
  26              	goSleep:
  27              	.LFB35:
  28              		.file 1 "sleep.c"
   1:sleep.c       **** /* ========================================
   2:sleep.c       ****  *
   3:sleep.c       ****  * All function to enter to sleep mode
   4:sleep.c       ****  * ========================================
   5:sleep.c       **** */
   6:sleep.c       **** 
   7:sleep.c       **** #include "Sleep.h"
   8:sleep.c       **** 
   9:sleep.c       **** #define LOW_POWER_MODE
  10:sleep.c       **** int counter;
  11:sleep.c       ****    
  12:sleep.c       **** void goSleep(){
  29              		.loc 1 12 0
  30              		.cfi_startproc
  31              		@ args = 0, pretend = 0, frame = 0
  32              		@ frame_needed = 1, uses_anonymous_args = 0
  33 0000 80B5     		push	{r7, lr}
  34              		.cfi_def_cfa_offset 8
  35              		.cfi_offset 7, -8
  36              		.cfi_offset 14, -4
  37 0002 00AF     		add	r7, sp, #0
  38              		.cfi_def_cfa_register 7
  13:sleep.c       ****     
  14:sleep.c       ****     #ifdef LOW_POWER_MODE    
  15:sleep.c       ****             CYBLE_LP_MODE_T         lpMode;
  16:sleep.c       ****             CYBLE_BLESS_STATE_T     blessState;
  17:sleep.c       ****     #endif
  18:sleep.c       ****   counter=0;
  39              		.loc 1 18 0
ARM GAS  C:\Users\7709\AppData\Local\Temp\ccOvqS4l.s 			page 2


  40 0004 094B     		ldr	r3, .L4
  41 0006 0022     		movs	r2, #0
  42 0008 1A60     		str	r2, [r3]
  19:sleep.c       ****   setTimerTosleep();   
  43              		.loc 1 19 0
  44 000a FFF7FEFF 		bl	setTimerTosleep
  20:sleep.c       ****   while(counter<10)
  45              		.loc 1 20 0
  46 000e 02E0     		b	.L2
  47              	.L3:
  21:sleep.c       ****     {              
  22:sleep.c       ****        
  23:sleep.c       ****                 CySysPmSleep();
  48              		.loc 1 23 0
  49 0010 FFF7FEFF 		bl	CySysPmSleep
  24:sleep.c       ****                 CyGlobalIntEnable;
  50              		.loc 1 24 0
  51              		.syntax divided
  52              	@ 24 "sleep.c" 1
  53 0014 62B6     		CPSIE   i
  54              	@ 0 "" 2
  55              		.thumb
  56              		.syntax unified
  57              	.L2:
  20:sleep.c       ****   while(counter<10)
  58              		.loc 1 20 0
  59 0016 054B     		ldr	r3, .L4
  60 0018 1B68     		ldr	r3, [r3]
  61 001a 092B     		cmp	r3, #9
  62 001c F8DD     		ble	.L3
  25:sleep.c       ****     }
  26:sleep.c       ****     
  27:sleep.c       ****         
  28:sleep.c       ****         /*******************************************************************
  29:sleep.c       ****         *  Process all pending BLE events in the stack
  30:sleep.c       ****         *******************************************************************/       
  31:sleep.c       ****         HandleBleProcessing();
  63              		.loc 1 31 0
  64 001e FFF7FEFF 		bl	HandleBleProcessing
  32:sleep.c       ****         CyBle_ProcessEvents();
  65              		.loc 1 32 0
  66 0022 FFF7FEFF 		bl	CyBle_ProcessEvents
  33:sleep.c       **** }
  67              		.loc 1 33 0
  68 0026 C046     		nop
  69 0028 BD46     		mov	sp, r7
  70              		@ sp needed
  71 002a 80BD     		pop	{r7, pc}
  72              	.L5:
  73              		.align	2
  74              	.L4:
  75 002c 00000000 		.word	counter
  76              		.cfi_endproc
  77              	.LFE35:
  78              		.size	goSleep, .-goSleep
  79              		.section	.text.setTimerTosleep,"ax",%progbits
  80              		.align	2
ARM GAS  C:\Users\7709\AppData\Local\Temp\ccOvqS4l.s 			page 3


  81              		.global	setTimerTosleep
  82              		.code	16
  83              		.thumb_func
  84              		.type	setTimerTosleep, %function
  85              	setTimerTosleep:
  86              	.LFB36:
  34:sleep.c       **** 
  35:sleep.c       **** void setTimerTosleep(){
  87              		.loc 1 35 0
  88              		.cfi_startproc
  89              		@ args = 0, pretend = 0, frame = 0
  90              		@ frame_needed = 1, uses_anonymous_args = 0
  91 0000 80B5     		push	{r7, lr}
  92              		.cfi_def_cfa_offset 8
  93              		.cfi_offset 7, -8
  94              		.cfi_offset 14, -4
  95 0002 00AF     		add	r7, sp, #0
  96              		.cfi_def_cfa_register 7
  97              	.L8:
  36:sleep.c       ****   
  37:sleep.c       ****     while(1){
  38:sleep.c       ****         Sleep_Timer_Init();
  98              		.loc 1 38 0
  99 0004 FFF7FEFF 		bl	Sleep_Timer_Init
  39:sleep.c       ****         Sleep_Timer_Start();
 100              		.loc 1 39 0
 101 0008 FFF7FEFF 		bl	Sleep_Timer_Start
  40:sleep.c       ****         if(Sleep_Timer_ReadCapture()<10){
 102              		.loc 1 40 0
 103 000c FFF7FEFF 		bl	Sleep_Timer_ReadCapture
 104 0010 0300     		movs	r3, r0
 105 0012 092B     		cmp	r3, #9
 106 0014 F6D8     		bhi	.L8
  41:sleep.c       ****           counter++;    
 107              		.loc 1 41 0
 108 0016 034B     		ldr	r3, .L9
 109 0018 1B68     		ldr	r3, [r3]
 110 001a 5A1C     		adds	r2, r3, #1
 111 001c 014B     		ldr	r3, .L9
 112 001e 1A60     		str	r2, [r3]
  42:sleep.c       ****         }
  43:sleep.c       ****     }
 113              		.loc 1 43 0
 114 0020 F0E7     		b	.L8
 115              	.L10:
 116 0022 C046     		.align	2
 117              	.L9:
 118 0024 00000000 		.word	counter
 119              		.cfi_endproc
 120              	.LFE36:
 121              		.size	setTimerTosleep, .-setTimerTosleep
 122              		.text
 123              	.Letext0:
 124              		.file 2 "Generated_Source\\PSoC4/BLE_Stack.h"