ARM GAS  C:\Users\7709\AppData\Local\Temp\cczjreKt.s 			page 1


   1              		.syntax unified
   2              		.cpu cortex-m0
   3              		.fpu softvfp
   4              		.eabi_attribute 20, 1
   5              		.eabi_attribute 21, 1
   6              		.eabi_attribute 23, 3
   7              		.eabi_attribute 24, 1
   8              		.eabi_attribute 25, 1
   9              		.eabi_attribute 26, 1
  10              		.eabi_attribute 30, 6
  11              		.eabi_attribute 34, 0
  12              		.eabi_attribute 18, 4
  13              		.thumb
  14              		.syntax unified
  15              		.file	"wdt_timer.c"
  16              		.text
  17              	.Ltext0:
  18              		.cfi_sections	.debug_frame
  19              		.section	.text.WDT_ISR,"ax",%progbits
  20              		.align	2
  21              		.global	WDT_ISR
  22              		.code	16
  23              		.thumb_func
  24              		.type	WDT_ISR, %function
  25              	WDT_ISR:
  26              	.LFB35:
  27              		.file 1 "wdt_timer.c"
   1:wdt_timer.c   **** /* ========================================
   2:wdt_timer.c   ****  *
   3:wdt_timer.c   ****  * Copyright YOUR COMPANY, THE YEAR
   4:wdt_timer.c   ****  * All Rights Reserved
   5:wdt_timer.c   ****  * UNPUBLISHED, LICENSED SOFTWARE.
   6:wdt_timer.c   ****  *
   7:wdt_timer.c   ****  * CONFIDENTIAL AND PROPRIETARY INFORMATION
   8:wdt_timer.c   ****  * WHICH IS THE PROPERTY OF your company.
   9:wdt_timer.c   ****  *
  10:wdt_timer.c   ****  * ========================================
  11:wdt_timer.c   **** */
  12:wdt_timer.c   **** 
  13:wdt_timer.c   **** #include "wdt_timer.h"
  14:wdt_timer.c   **** 
  15:wdt_timer.c   **** CY_ISR(WDT_ISR)
  16:wdt_timer.c   **** {
  28              		.loc 1 16 0
  29              		.cfi_startproc
  30              		@ args = 0, pretend = 0, frame = 0
  31              		@ frame_needed = 1, uses_anonymous_args = 0
  32 0000 80B5     		push	{r7, lr}
  33              		.cfi_def_cfa_offset 8
  34              		.cfi_offset 7, -8
  35              		.cfi_offset 14, -4
  36 0002 00AF     		add	r7, sp, #0
  37              		.cfi_def_cfa_register 7
  17:wdt_timer.c   ****     //  LED toggle to test if ISR code is running
  18:wdt_timer.c   ****         output_pin_1_Write(0u); 
  38              		.loc 1 18 0
  39 0004 0020     		movs	r0, #0
ARM GAS  C:\Users\7709\AppData\Local\Temp\cczjreKt.s 			page 2


  40 0006 FFF7FEFF 		bl	output_pin_1_Write
  19:wdt_timer.c   ****         CyDelay(200);
  41              		.loc 1 19 0
  42 000a C820     		movs	r0, #200
  43 000c FFF7FEFF 		bl	CyDelay
  20:wdt_timer.c   ****          output_pin_1_Write(1u);
  44              		.loc 1 20 0
  45 0010 0120     		movs	r0, #1
  46 0012 FFF7FEFF 		bl	output_pin_1_Write
  21:wdt_timer.c   ****         CySysWdtClearInterrupt(CY_SYS_WDT_COUNTER0_INT);
  47              		.loc 1 21 0
  48 0016 0420     		movs	r0, #4
  49 0018 FFF7FEFF 		bl	CySysWdtClearInterrupt
  22:wdt_timer.c   **** }
  50              		.loc 1 22 0
  51 001c C046     		nop
  52 001e BD46     		mov	sp, r7
  53              		@ sp needed
  54 0020 80BD     		pop	{r7, pc}
  55              		.cfi_endproc
  56              	.LFE35:
  57              		.size	WDT_ISR, .-WDT_ISR
  58 0022 C046     		.section	.text.setup_wdt,"ax",%progbits
  59              		.align	2
  60              		.global	setup_wdt
  61              		.code	16
  62              		.thumb_func
  63              		.type	setup_wdt, %function
  64              	setup_wdt:
  65              	.LFB36:
  23:wdt_timer.c   **** 
  24:wdt_timer.c   **** void setup_wdt(){
  66              		.loc 1 24 0
  67              		.cfi_startproc
  68              		@ args = 0, pretend = 0, frame = 0
  69              		@ frame_needed = 1, uses_anonymous_args = 0
  70 0000 80B5     		push	{r7, lr}
  71              		.cfi_def_cfa_offset 8
  72              		.cfi_offset 7, -8
  73              		.cfi_offset 14, -4
  74 0002 00AF     		add	r7, sp, #0
  75              		.cfi_def_cfa_register 7
  25:wdt_timer.c   ****     
  26:wdt_timer.c   ****      /* Setup WDT Counter 0 to generate interrupt on match */ 
  27:wdt_timer.c   ****     CySysWdtSetMode(CY_SYS_WDT_COUNTER0,CY_SYS_WDT_MODE_INT); 
  76              		.loc 1 27 0
  77 0004 0121     		movs	r1, #1
  78 0006 0020     		movs	r0, #0
  79 0008 FFF7FEFF 		bl	CySysWdtSetMode
  28:wdt_timer.c   **** 
  29:wdt_timer.c   ****     /* Write match count */ 
  30:wdt_timer.c   ****     CySysWdtSetMatch(CY_SYS_WDT_COUNTER0, PERIOD); 
  80              		.loc 1 30 0
  81 000c 104B     		ldr	r3, .L3
  82 000e 1900     		movs	r1, r3
  83 0010 0020     		movs	r0, #0
  84 0012 FFF7FEFF 		bl	CySysWdtSetMatch
ARM GAS  C:\Users\7709\AppData\Local\Temp\cczjreKt.s 			page 3


  31:wdt_timer.c   ****      
  32:wdt_timer.c   ****     /* Enable clear of counter on match */ 
  33:wdt_timer.c   ****     CySysWdtSetClearOnMatch(CY_SYS_WDT_COUNTER0, 1u); 
  85              		.loc 1 33 0
  86 0016 0121     		movs	r1, #1
  87 0018 0020     		movs	r0, #0
  88 001a FFF7FEFF 		bl	CySysWdtSetClearOnMatch
  34:wdt_timer.c   **** 
  35:wdt_timer.c   ****     /* Enable WDT counter 0 */ 
  36:wdt_timer.c   ****     CySysWdtEnable(CY_SYS_WDT_COUNTER0_MASK);
  89              		.loc 1 36 0
  90 001e 0120     		movs	r0, #1
  91 0020 FFF7FEFF 		bl	CySysWdtEnable
  37:wdt_timer.c   **** 
  38:wdt_timer.c   ****     // Test if WDT resets...
  39:wdt_timer.c   ****     output_pin_2_Write(0u);
  92              		.loc 1 39 0
  93 0024 0020     		movs	r0, #0
  94 0026 FFF7FEFF 		bl	output_pin_2_Write
  40:wdt_timer.c   ****     CyDelay(2000);
  95              		.loc 1 40 0
  96 002a FA23     		movs	r3, #250
  97 002c DB00     		lsls	r3, r3, #3
  98 002e 1800     		movs	r0, r3
  99 0030 FFF7FEFF 		bl	CyDelay
  41:wdt_timer.c   ****     output_pin_2_Write(1u);
 100              		.loc 1 41 0
 101 0034 0120     		movs	r0, #1
 102 0036 FFF7FEFF 		bl	output_pin_2_Write
  42:wdt_timer.c   **** 
  43:wdt_timer.c   ****     /* Map interrupt vector to the WDT_ISR */ 
  44:wdt_timer.c   ****     isr_WDT_StartEx(WDT_ISR);  
 103              		.loc 1 44 0
 104 003a 064B     		ldr	r3, .L3+4
 105 003c 1800     		movs	r0, r3
 106 003e FFF7FEFF 		bl	isr_WDT_StartEx
  45:wdt_timer.c   ****     /* Enable Global Interrupt */ 
  46:wdt_timer.c   ****     CyGlobalIntEnable;
 107              		.loc 1 46 0
 108              		.syntax divided
 109              	@ 46 "wdt_timer.c" 1
 110 0042 62B6     		CPSIE   i
 111              	@ 0 "" 2
  47:wdt_timer.c   ****     
  48:wdt_timer.c   ****      /* 200us delay to ensure WDT configuration is complete */ 
  49:wdt_timer.c   ****     CyDelayUs(200); 
 112              		.loc 1 49 0
 113              		.thumb
 114              		.syntax unified
 115 0044 C820     		movs	r0, #200
 116 0046 FFF7FEFF 		bl	CyDelayUs
  50:wdt_timer.c   **** }
 117              		.loc 1 50 0
 118 004a C046     		nop
 119 004c BD46     		mov	sp, r7
 120              		@ sp needed
 121 004e 80BD     		pop	{r7, pc}
ARM GAS  C:\Users\7709\AppData\Local\Temp\cczjreKt.s 			page 4


 122              	.L4:
 123              		.align	2
 124              	.L3:
 125 0050 FFFF0000 		.word	65535
 126 0054 00000000 		.word	WDT_ISR
 127              		.cfi_endproc
 128              	.LFE36:
 129              		.size	setup_wdt, .-setup_wdt
 130              		.text
 131              	.Letext0:
 132              		.file 2 "Generated_Source\\PSoC4/cytypes.h"